

HI-TECH Software PIC LITE Macro Assembler V9.80 build 6738 
                                                                                               Sun Mar 10 18:44:59 2013

HI-TECH Software Omniscient Code Generator (Lite mode) build 6738
     1  0000                     opt subtitle "HI-TECH Software Omniscient Code Generator (Lite mode) build 6738"
     2                           
     3                           opt pagewidth 120
     4                           
     5                           	opt lm
     6                           
     7                           	processor	16F877A
     8                           clrc	macro
     9                           	bcf	3,0
    10  0000                     	endm
    11                           clrz	macro
    12                           	bcf	3,2
    13  0000                     	endm
    14                           setc	macro
    15                           	bsf	3,0
    16  0000                     	endm
    17                           setz	macro
    18                           	bsf	3,2
    19  0000                     	endm
    20                           skipc	macro
    21                           	btfss	3,0
    22  0000                     	endm
    23                           skipz	macro
    24                           	btfss	3,2
    25  0000                     	endm
    26                           skipnc	macro
    27                           	btfsc	3,0
    28  0000                     	endm
    29                           skipnz	macro
    30                           	btfsc	3,2
    31  0000                     	endm
    32  0000                     indf	equ	0
    33  0000                     indf0	equ	0
    34  0002                     pc	equ	2
    35  0002                     pcl	equ	2
    36  0003                     status	equ	3
    37  0004                     fsr	equ	4
    38  0004                     fsr0	equ	4
    39  0001                     c	equ	1
    40  0000                     z	equ	0
    41  000A                     pclath	equ	10
    42                           # 15 "C:\Users\hardik - admin\Desktop\desktop\royproj_level_pc\main.h"
    43                           	psect config,class=CONFIG,delta=2 ;#
    44                           # 15 "C:\Users\hardik - admin\Desktop\desktop\royproj_level_pc\main.h"
    45  2007  2F0A               	dw 0x2F0A ;#
    46                           	FNCALL	_main,_MainSystemInitialize
    47                           	FNCALL	_main,_SendByteSerially
    48                           	FNCALL	_main,_currentlevel
    49                           	FNCALL	_main,_SeriallyDisplayByte
    50                           	FNCALL	_main,_Delay
    51                           	FNCALL	_main,_ReceiveByteSerially
    52                           	FNCALL	_main,___bmul
    53                           	FNCALL	_SeriallyDisplayByte,___awdiv
    54                           	FNCALL	_SeriallyDisplayByte,_SendByteSerially
    55                           	FNCALL	_SeriallyDisplayByte,___awmod
    56                           	FNCALL	_SeriallyDisplayByte,_Delay
    57                           	FNCALL	_MainSystemInitialize,_InitializeSerialCommunication
    58                           	FNROOT	_main
    59                           	global	_AT0
    60                           	global	_AT2
    61                           	global	_AT
    62                           	global	_AT1
    63                           	global	_AT3
    64                           psect	idataBANK0,class=CODE,space=0,delta=2
    65                           global __pidataBANK0
    66  01D3                     __pidataBANK0:
    67                           	file	"C:\Users\hardik - admin\Desktop\desktop\royproj_level_pc\main.h"
    68                           	line	27
    69                           
    70                           ;initializer for _AT0
    71  01D3  3443               	retlw	043h
    72  01D4  3475               	retlw	075h
    73  01D5  3472               	retlw	072h
    74  01D6  3472               	retlw	072h
    75  01D7  3465               	retlw	065h
    76  01D8  346E               	retlw	06Eh
    77  01D9  3474               	retlw	074h
    78  01DA  3420               	retlw	020h
    79  01DB  346C               	retlw	06Ch
    80  01DC  3465               	retlw	065h
    81  01DD  3476               	retlw	076h
    82  01DE  3465               	retlw	065h
    83  01DF  346C               	retlw	06Ch
    84  01E0  343A               	retlw	03Ah
    85  01E1  3400               	retlw	0
    86                           	line	29
    87                           
    88                           ;initializer for _AT2
    89  01E2  344E               	retlw	04Eh
    90  01E3  3465               	retlw	065h
    91  01E4  3477               	retlw	077h
    92  01E5  3420               	retlw	020h
    93  01E6  346C               	retlw	06Ch
    94  01E7  3465               	retlw	065h
    95  01E8  3476               	retlw	076h
    96  01E9  3465               	retlw	065h
    97  01EA  346C               	retlw	06Ch
    98  01EB  343A               	retlw	03Ah
    99  01EC  3400               	retlw	0
   100  01ED  3400               	retlw	0
   101                           psect	idataBANK1,class=CODE,space=0,delta=2
   102                           global __pidataBANK1
   103  0251                     __pidataBANK1:
   104                           	line	26
   105                           
   106                           ;initializer for _AT
   107  0251  344C               	retlw	04Ch
   108  0252  3445               	retlw	045h
   109  0253  3456               	retlw	056h
   110  0254  3445               	retlw	045h
   111  0255  344C               	retlw	04Ch
   112  0256  3420               	retlw	020h
   113  0257  3443               	retlw	043h
   114  0258  344F               	retlw	04Fh
   115  0259  344E               	retlw	04Eh
   116  025A  3454               	retlw	054h
   117  025B  3452               	retlw	052h
   118  025C  344F               	retlw	04Fh
   119  025D  344C               	retlw	04Ch
   120  025E  344C               	retlw	04Ch
   121  025F  3445               	retlw	045h
   122  0260  3452               	retlw	052h
   123  0261  3420               	retlw	020h
   124  0262  344B               	retlw	04Bh
   125  0263  3449               	retlw	049h
   126  0264  3454               	retlw	054h
   127  0265  3400               	retlw	0
   128  0266  3400               	retlw	0
   129  0267  3400               	retlw	0
   130  0268  3400               	retlw	0
   131  0269  3400               	retlw	0
   132  026A  3400               	retlw	0
   133  026B  3400               	retlw	0
   134  026C  3400               	retlw	0
   135  026D  3400               	retlw	0
   136  026E  3400               	retlw	0
   137                           	line	28
   138                           
   139                           ;initializer for _AT1
   140  026F  3445               	retlw	045h
   141  0270  346E               	retlw	06Eh
   142  0271  3474               	retlw	074h
   143  0272  3465               	retlw	065h
   144  0273  3472               	retlw	072h
   145  0274  3420               	retlw	020h
   146  0275  3453               	retlw	053h
   147  0276  3465               	retlw	065h
   148  0277  3474               	retlw	074h
   149  0278  3420               	retlw	020h
   150  0279  3470               	retlw	070h
   151  027A  346F               	retlw	06Fh
   152  027B  3469               	retlw	069h
   153  027C  346E               	retlw	06Eh
   154  027D  3474               	retlw	074h
   155  027E  343A               	retlw	03Ah
   156  027F  3400               	retlw	0
   157  0280  3400               	retlw	0
   158  0281  3400               	retlw	0
   159  0282  3400               	retlw	0
   160                           	line	30
   161                           
   162                           ;initializer for _AT3
   163  0283  3453               	retlw	053h
   164  0284  3465               	retlw	065h
   165  0285  3474               	retlw	074h
   166  0286  3420               	retlw	020h
   167  0287  3450               	retlw	050h
   168  0288  346F               	retlw	06Fh
   169  0289  3469               	retlw	069h
   170  028A  346E               	retlw	06Eh
   171  028B  3474               	retlw	074h
   172  028C  3420               	retlw	020h
   173  028D  3472               	retlw	072h
   174  028E  3465               	retlw	065h
   175  028F  3461               	retlw	061h
   176  0290  3463               	retlw	063h
   177  0291  3468               	retlw	068h
   178  0292  3465               	retlw	065h
   179  0293  3464               	retlw	064h
   180  0294  3400               	retlw	0
   181  0295  3400               	retlw	0
   182  0296  3400               	retlw	0
   183                           	global	_Count
   184                           	global	_current
   185                           	global	_error
   186                           	global	_flag1
   187                           	global	_i
   188                           	global	_j
   189                           	global	_k
   190                           	global	_sp
   191                           	global	_temp
   192                           	global	_receivesp
   193                           	global	_PORTB
   194  0006                     _PORTB	set	6
   195                           	global	_PORTD
   196  0008                     _PORTD	set	8
   197                           	global	_RCREG
   198  001A                     _RCREG	set	26
   199                           	global	_RCSTA
   200  0018                     _RCSTA	set	24
   201                           	global	_TXREG
   202  0019                     _TXREG	set	25
   203                           	global	_RCIF
   204  0065                     _RCIF	set	101
   205                           	global	_TXIF
   206  0064                     _TXIF	set	100
   207                           	global	_SPBRG
   208  0099                     _SPBRG	set	153
   209                           	global	_TRISB
   210  0086                     _TRISB	set	134
   211                           	global	_TRISD
   212  0088                     _TRISD	set	136
   213                           	global	_TXSTA
   214  0098                     _TXSTA	set	152
   215                           	global	_RBPU
   216  040F                     _RBPU	set	1039
   217                           	global	_SYNC
   218  04C4                     _SYNC	set	1220
   219                           	file	"LCD Interfacing.as"
   220                           	line	#
   221                           psect cinit,class=CODE,delta=2
   222                           global start_initialization
   223  022A                     start_initialization:
   224                           
   225                           psect	bssBANK0,class=BANK0,space=1
   226                           global __pbssBANK0
   227  0020                     __pbssBANK0:
   228  0020                     _Count:
   229  0020                            ds      1
   230                           
   231  0021                     _current:
   232  0021                            ds      1
   233                           
   234  0022                     _error:
   235  0022                            ds      1
   236                           
   237  0023                     _flag1:
   238  0023                            ds      1
   239                           
   240  0024                     _i:
   241  0024                            ds      1
   242                           
   243  0025                     _j:
   244  0025                            ds      1
   245                           
   246  0026                     _k:
   247  0026                            ds      1
   248                           
   249  0027                     _sp:
   250  0027                            ds      1
   251                           
   252  0028                     _temp:
   253  0028                            ds      1
   254                           
   255  0029                     _receivesp:
   256  0029                            ds      20
   257                           
   258                           psect	dataBANK0,class=BANK0,space=1
   259                           global __pdataBANK0
   260  003D                     __pdataBANK0:
   261                           	file	"C:\Users\hardik - admin\Desktop\desktop\royproj_level_pc\main.h"
   262                           	line	27
   263  003D                     _AT0:
   264  003D                            ds      15
   265                           
   266                           psect	dataBANK0
   267                           	file	"C:\Users\hardik - admin\Desktop\desktop\royproj_level_pc\main.h"
   268                           	line	29
   269  004C                     _AT2:
   270  004C                            ds      12
   271                           
   272                           psect	dataBANK1,class=BANK1,space=1
   273                           global __pdataBANK1
   274  00A0                     __pdataBANK1:
   275                           	file	"C:\Users\hardik - admin\Desktop\desktop\royproj_level_pc\main.h"
   276                           	line	26
   277  00A0                     _AT:
   278  00A0                            ds      30
   279                           
   280                           psect	dataBANK1
   281                           	file	"C:\Users\hardik - admin\Desktop\desktop\royproj_level_pc\main.h"
   282                           	line	28
   283  00BE                     _AT1:
   284  00BE                            ds      20
   285                           
   286                           psect	dataBANK1
   287                           	file	"C:\Users\hardik - admin\Desktop\desktop\royproj_level_pc\main.h"
   288                           	line	30
   289  00D2                     _AT3:
   290  00D2                            ds      20
   291                           
   292                           psect clrtext,class=CODE,delta=2
   293                           global clear_ram
   294                           ;	Called with FSR containing the base address, and
   295                           ;	W with the last address+1
   296  0195                     clear_ram:
   297  0195  0064               	clrwdt			;clear the watchdog before getting into this loop
   298  0196                     clrloop:
   299  0196  0180               	clrf	indf		;clear RAM location pointed to by FSR
   300  0197  0A84               	incf	fsr,f		;increment pointer
   301  0198  0604               	xorwf	fsr,w		;XOR with final address
   302  0199  1903               	btfsc	status,2	;have we reached the end yet?
   303  019A  3400               	retlw	0		;all done for this memory range, return
   304  019B  0604               	xorwf	fsr,w		;XOR again to restore value
   305  019C  2996               	goto	clrloop		;do the next byte
   306                           
   307                           ; Clear objects allocated to BANK0
   308                           psect cinit,class=CODE,delta=2
   309  022A  1383               	bcf	status, 7	;select IRP bank0
   310  022B  3020               	movlw	low(__pbssBANK0)
   311  022C  0084               	movwf	fsr
   312  022D  303D               	movlw	low((__pbssBANK0)+01Dh)
   313  022E  120A  118A  2195   	fcall	clear_ram
              120A  118A         
   314                           global btemp
   315                           psect inittext,class=CODE,delta=2
   316                           global init_fetch,btemp
   317                           ;	Called with low address in FSR and high address in W
   318  01C2                     init_fetch:
   319  01C2  087E               	movf btemp,w
   320  01C3  008A               	movwf pclath
   321  01C4  087F               	movf btemp+1,w
   322  01C5  0082               	movwf pc
   323                           global init_ram
   324                           ;Called with:
   325                           ;	high address of idata address in btemp 
   326                           ;	low address of idata address in btemp+1 
   327                           ;	low address of data in FSR
   328                           ;	high address + 1 of data in btemp-1
   329  01C6                     init_ram:
   330  01C6  21C2  120A  118A   	fcall init_fetch
   331  01C9  0080               	movwf indf,f
   332  01CA  0A84               	incf fsr,f
   333  01CB  0804               	movf fsr,w
   334  01CC  067D               	xorwf btemp-1,w
   335  01CD  1903               	btfsc status,2
   336  01CE  3400               	retlw 0
   337  01CF  0AFF               	incf btemp+1,f
   338  01D0  1903               	btfsc status,2
   339  01D1  0AFE               	incf btemp,f
   340  01D2  29C6               	goto init_ram
   341                           ; Initialize objects allocated to BANK1
   342                           psect cinit,class=CODE,delta=2
   343                           global init_ram, __pidataBANK1
   344  0233  30E6               	movlw low(__pdataBANK1+70)
   345  0234  00FD               	movwf btemp-1,f
   346  0235  3002               	movlw high(__pidataBANK1)
   347  0236  00FE               	movwf btemp,f
   348  0237  3051               	movlw low(__pidataBANK1)
   349  0238  00FF               	movwf btemp+1,f
   350  0239  30A0               	movlw low(__pdataBANK1)
   351  023A  0084               	movwf fsr,f
   352  023B  120A  118A  21C6   	fcall init_ram
              120A  118A         
   353                           ; Initialize objects allocated to BANK0
   354                           psect cinit,class=CODE,delta=2
   355                           global init_ram, __pidataBANK0
   356  0240  3058               	movlw low(__pdataBANK0+27)
   357  0241  00FD               	movwf btemp-1,f
   358  0242  3001               	movlw high(__pidataBANK0)
   359  0243  00FE               	movwf btemp,f
   360  0244  30D3               	movlw low(__pidataBANK0)
   361  0245  00FF               	movwf btemp+1,f
   362  0246  303D               	movlw low(__pdataBANK0)
   363  0247  0084               	movwf fsr,f
   364  0248  120A  118A  21C6   	fcall init_ram
              120A  118A         
   365                           psect cinit,class=CODE,delta=2
   366                           global end_of_initialization
   367                           
   368                           ;End of C runtime variable initialization code
   369                           
   370  024D                     end_of_initialization:
   371  024D  0183               clrf status
   372  024E  120A  118A  2CF4   ljmp _main	;jump to C main() function
   373                           psect	cstackCOMMON,class=COMMON,space=1
   374                           global __pcstackCOMMON
   375  0070                     __pcstackCOMMON:
   376                           	global	?_MainSystemInitialize
   377  0070                     ?_MainSystemInitialize:	; 0 bytes @ 0x0
   378                           	global	??_MainSystemInitialize
   379  0070                     ??_MainSystemInitialize:	; 0 bytes @ 0x0
   380                           	global	?_SendByteSerially
   381  0070                     ?_SendByteSerially:	; 0 bytes @ 0x0
   382                           	global	??_SendByteSerially
   383  0070                     ??_SendByteSerially:	; 0 bytes @ 0x0
   384                           	global	?_currentlevel
   385  0070                     ?_currentlevel:	; 0 bytes @ 0x0
   386                           	global	??_currentlevel
   387  0070                     ??_currentlevel:	; 0 bytes @ 0x0
   388                           	global	?_SeriallyDisplayByte
   389  0070                     ?_SeriallyDisplayByte:	; 0 bytes @ 0x0
   390                           	global	??_ReceiveByteSerially
   391  0070                     ??_ReceiveByteSerially:	; 0 bytes @ 0x0
   392                           	global	?_InitializeSerialCommunication
   393  0070                     ?_InitializeSerialCommunication:	; 0 bytes @ 0x0
   394                           	global	??_InitializeSerialCommunication
   395  0070                     ??_InitializeSerialCommunication:	; 0 bytes @ 0x0
   396                           	global	?_Delay
   397  0070                     ?_Delay:	; 0 bytes @ 0x0
   398                           	global	?_main
   399  0070                     ?_main:	; 0 bytes @ 0x0
   400                           	global	?_ReceiveByteSerially
   401  0070                     ?_ReceiveByteSerially:	; 1 bytes @ 0x0
   402                           	global	?___bmul
   403  0070                     ?___bmul:	; 1 bytes @ 0x0
   404                           	global	?___awmod
   405  0070                     ?___awmod:	; 2 bytes @ 0x0
   406                           	global	SendByteSerially@byte
   407  0070                     SendByteSerially@byte:	; 1 bytes @ 0x0
   408                           	global	___bmul@multiplicand
   409  0070                     ___bmul@multiplicand:	; 1 bytes @ 0x0
   410                           	global	Delay@time
   411  0070                     Delay@time:	; 2 bytes @ 0x0
   412                           	global	___awmod@divisor
   413  0070                     ___awmod@divisor:	; 2 bytes @ 0x0
   414  0070                     	ds	1
   415                           	global	??___bmul
   416  0071                     ??___bmul:	; 0 bytes @ 0x1
   417  0071                     	ds	1
   418                           	global	??_Delay
   419  0072                     ??_Delay:	; 0 bytes @ 0x2
   420                           	global	___bmul@product
   421  0072                     ___bmul@product:	; 1 bytes @ 0x2
   422                           	global	___awmod@dividend
   423  0072                     ___awmod@dividend:	; 2 bytes @ 0x2
   424  0072                     	ds	1
   425                           	global	Delay@pause
   426  0073                     Delay@pause:	; 1 bytes @ 0x3
   427                           	global	___bmul@multiplier
   428  0073                     ___bmul@multiplier:	; 1 bytes @ 0x3
   429  0073                     	ds	1
   430                           	global	??___awmod
   431  0074                     ??___awmod:	; 0 bytes @ 0x4
   432  0074                     	ds	1
   433                           	global	___awmod@counter
   434  0075                     ___awmod@counter:	; 1 bytes @ 0x5
   435  0075                     	ds	1
   436                           	global	___awmod@sign
   437  0076                     ___awmod@sign:	; 1 bytes @ 0x6
   438  0076                     	ds	1
   439                           	global	?___awdiv
   440  0077                     ?___awdiv:	; 2 bytes @ 0x7
   441                           	global	___awdiv@divisor
   442  0077                     ___awdiv@divisor:	; 2 bytes @ 0x7
   443  0077                     	ds	2
   444                           	global	___awdiv@dividend
   445  0079                     ___awdiv@dividend:	; 2 bytes @ 0x9
   446  0079                     	ds	2
   447                           	global	??___awdiv
   448  007B                     ??___awdiv:	; 0 bytes @ 0xB
   449  007B                     	ds	1
   450                           	global	??_SeriallyDisplayByte
   451  007C                     ??_SeriallyDisplayByte:	; 0 bytes @ 0xC
   452  007C                     	ds	2
   453                           psect	cstackBANK0,class=BANK0,space=1
   454                           global __pcstackBANK0
   455  0058                     __pcstackBANK0:
   456                           	global	___awdiv@counter
   457  0058                     ___awdiv@counter:	; 1 bytes @ 0x0
   458  0058                     	ds	1
   459                           	global	___awdiv@sign
   460  0059                     ___awdiv@sign:	; 1 bytes @ 0x1
   461  0059                     	ds	1
   462                           	global	___awdiv@quotient
   463  005A                     ___awdiv@quotient:	; 2 bytes @ 0x2
   464  005A                     	ds	2
   465                           	global	SeriallyDisplayByte@Value
   466  005C                     SeriallyDisplayByte@Value:	; 1 bytes @ 0x4
   467  005C                     	ds	1
   468                           	global	??_main
   469  005D                     ??_main:	; 0 bytes @ 0x5
   470  005D                     	ds	6
   471 ;;Data sizes: Strings 0, constant 0, data 97, bss 29, persistent 0 stack 0
   472 ;;Auto spaces:   Size  Autos    Used
   473 ;; COMMON          14     14      14
   474 ;; BANK0           80     11      67
   475 ;; BANK1           80      0      70
   476 ;; BANK3           96      0       0
   477 ;; BANK2           96      0       0
   478                           
   479 ;;
   480 ;; Pointer list with targets:
   481                           
   482 ;; ?___awmod	int  size(1) Largest target is 0
   483 ;;
   484 ;; ?___awdiv	int  size(1) Largest target is 0
   485 ;;
   486                           
   487                           
   488 ;;
   489 ;; Critical Paths under _main in COMMON
   490 ;;
   491 ;;   _main->_SeriallyDisplayByte
   492 ;;   _SeriallyDisplayByte->___awdiv
   493 ;;   ___awdiv->___awmod
   494 ;;
   495 ;; Critical Paths under _main in BANK0
   496 ;;
   497 ;;   _main->_SeriallyDisplayByte
   498 ;;   _SeriallyDisplayByte->___awdiv
   499 ;;
   500 ;; Critical Paths under _main in BANK1
   501 ;;
   502 ;;   None.
   503 ;;
   504 ;; Critical Paths under _main in BANK3
   505 ;;
   506 ;;   None.
   507 ;;
   508 ;; Critical Paths under _main in BANK2
   509 ;;
   510 ;;   None.
   511                           
   512 ;;
   513 ;;Main: autosize = 0, tempsize = 6, incstack = 0, save=0
   514 ;;
   515                           
   516 ;;
   517 ;;Call Graph Tables:
   518 ;;
   519 ;; ---------------------------------------------------------------------------------
   520 ;; (Depth) Function   	        Calls       Base Space   Used Autos Params    Refs
   521 ;; ---------------------------------------------------------------------------------
   522 ;; (0) _main                                                 6     6      0     979
   523 ;;                                              5 BANK0      6     6      0
   524 ;;               _MainSystemInitialize
   525 ;;                   _SendByteSerially
   526 ;;                       _currentlevel
   527 ;;                _SeriallyDisplayByte
   528 ;;                              _Delay
   529 ;;                _ReceiveByteSerially
   530 ;;                             ___bmul
   531 ;; ---------------------------------------------------------------------------------
   532 ;; (1) _SeriallyDisplayByte                                  3     3      0     819
   533 ;;                                             12 COMMON     2     2      0
   534 ;;                                              4 BANK0      1     1      0
   535 ;;                            ___awdiv
   536 ;;                   _SendByteSerially
   537 ;;                            ___awmod
   538 ;;                              _Delay
   539 ;; ---------------------------------------------------------------------------------
   540 ;; (1) _MainSystemInitialize                                 0     0      0       0
   541 ;;      _InitializeSerialCommunication
   542 ;; ---------------------------------------------------------------------------------
   543 ;; (2) ___awmod                                              7     3      4     296
   544 ;;                                              0 COMMON     7     3      4
   545 ;; ---------------------------------------------------------------------------------
   546 ;; (2) ___awdiv                                              9     5      4     300
   547 ;;                                              7 COMMON     5     1      4
   548 ;;                                              0 BANK0      4     4      0
   549 ;;                            ___awmod (ARG)
   550 ;; ---------------------------------------------------------------------------------
   551 ;; (1) ___bmul                                               4     3      1      92
   552 ;;                                              0 COMMON     4     3      1
   553 ;; ---------------------------------------------------------------------------------
   554 ;; (2) _InitializeSerialCommunication                        0     0      0       0
   555 ;; ---------------------------------------------------------------------------------
   556 ;; (1) _ReceiveByteSerially                                  0     0      0       0
   557 ;; ---------------------------------------------------------------------------------
   558 ;; (1) _currentlevel                                         1     1      0       0
   559 ;;                                              0 COMMON     1     1      0
   560 ;; ---------------------------------------------------------------------------------
   561 ;; (2) _SendByteSerially                                     1     1      0      22
   562 ;;                                              0 COMMON     1     1      0
   563 ;; ---------------------------------------------------------------------------------
   564 ;; (1) _Delay                                                4     2      2      46
   565 ;;                                              0 COMMON     4     2      2
   566 ;; ---------------------------------------------------------------------------------
   567 ;; Estimated maximum stack depth 2
   568 ;; ---------------------------------------------------------------------------------
   569                           
   570 ;; Call Graph Graphs:
   571                           
   572 ;; _main (ROOT)
   573 ;;   _MainSystemInitialize
   574 ;;     _InitializeSerialCommunication
   575 ;;   _SendByteSerially
   576 ;;   _currentlevel
   577 ;;   _SeriallyDisplayByte
   578 ;;     ___awdiv
   579 ;;       ___awmod (ARG)
   580 ;;     _SendByteSerially
   581 ;;     ___awmod
   582 ;;     _Delay
   583 ;;   _Delay
   584 ;;   _ReceiveByteSerially
   585 ;;   ___bmul
   586 ;;
   587                           
   588 ;; Address spaces:
   589                           
   590 ;;Name               Size   Autos  Total    Cost      Usage
   591 ;;BANK3               60      0       0       9        0.0%
   592 ;;BITBANK3            60      0       0       8        0.0%
   593 ;;SFR3                 0      0       0       4        0.0%
   594 ;;BITSFR3              0      0       0       4        0.0%
   595 ;;BANK2               60      0       0      11        0.0%
   596 ;;BITBANK2            60      0       0      10        0.0%
   597 ;;SFR2                 0      0       0       5        0.0%
   598 ;;BITSFR2              0      0       0       5        0.0%
   599 ;;SFR1                 0      0       0       2        0.0%
   600 ;;BITSFR1              0      0       0       2        0.0%
   601 ;;BANK1               50      0      46       7       87.5%
   602 ;;BITBANK1            50      0       0       6        0.0%
   603 ;;CODE                 0      0       0       0        0.0%
   604 ;;DATA                 0      0      99      12        0.0%
   605 ;;ABS                  0      0      97       3        0.0%
   606 ;;NULL                 0      0       0       0        0.0%
   607 ;;STACK                0      0       2       2        0.0%
   608 ;;BANK0               50      B      43       5       83.8%
   609 ;;BITBANK0            50      0       0       4        0.0%
   610 ;;SFR0                 0      0       0       1        0.0%
   611 ;;BITSFR0              0      0       0       1        0.0%
   612 ;;COMMON               E      E       E       1      100.0%
   613 ;;BITCOMMON            E      0       0       0        0.0%
   614 ;;EEDATA             100      0       0       0        0.0%
   615                           
   616                           	global	_main
   617                           psect	maintext,global,class=CODE,delta=2
   618                           global __pmaintext
   619  04F4                     __pmaintext:
   620                           
   621 ;; *************** function _main *****************
   622 ;; Defined at:
   623 ;;		line 8 in file "C:\Users\hardik - admin\Desktop\desktop\royproj_level_pc\main.c"
   624 ;; Parameters:    Size  Location     Type
   625 ;;		None
   626 ;; Auto vars:     Size  Location     Type
   627 ;;		None
   628 ;; Return value:  Size  Location     Type
   629 ;;		None               void
   630 ;; Registers used:
   631 ;;		wreg, fsr0l, fsr0h, status,2, status,0, btemp+1, pclath, cstack
   632 ;; Tracked objects:
   633 ;;		On entry : 17F/0
   634 ;;		On exit  : 0/0
   635 ;;		Unchanged: 0/0
   636 ;; Data sizes:     COMMON   BANK0   BANK1   BANK3   BANK2
   637 ;;      Params:         0       0       0       0       0
   638 ;;      Locals:         0       0       0       0       0
   639 ;;      Temps:          0       6       0       0       0
   640 ;;      Totals:         0       6       0       0       0
   641 ;;Total ram usage:        6 bytes
   642 ;; Hardware stack levels required when called:    2
   643 ;; This function calls:
   644 ;;		_MainSystemInitialize
   645 ;;		_SendByteSerially
   646 ;;		_currentlevel
   647 ;;		_SeriallyDisplayByte
   648 ;;		_Delay
   649 ;;		_ReceiveByteSerially
   650 ;;		___bmul
   651 ;; This function is called by:
   652 ;;		Startup code after reset
   653 ;; This function uses a non-reentrant model
   654 ;;
   655                           psect	maintext
   656                           	file	"C:\Users\hardik - admin\Desktop\desktop\royproj_level_pc\main.c"
   657                           	line	8
   658                           	global	__size_of_main
   659  030C                     	__size_of_main	equ	__end_of_main-_main
   660                           	
   661  04F4                     _main:	
   662                           	opt	stack 6
   663                           ; Regs used in _main: [wreg-fsr0h+status,2+status,0+btemp+1+pclath+cstack]
   664                           	line	10
   665                           	
   666  04F4                     l3078:	
   667                           ;main.c: 10: TRISB = 0xFF;
   668  04F4  30FF               	movlw	(0FFh)
   669  04F5  1683               	bsf	status, 5	;RP0=1, select bank1
   670  04F6  1303               	bcf	status, 6	;RP1=0, select bank1
   671  04F7  0086               	movwf	(134)^080h	;volatile
   672                           	line	11
   673                           	
   674  04F8                     l3080:	
   675                           ;main.c: 11: TRISD=0x00;
   676  04F8  0188               	clrf	(136)^080h	;volatile
   677                           	line	12
   678                           	
   679  04F9                     l3082:	
   680                           ;main.c: 12: RBPU=0;
   681  04F9  1381               	bcf	(1039/8)^080h,(1039)&7
   682                           	line	14
   683                           	
   684  04FA                     l3084:	
   685                           ;main.c: 14: MainSystemInitialize();
   686  04FA  120A  118A  218F   	fcall	_MainSystemInitialize
              120A  118A         
   687                           	line	16
   688                           	
   689  04FF                     l3086:	
   690                           ;main.c: 16: for(i=0;i<20;i++)
   691  04FF  1003               	clrc
   692  0500  3000               	movlw	0
   693  0501  1803               	btfsc	status,0
   694  0502  3001               	movlw	1
   695  0503  1283               	bcf	status, 5	;RP0=0, select bank0
   696  0504  1303               	bcf	status, 6	;RP1=0, select bank0
   697  0505  00A4               	movwf	(_i)
   698                           	
   699  0506                     l3088:	
   700  0506  3014               	movlw	(014h)
   701  0507  0224               	subwf	(_i),w
   702  0508  1C03               	skipc
   703  0509  2D0B               	goto	u3151
   704  050A  2D0C               	goto	u3150
   705  050B                     u3151:
   706  050B  2D0E               	goto	l3092
   707  050C                     u3150:
   708  050C  2D25               	goto	l3098
   709                           	
   710  050D                     l3090:	
   711  050D  2D25               	goto	l3098
   712                           	line	17
   713                           	
   714  050E                     l610:	
   715                           	line	18
   716                           	
   717  050E                     l3092:	
   718                           ;main.c: 17: {
   719                           ;main.c: 18: SendByteSerially(AT[i]);
   720  050E  0824               	movf	(_i),w
   721  050F  3EA0               	addlw	_AT&0ffh
   722  0510  0084               	movwf	fsr0
   723  0511  1383               	bcf	status, 7	;select IRP bank1
   724  0512  0800               	movf	indf,w
   725  0513  120A  118A  21A8   	fcall	_SendByteSerially
              120A  118A         
   726                           	line	16
   727                           	
   728  0518                     l3094:	
   729  0518  3001               	movlw	(01h)
   730  0519  1283               	bcf	status, 5	;RP0=0, select bank0
   731  051A  1303               	bcf	status, 6	;RP1=0, select bank0
   732  051B  00DD               	movwf	(??_main+0)+0
   733  051C  085D               	movf	(??_main+0)+0,w
   734  051D  07A4               	addwf	(_i),f
   735                           	
   736  051E                     l3096:	
   737  051E  3014               	movlw	(014h)
   738  051F  0224               	subwf	(_i),w
   739  0520  1C03               	skipc
   740  0521  2D23               	goto	u3161
   741  0522  2D24               	goto	u3160
   742  0523                     u3161:
   743  0523  2D0E               	goto	l3092
   744  0524                     u3160:
   745  0524  2D25               	goto	l3098
   746                           	
   747  0525                     l611:	
   748                           	line	21
   749                           	
   750  0525                     l3098:	
   751                           ;main.c: 19: }
   752                           ;main.c: 21: SendByteSerially(0x0D);
   753  0525  300D               	movlw	(0Dh)
   754  0526  120A  118A  21A8   	fcall	_SendByteSerially
              120A  118A         
   755                           	line	22
   756                           ;main.c: 22: SendByteSerially(0x0A);
   757  052B  300A               	movlw	(0Ah)
   758  052C  120A  118A  21A8   	fcall	_SendByteSerially
              120A  118A         
   759                           	line	23
   760                           ;main.c: 23: SendByteSerially(0x0D);
   761  0531  300D               	movlw	(0Dh)
   762  0532  120A  118A  21A8   	fcall	_SendByteSerially
              120A  118A         
   763                           	line	24
   764                           ;main.c: 24: SendByteSerially(0x0A);
   765  0537  300A               	movlw	(0Ah)
   766  0538  120A  118A  21A8   	fcall	_SendByteSerially
              120A  118A         
   767                           	line	26
   768                           ;main.c: 26: currentlevel();
   769  053D  120A  118A  2301   	fcall	_currentlevel
              120A  118A         
   770                           	line	28
   771                           	
   772  0542                     l3100:	
   773                           ;main.c: 28: for(i=0;i<14;i++)
   774  0542  1003               	clrc
   775  0543  3000               	movlw	0
   776  0544  1803               	btfsc	status,0
   777  0545  3001               	movlw	1
   778  0546  1283               	bcf	status, 5	;RP0=0, select bank0
   779  0547  1303               	bcf	status, 6	;RP1=0, select bank0
   780  0548  00A4               	movwf	(_i)
   781                           	
   782  0549                     l3102:	
   783  0549  300E               	movlw	(0Eh)
   784  054A  0224               	subwf	(_i),w
   785  054B  1C03               	skipc
   786  054C  2D4E               	goto	u3171
   787  054D  2D4F               	goto	u3170
   788  054E                     u3171:
   789  054E  2D51               	goto	l3106
   790  054F                     u3170:
   791  054F  2D68               	goto	l3112
   792                           	
   793  0550                     l3104:	
   794  0550  2D68               	goto	l3112
   795                           	line	29
   796                           	
   797  0551                     l612:	
   798                           	line	30
   799                           	
   800  0551                     l3106:	
   801                           ;main.c: 29: {
   802                           ;main.c: 30: SendByteSerially(AT0[i]);
   803  0551  0824               	movf	(_i),w
   804  0552  3E3D               	addlw	_AT0&0ffh
   805  0553  0084               	movwf	fsr0
   806  0554  1383               	bcf	status, 7	;select IRP bank0
   807  0555  0800               	movf	indf,w
   808  0556  120A  118A  21A8   	fcall	_SendByteSerially
              120A  118A         
   809                           	line	28
   810                           	
   811  055B                     l3108:	
   812  055B  3001               	movlw	(01h)
   813  055C  1283               	bcf	status, 5	;RP0=0, select bank0
   814  055D  1303               	bcf	status, 6	;RP1=0, select bank0
   815  055E  00DD               	movwf	(??_main+0)+0
   816  055F  085D               	movf	(??_main+0)+0,w
   817  0560  07A4               	addwf	(_i),f
   818                           	
   819  0561                     l3110:	
   820  0561  300E               	movlw	(0Eh)
   821  0562  0224               	subwf	(_i),w
   822  0563  1C03               	skipc
   823  0564  2D66               	goto	u3181
   824  0565  2D67               	goto	u3180
   825  0566                     u3181:
   826  0566  2D51               	goto	l3106
   827  0567                     u3180:
   828  0567  2D68               	goto	l3112
   829                           	
   830  0568                     l613:	
   831                           	line	33
   832                           	
   833  0568                     l3112:	
   834                           ;main.c: 31: }
   835                           ;main.c: 33: SeriallyDisplayByte(current);
   836  0568  0821               	movf	(_current),w
   837  0569  120A  118A  23EE   	fcall	_SeriallyDisplayByte
              120A  118A         
   838                           	line	35
   839                           ;main.c: 35: SendByteSerially(0x0D);
   840  056E  300D               	movlw	(0Dh)
   841  056F  120A  118A  21A8   	fcall	_SendByteSerially
              120A  118A         
   842                           	line	36
   843                           ;main.c: 36: SendByteSerially(0x0A);
   844  0574  300A               	movlw	(0Ah)
   845  0575  120A  118A  21A8   	fcall	_SendByteSerially
              120A  118A         
   846                           	line	38
   847                           	
   848  057A                     l3114:	
   849                           ;main.c: 38: for(i=0;i<16;i++)
   850  057A  1003               	clrc
   851  057B  3000               	movlw	0
   852  057C  1803               	btfsc	status,0
   853  057D  3001               	movlw	1
   854  057E  1283               	bcf	status, 5	;RP0=0, select bank0
   855  057F  1303               	bcf	status, 6	;RP1=0, select bank0
   856  0580  00A4               	movwf	(_i)
   857                           	
   858  0581                     l3116:	
   859  0581  3010               	movlw	(010h)
   860  0582  0224               	subwf	(_i),w
   861  0583  1C03               	skipc
   862  0584  2D86               	goto	u3191
   863  0585  2D87               	goto	u3190
   864  0586                     u3191:
   865  0586  2D89               	goto	l3120
   866  0587                     u3190:
   867  0587  2DA0               	goto	l3126
   868                           	
   869  0588                     l3118:	
   870  0588  2DA0               	goto	l3126
   871                           	line	39
   872                           	
   873  0589                     l614:	
   874                           	line	40
   875                           	
   876  0589                     l3120:	
   877                           ;main.c: 39: {
   878                           ;main.c: 40: SendByteSerially(AT1[i]);
   879  0589  0824               	movf	(_i),w
   880  058A  3EBE               	addlw	_AT1&0ffh
   881  058B  0084               	movwf	fsr0
   882  058C  1383               	bcf	status, 7	;select IRP bank1
   883  058D  0800               	movf	indf,w
   884  058E  120A  118A  21A8   	fcall	_SendByteSerially
              120A  118A         
   885                           	line	38
   886                           	
   887  0593                     l3122:	
   888  0593  3001               	movlw	(01h)
   889  0594  1283               	bcf	status, 5	;RP0=0, select bank0
   890  0595  1303               	bcf	status, 6	;RP1=0, select bank0
   891  0596  00DD               	movwf	(??_main+0)+0
   892  0597  085D               	movf	(??_main+0)+0,w
   893  0598  07A4               	addwf	(_i),f
   894                           	
   895  0599                     l3124:	
   896  0599  3010               	movlw	(010h)
   897  059A  0224               	subwf	(_i),w
   898  059B  1C03               	skipc
   899  059C  2D9E               	goto	u3201
   900  059D  2D9F               	goto	u3200
   901  059E                     u3201:
   902  059E  2D89               	goto	l3120
   903  059F                     u3200:
   904  059F  2DA0               	goto	l3126
   905                           	
   906  05A0                     l615:	
   907                           	line	43
   908                           	
   909  05A0                     l3126:	
   910                           ;main.c: 41: }
   911                           ;main.c: 43: Delay(500);
   912  05A0  30F4               	movlw	low(01F4h)
   913  05A1  00F0               	movwf	(?_Delay)
   914  05A2  3001               	movlw	high(01F4h)
   915  05A3  00F1               	movwf	((?_Delay))+1
   916  05A4  120A  118A  220B   	fcall	_Delay
              120A  118A         
   917                           	line	44
   918                           	
   919  05A9                     l3128:	
   920                           ;main.c: 44: j=0;
   921  05A9  1003               	clrc
   922  05AA  3000               	movlw	0
   923  05AB  1803               	btfsc	status,0
   924  05AC  3001               	movlw	1
   925  05AD  1283               	bcf	status, 5	;RP0=0, select bank0
   926  05AE  1303               	bcf	status, 6	;RP1=0, select bank0
   927  05AF  00A5               	movwf	(_j)
   928  05B0  2DB1               	goto	l3130
   929                           	line	46
   930                           ;main.c: 46: do
   931                           	
   932  05B1                     l616:	
   933                           	line	48
   934                           	
   935  05B1                     l3130:	
   936                           ;main.c: 47: {
   937                           ;main.c: 48: receivesp[j]=ReceiveByteSerially();
   938  05B1  120A  118A  219D   	fcall	_ReceiveByteSerially
              120A  118A         
   939  05B6  1283               	bcf	status, 5	;RP0=0, select bank0
   940  05B7  1303               	bcf	status, 6	;RP1=0, select bank0
   941  05B8  00DD               	movwf	(??_main+0)+0
   942  05B9  0825               	movf	(_j),w
   943  05BA  3E29               	addlw	_receivesp&0ffh
   944  05BB  0084               	movwf	fsr0
   945  05BC  085D               	movf	(??_main+0)+0,w
   946  05BD  1383               	bcf	status, 7	;select IRP bank0
   947  05BE  0080               	movwf	indf
   948                           	line	49
   949                           	
   950  05BF                     l3132:	
   951                           ;main.c: 49: j++;
   952  05BF  3001               	movlw	(01h)
   953  05C0  00DD               	movwf	(??_main+0)+0
   954  05C1  085D               	movf	(??_main+0)+0,w
   955  05C2  07A5               	addwf	(_j),f
   956                           	line	51
   957                           	
   958  05C3                     l3134:	
   959                           ;main.c: 50: }
   960                           ;main.c: 51: while(receivesp[j-1]!='.');
   961  05C3  0825               	movf	(_j),w
   962  05C4  3EFF               	addlw	0FFh
   963  05C5  3E29               	addlw	_receivesp&0ffh
   964  05C6  0084               	movwf	fsr0
   965  05C7  0800               	movf	indf,w
   966  05C8  3A2E               	xorlw	02Eh
   967  05C9  1D03               	skipz
   968  05CA  2DCC               	goto	u3211
   969  05CB  2DCD               	goto	u3210
   970  05CC                     u3211:
   971  05CC  2DB1               	goto	l3130
   972  05CD                     u3210:
   973  05CD  2DCE               	goto	l3136
   974                           	
   975  05CE                     l617:	
   976                           	line	53
   977                           	
   978  05CE                     l3136:	
   979                           ;main.c: 53: for(i=0;i<2;i++)
   980  05CE  1003               	clrc
   981  05CF  3000               	movlw	0
   982  05D0  1803               	btfsc	status,0
   983  05D1  3001               	movlw	1
   984  05D2  00A4               	movwf	(_i)
   985                           	
   986  05D3                     l3138:	
   987  05D3  3002               	movlw	(02h)
   988  05D4  0224               	subwf	(_i),w
   989  05D5  1C03               	skipc
   990  05D6  2DD8               	goto	u3221
   991  05D7  2DD9               	goto	u3220
   992  05D8                     u3221:
   993  05D8  2DDB               	goto	l3142
   994  05D9                     u3220:
   995  05D9  2DF2               	goto	l3148
   996                           	
   997  05DA                     l3140:	
   998  05DA  2DF2               	goto	l3148
   999                           	line	54
  1000                           	
  1001  05DB                     l618:	
  1002                           	line	55
  1003                           	
  1004  05DB                     l3142:	
  1005                           ;main.c: 54: {
  1006                           ;main.c: 55: SendByteSerially(receivesp[i]);
  1007  05DB  0824               	movf	(_i),w
  1008  05DC  3E29               	addlw	_receivesp&0ffh
  1009  05DD  0084               	movwf	fsr0
  1010  05DE  1383               	bcf	status, 7	;select IRP bank0
  1011  05DF  0800               	movf	indf,w
  1012  05E0  120A  118A  21A8   	fcall	_SendByteSerially
              120A  118A         
  1013                           	line	53
  1014                           	
  1015  05E5                     l3144:	
  1016  05E5  3001               	movlw	(01h)
  1017  05E6  1283               	bcf	status, 5	;RP0=0, select bank0
  1018  05E7  1303               	bcf	status, 6	;RP1=0, select bank0
  1019  05E8  00DD               	movwf	(??_main+0)+0
  1020  05E9  085D               	movf	(??_main+0)+0,w
  1021  05EA  07A4               	addwf	(_i),f
  1022                           	
  1023  05EB                     l3146:	
  1024  05EB  3002               	movlw	(02h)
  1025  05EC  0224               	subwf	(_i),w
  1026  05ED  1C03               	skipc
  1027  05EE  2DF0               	goto	u3231
  1028  05EF  2DF1               	goto	u3230
  1029  05F0                     u3231:
  1030  05F0  2DDB               	goto	l3142
  1031  05F1                     u3230:
  1032  05F1  2DF2               	goto	l3148
  1033                           	
  1034  05F2                     l619:	
  1035                           	line	58
  1036                           	
  1037  05F2                     l3148:	
  1038                           ;main.c: 56: }
  1039                           ;main.c: 58: SendByteSerially(0x0D);
  1040  05F2  300D               	movlw	(0Dh)
  1041  05F3  120A  118A  21A8   	fcall	_SendByteSerially
              120A  118A         
  1042                           	line	59
  1043                           ;main.c: 59: SendByteSerially(0x0A);
  1044  05F8  300A               	movlw	(0Ah)
  1045  05F9  120A  118A  21A8   	fcall	_SendByteSerially
              120A  118A         
  1046                           	line	61
  1047                           ;main.c: 61: sp =((receivesp[0]-48)*10)+(receivesp[1]-48);
  1048  05FE  300A               	movlw	(0Ah)
  1049  05FF  1283               	bcf	status, 5	;RP0=0, select bank0
  1050  0600  1303               	bcf	status, 6	;RP1=0, select bank0
  1051  0601  00DD               	movwf	(??_main+0)+0
  1052  0602  085D               	movf	(??_main+0)+0,w
  1053  0603  00F0               	movwf	(?___bmul)
  1054  0604  0829               	movf	(_receivesp),w
  1055  0605  3ED0               	addlw	-48
  1056  0606  120A  118A  21EE   	fcall	___bmul
              120A  118A         
  1057  060B  1283               	bcf	status, 5	;RP0=0, select bank0
  1058  060C  1303               	bcf	status, 6	;RP1=0, select bank0
  1059  060D  00DE               	movwf	(??_main+1)+0
  1060  060E  082A               	movf	0+(_receivesp)+01h,w
  1061  060F  075E               	addwf	0+(??_main+1)+0,w
  1062  0610  3ED0               	addlw	-48
  1063  0611  00DF               	movwf	(??_main+2)+0
  1064  0612  085F               	movf	(??_main+2)+0,w
  1065  0613  00A7               	movwf	(_sp)
  1066                           	line	63
  1067                           ;main.c: 63: while(1)
  1068                           	
  1069  0614                     l620:	
  1070                           	line	66
  1071                           ;main.c: 64: {
  1072                           ;main.c: 66: currentlevel();
  1073  0614  120A  118A  2301   	fcall	_currentlevel
              120A  118A         
  1074                           	line	67
  1075                           	
  1076  0619                     l3150:	
  1077                           ;main.c: 67: for(i=0;i<10;i++)
  1078  0619  1003               	clrc
  1079  061A  3000               	movlw	0
  1080  061B  1803               	btfsc	status,0
  1081  061C  3001               	movlw	1
  1082  061D  1283               	bcf	status, 5	;RP0=0, select bank0
  1083  061E  1303               	bcf	status, 6	;RP1=0, select bank0
  1084  061F  00A4               	movwf	(_i)
  1085                           	
  1086  0620                     l3152:	
  1087  0620  300A               	movlw	(0Ah)
  1088  0621  0224               	subwf	(_i),w
  1089  0622  1C03               	skipc
  1090  0623  2E25               	goto	u3241
  1091  0624  2E26               	goto	u3240
  1092  0625                     u3241:
  1093  0625  2E28               	goto	l3156
  1094  0626                     u3240:
  1095  0626  2E3F               	goto	l3162
  1096                           	
  1097  0627                     l3154:	
  1098  0627  2E3F               	goto	l3162
  1099                           	line	68
  1100                           	
  1101  0628                     l621:	
  1102                           	line	69
  1103                           	
  1104  0628                     l3156:	
  1105                           ;main.c: 68: {
  1106                           ;main.c: 69: SendByteSerially(AT2[i]);
  1107  0628  0824               	movf	(_i),w
  1108  0629  3E4C               	addlw	_AT2&0ffh
  1109  062A  0084               	movwf	fsr0
  1110  062B  1383               	bcf	status, 7	;select IRP bank0
  1111  062C  0800               	movf	indf,w
  1112  062D  120A  118A  21A8   	fcall	_SendByteSerially
              120A  118A         
  1113                           	line	67
  1114                           	
  1115  0632                     l3158:	
  1116  0632  3001               	movlw	(01h)
  1117  0633  1283               	bcf	status, 5	;RP0=0, select bank0
  1118  0634  1303               	bcf	status, 6	;RP1=0, select bank0
  1119  0635  00DD               	movwf	(??_main+0)+0
  1120  0636  085D               	movf	(??_main+0)+0,w
  1121  0637  07A4               	addwf	(_i),f
  1122                           	
  1123  0638                     l3160:	
  1124  0638  300A               	movlw	(0Ah)
  1125  0639  0224               	subwf	(_i),w
  1126  063A  1C03               	skipc
  1127  063B  2E3D               	goto	u3251
  1128  063C  2E3E               	goto	u3250
  1129  063D                     u3251:
  1130  063D  2E28               	goto	l3156
  1131  063E                     u3250:
  1132  063E  2E3F               	goto	l3162
  1133                           	
  1134  063F                     l622:	
  1135                           	line	72
  1136                           	
  1137  063F                     l3162:	
  1138                           ;main.c: 70: }
  1139                           ;main.c: 72: SeriallyDisplayByte(current);
  1140  063F  0821               	movf	(_current),w
  1141  0640  120A  118A  23EE   	fcall	_SeriallyDisplayByte
              120A  118A         
  1142                           	line	74
  1143                           ;main.c: 74: SendByteSerially(0x0D);
  1144  0645  300D               	movlw	(0Dh)
  1145  0646  120A  118A  21A8   	fcall	_SendByteSerially
              120A  118A         
  1146                           	line	75
  1147                           ;main.c: 75: SendByteSerially(0x0A);
  1148  064B  300A               	movlw	(0Ah)
  1149  064C  120A  118A  21A8   	fcall	_SendByteSerially
              120A  118A         
  1150                           	line	76
  1151                           	
  1152  0651                     l3164:	
  1153                           ;main.c: 76: if((current-sp)<0)
  1154  0651  1283               	bcf	status, 5	;RP0=0, select bank0
  1155  0652  1303               	bcf	status, 6	;RP1=0, select bank0
  1156  0653  0827               	movf	(_sp),w
  1157  0654  00DD               	movwf	(??_main+0)+0
  1158  0655  01DE               	clrf	(??_main+0)+0+1
  1159  0656  1BDD               	btfsc	(??_main+0)+0,7
  1160  0657  03DE               	decf	(??_main+0)+0+1,f
  1161  0658  09DD               	comf	(??_main+0)+0,f
  1162  0659  09DE               	comf	(??_main+0)+1,f
  1163  065A  0ADD               	incf	(??_main+0)+0,f
  1164  065B  1903               	skipnz
  1165  065C  0ADE               	incf	(??_main+0)+1,f
  1166  065D  0821               	movf	(_current),w
  1167  065E  00DF               	movwf	(??_main+2)+0
  1168  065F  01E0               	clrf	(??_main+2)+0+1
  1169  0660  1BDF               	btfsc	(??_main+2)+0,7
  1170  0661  03E0               	decf	(??_main+2)+0+1,f
  1171  0662  085D               	movf	0+(??_main+0)+0,w
  1172  0663  075F               	addwf	0+(??_main+2)+0,w
  1173  0664  0860               	movf	1+(??_main+2)+0,w
  1174  0665  1803               	skipnc
  1175  0666  0A60               	incf	1+(??_main+2)+0,w
  1176  0667  075E               	addwf	1+(??_main+0)+0,w
  1177  0668  00E1               	movwf	(??_main+4)+0
  1178  0669  1FE1               	btfss	(??_main+4)+0,7
  1179  066A  2E6C               	goto	u3261
  1180  066B  2E6D               	goto	u3260
  1181  066C                     u3261:
  1182  066C  2F03               	goto	l3216
  1183  066D                     u3260:
  1184                           	line	78
  1185                           	
  1186  066D                     l3166:	
  1187                           ;main.c: 77: {
  1188                           ;main.c: 78: error=sp-current;
  1189  066D  0321               	decf	(_current),w
  1190  066E  3AFF               	xorlw	0ffh
  1191  066F  0727               	addwf	(_sp),w
  1192  0670  00DD               	movwf	(??_main+0)+0
  1193  0671  085D               	movf	(??_main+0)+0,w
  1194  0672  00A2               	movwf	(_error)
  1195                           	line	79
  1196                           	
  1197  0673                     l3168:	
  1198                           ;main.c: 79: if((error>0)&&(error<=10))
  1199  0673  0822               	movf	(_error),w
  1200  0674  3A80               	xorlw	80h
  1201  0675  3E7F               	addlw	-((01h)^80h)
  1202  0676  1C03               	skipc
  1203  0677  2E79               	goto	u3271
  1204  0678  2E7A               	goto	u3270
  1205  0679                     u3271:
  1206  0679  2E84               	goto	l3174
  1207  067A                     u3270:
  1208                           	
  1209  067A                     l3170:	
  1210  067A  0822               	movf	(_error),w
  1211  067B  3A80               	xorlw	80h
  1212  067C  3E75               	addlw	-((0Bh)^80h)
  1213  067D  1803               	skipnc
  1214  067E  2E80               	goto	u3281
  1215  067F  2E81               	goto	u3280
  1216  0680                     u3281:
  1217  0680  2E84               	goto	l3174
  1218  0681                     u3280:
  1219                           	line	80
  1220                           	
  1221  0681                     l3172:	
  1222                           ;main.c: 80: {PORTD=0x01;}
  1223  0681  3001               	movlw	(01h)
  1224  0682  0088               	movwf	(8)	;volatile
  1225  0683  2E14               	goto	l620
  1226                           	line	81
  1227                           	
  1228  0684                     l624:	
  1229                           	
  1230  0684                     l3174:	
  1231                           ;main.c: 81: else if((error>10)&&(error<=20))
  1232  0684  0822               	movf	(_error),w
  1233  0685  3A80               	xorlw	80h
  1234  0686  3E75               	addlw	-((0Bh)^80h)
  1235  0687  1C03               	skipc
  1236  0688  2E8A               	goto	u3291
  1237  0689  2E8B               	goto	u3290
  1238  068A                     u3291:
  1239  068A  2E95               	goto	l3180
  1240  068B                     u3290:
  1241                           	
  1242  068B                     l3176:	
  1243  068B  0822               	movf	(_error),w
  1244  068C  3A80               	xorlw	80h
  1245  068D  3E6B               	addlw	-((015h)^80h)
  1246  068E  1803               	skipnc
  1247  068F  2E91               	goto	u3301
  1248  0690  2E92               	goto	u3300
  1249  0691                     u3301:
  1250  0691  2E95               	goto	l3180
  1251  0692                     u3300:
  1252                           	line	82
  1253                           	
  1254  0692                     l3178:	
  1255                           ;main.c: 82: {PORTD=0x03;}
  1256  0692  3003               	movlw	(03h)
  1257  0693  0088               	movwf	(8)	;volatile
  1258  0694  2E14               	goto	l620
  1259                           	line	83
  1260                           	
  1261  0695                     l626:	
  1262                           	
  1263  0695                     l3180:	
  1264                           ;main.c: 83: else if((error>20)&&(error<=30))
  1265  0695  0822               	movf	(_error),w
  1266  0696  3A80               	xorlw	80h
  1267  0697  3E6B               	addlw	-((015h)^80h)
  1268  0698  1C03               	skipc
  1269  0699  2E9B               	goto	u3311
  1270  069A  2E9C               	goto	u3310
  1271  069B                     u3311:
  1272  069B  2EA6               	goto	l3186
  1273  069C                     u3310:
  1274                           	
  1275  069C                     l3182:	
  1276  069C  0822               	movf	(_error),w
  1277  069D  3A80               	xorlw	80h
  1278  069E  3E61               	addlw	-((01Fh)^80h)
  1279  069F  1803               	skipnc
  1280  06A0  2EA2               	goto	u3321
  1281  06A1  2EA3               	goto	u3320
  1282  06A2                     u3321:
  1283  06A2  2EA6               	goto	l3186
  1284  06A3                     u3320:
  1285                           	line	84
  1286                           	
  1287  06A3                     l3184:	
  1288                           ;main.c: 84: {PORTD=0x07;}
  1289  06A3  3007               	movlw	(07h)
  1290  06A4  0088               	movwf	(8)	;volatile
  1291  06A5  2E14               	goto	l620
  1292                           	line	85
  1293                           	
  1294  06A6                     l628:	
  1295                           	
  1296  06A6                     l3186:	
  1297                           ;main.c: 85: else if((error>30)&&(error<=40))
  1298  06A6  0822               	movf	(_error),w
  1299  06A7  3A80               	xorlw	80h
  1300  06A8  3E61               	addlw	-((01Fh)^80h)
  1301  06A9  1C03               	skipc
  1302  06AA  2EAC               	goto	u3331
  1303  06AB  2EAD               	goto	u3330
  1304  06AC                     u3331:
  1305  06AC  2EB7               	goto	l3192
  1306  06AD                     u3330:
  1307                           	
  1308  06AD                     l3188:	
  1309  06AD  0822               	movf	(_error),w
  1310  06AE  3A80               	xorlw	80h
  1311  06AF  3E57               	addlw	-((029h)^80h)
  1312  06B0  1803               	skipnc
  1313  06B1  2EB3               	goto	u3341
  1314  06B2  2EB4               	goto	u3340
  1315  06B3                     u3341:
  1316  06B3  2EB7               	goto	l3192
  1317  06B4                     u3340:
  1318                           	line	86
  1319                           	
  1320  06B4                     l3190:	
  1321                           ;main.c: 86: {PORTD=0x0f;}
  1322  06B4  300F               	movlw	(0Fh)
  1323  06B5  0088               	movwf	(8)	;volatile
  1324  06B6  2E14               	goto	l620
  1325                           	line	87
  1326                           	
  1327  06B7                     l630:	
  1328                           	
  1329  06B7                     l3192:	
  1330                           ;main.c: 87: else if((error>40)&&(error<=50))
  1331  06B7  0822               	movf	(_error),w
  1332  06B8  3A80               	xorlw	80h
  1333  06B9  3E57               	addlw	-((029h)^80h)
  1334  06BA  1C03               	skipc
  1335  06BB  2EBD               	goto	u3351
  1336  06BC  2EBE               	goto	u3350
  1337  06BD                     u3351:
  1338  06BD  2EC8               	goto	l3198
  1339  06BE                     u3350:
  1340                           	
  1341  06BE                     l3194:	
  1342  06BE  0822               	movf	(_error),w
  1343  06BF  3A80               	xorlw	80h
  1344  06C0  3E4D               	addlw	-((033h)^80h)
  1345  06C1  1803               	skipnc
  1346  06C2  2EC4               	goto	u3361
  1347  06C3  2EC5               	goto	u3360
  1348  06C4                     u3361:
  1349  06C4  2EC8               	goto	l3198
  1350  06C5                     u3360:
  1351                           	line	88
  1352                           	
  1353  06C5                     l3196:	
  1354                           ;main.c: 88: {PORTD=0x1f;}
  1355  06C5  301F               	movlw	(01Fh)
  1356  06C6  0088               	movwf	(8)	;volatile
  1357  06C7  2E14               	goto	l620
  1358                           	line	89
  1359                           	
  1360  06C8                     l632:	
  1361                           	
  1362  06C8                     l3198:	
  1363                           ;main.c: 89: else if((error>50)&&(error<=60))
  1364  06C8  0822               	movf	(_error),w
  1365  06C9  3A80               	xorlw	80h
  1366  06CA  3E4D               	addlw	-((033h)^80h)
  1367  06CB  1C03               	skipc
  1368  06CC  2ECE               	goto	u3371
  1369  06CD  2ECF               	goto	u3370
  1370  06CE                     u3371:
  1371  06CE  2ED9               	goto	l3204
  1372  06CF                     u3370:
  1373                           	
  1374  06CF                     l3200:	
  1375  06CF  0822               	movf	(_error),w
  1376  06D0  3A80               	xorlw	80h
  1377  06D1  3E43               	addlw	-((03Dh)^80h)
  1378  06D2  1803               	skipnc
  1379  06D3  2ED5               	goto	u3381
  1380  06D4  2ED6               	goto	u3380
  1381  06D5                     u3381:
  1382  06D5  2ED9               	goto	l3204
  1383  06D6                     u3380:
  1384                           	line	90
  1385                           	
  1386  06D6                     l3202:	
  1387                           ;main.c: 90: {PORTD=0x3f;}
  1388  06D6  303F               	movlw	(03Fh)
  1389  06D7  0088               	movwf	(8)	;volatile
  1390  06D8  2E14               	goto	l620
  1391                           	line	91
  1392                           	
  1393  06D9                     l634:	
  1394                           	
  1395  06D9                     l3204:	
  1396                           ;main.c: 91: else if((error>60)&&(error<=70))
  1397  06D9  0822               	movf	(_error),w
  1398  06DA  3A80               	xorlw	80h
  1399  06DB  3E43               	addlw	-((03Dh)^80h)
  1400  06DC  1C03               	skipc
  1401  06DD  2EDF               	goto	u3391
  1402  06DE  2EE0               	goto	u3390
  1403  06DF                     u3391:
  1404  06DF  2EEA               	goto	l3210
  1405  06E0                     u3390:
  1406                           	
  1407  06E0                     l3206:	
  1408  06E0  0822               	movf	(_error),w
  1409  06E1  3A80               	xorlw	80h
  1410  06E2  3E39               	addlw	-((047h)^80h)
  1411  06E3  1803               	skipnc
  1412  06E4  2EE6               	goto	u3401
  1413  06E5  2EE7               	goto	u3400
  1414  06E6                     u3401:
  1415  06E6  2EEA               	goto	l3210
  1416  06E7                     u3400:
  1417                           	line	92
  1418                           	
  1419  06E7                     l3208:	
  1420                           ;main.c: 92: {PORTD=0x7f;}
  1421  06E7  307F               	movlw	(07Fh)
  1422  06E8  0088               	movwf	(8)	;volatile
  1423  06E9  2E14               	goto	l620
  1424                           	line	93
  1425                           	
  1426  06EA                     l636:	
  1427                           	
  1428  06EA                     l3210:	
  1429                           ;main.c: 93: else if((error>70)&&(error<=80))
  1430  06EA  0822               	movf	(_error),w
  1431  06EB  3A80               	xorlw	80h
  1432  06EC  3E39               	addlw	-((047h)^80h)
  1433  06ED  1C03               	skipc
  1434  06EE  2EF0               	goto	u3411
  1435  06EF  2EF1               	goto	u3410
  1436  06F0                     u3411:
  1437  06F0  2E14               	goto	l620
  1438  06F1                     u3410:
  1439                           	
  1440  06F1                     l3212:	
  1441  06F1  0822               	movf	(_error),w
  1442  06F2  3A80               	xorlw	80h
  1443  06F3  3E2F               	addlw	-((051h)^80h)
  1444  06F4  1803               	skipnc
  1445  06F5  2EF7               	goto	u3421
  1446  06F6  2EF8               	goto	u3420
  1447  06F7                     u3421:
  1448  06F7  2E14               	goto	l620
  1449  06F8                     u3420:
  1450                           	line	94
  1451                           	
  1452  06F8                     l3214:	
  1453                           ;main.c: 94: {PORTD=0xff;}
  1454  06F8  30FF               	movlw	(0FFh)
  1455  06F9  0088               	movwf	(8)	;volatile
  1456  06FA  2E14               	goto	l620
  1457                           	
  1458  06FB                     l638:	
  1459  06FB  2E14               	goto	l620
  1460                           	line	97
  1461                           	
  1462  06FC                     l637:	
  1463  06FC  2E14               	goto	l620
  1464                           	
  1465  06FD                     l635:	
  1466  06FD  2E14               	goto	l620
  1467                           	
  1468  06FE                     l633:	
  1469  06FE  2E14               	goto	l620
  1470                           	
  1471  06FF                     l631:	
  1472  06FF  2E14               	goto	l620
  1473                           	
  1474  0700                     l629:	
  1475  0700  2E14               	goto	l620
  1476                           	
  1477  0701                     l627:	
  1478  0701  2E14               	goto	l620
  1479                           	
  1480  0702                     l625:	
  1481                           ;main.c: 97: }
  1482  0702  2E14               	goto	l620
  1483                           	line	98
  1484                           	
  1485  0703                     l623:	
  1486                           	
  1487  0703                     l3216:	
  1488                           ;main.c: 98: else if((current-sp)>0)
  1489  0703  0827               	movf	(_sp),w
  1490  0704  00DD               	movwf	(??_main+0)+0
  1491  0705  01DE               	clrf	(??_main+0)+0+1
  1492  0706  1BDD               	btfsc	(??_main+0)+0,7
  1493  0707  03DE               	decf	(??_main+0)+0+1,f
  1494  0708  09DD               	comf	(??_main+0)+0,f
  1495  0709  09DE               	comf	(??_main+0)+1,f
  1496  070A  0ADD               	incf	(??_main+0)+0,f
  1497  070B  1903               	skipnz
  1498  070C  0ADE               	incf	(??_main+0)+1,f
  1499  070D  0821               	movf	(_current),w
  1500  070E  00DF               	movwf	(??_main+2)+0
  1501  070F  01E0               	clrf	(??_main+2)+0+1
  1502  0710  1BDF               	btfsc	(??_main+2)+0,7
  1503  0711  03E0               	decf	(??_main+2)+0+1,f
  1504  0712  085D               	movf	0+(??_main+0)+0,w
  1505  0713  075F               	addwf	0+(??_main+2)+0,w
  1506  0714  00E1               	movwf	(??_main+4)+0
  1507  0715  085E               	movf	1+(??_main+0)+0,w
  1508  0716  1803               	skipnc
  1509  0717  0A5E               	incf	1+(??_main+0)+0,w
  1510  0718  0760               	addwf	1+(??_main+2)+0,w
  1511  0719  00E2               	movwf	1+(??_main+4)+0
  1512  071A  0862               	movf	1+(??_main+4)+0,w
  1513  071B  3A80               	xorlw	80h
  1514  071C  00FF               	movwf	btemp+1
  1515  071D  3080               	movlw	(high(01h))^80h
  1516  071E  027F               	subwf	btemp+1,w
  1517  071F  1D03               	skipz
  1518  0720  2F23               	goto	u3435
  1519  0721  3001               	movlw	low(01h)
  1520  0722  0261               	subwf	0+(??_main+4)+0,w
  1521  0723                     u3435:
  1522                           
  1523  0723  1C03               	skipc
  1524  0724  2F26               	goto	u3431
  1525  0725  2F27               	goto	u3430
  1526  0726                     u3431:
  1527  0726  2FBF               	goto	l3268
  1528  0727                     u3430:
  1529                           	line	100
  1530                           	
  1531  0727                     l3218:	
  1532                           ;main.c: 99: {
  1533                           ;main.c: 100: error=current-sp;
  1534  0727  1283               	bcf	status, 5	;RP0=0, select bank0
  1535  0728  1303               	bcf	status, 6	;RP1=0, select bank0
  1536  0729  0327               	decf	(_sp),w
  1537  072A  3AFF               	xorlw	0ffh
  1538  072B  0721               	addwf	(_current),w
  1539  072C  00DD               	movwf	(??_main+0)+0
  1540  072D  085D               	movf	(??_main+0)+0,w
  1541  072E  00A2               	movwf	(_error)
  1542                           	line	101
  1543                           	
  1544  072F                     l3220:	
  1545                           ;main.c: 101: if((error>0)&&(error<=10))
  1546  072F  0822               	movf	(_error),w
  1547  0730  3A80               	xorlw	80h
  1548  0731  3E7F               	addlw	-((01h)^80h)
  1549  0732  1C03               	skipc
  1550  0733  2F35               	goto	u3441
  1551  0734  2F36               	goto	u3440
  1552  0735                     u3441:
  1553  0735  2F40               	goto	l3226
  1554  0736                     u3440:
  1555                           	
  1556  0736                     l3222:	
  1557  0736  0822               	movf	(_error),w
  1558  0737  3A80               	xorlw	80h
  1559  0738  3E75               	addlw	-((0Bh)^80h)
  1560  0739  1803               	skipnc
  1561  073A  2F3C               	goto	u3451
  1562  073B  2F3D               	goto	u3450
  1563  073C                     u3451:
  1564  073C  2F40               	goto	l3226
  1565  073D                     u3450:
  1566                           	line	102
  1567                           	
  1568  073D                     l3224:	
  1569                           ;main.c: 102: {PORTD=0x01;}
  1570  073D  3001               	movlw	(01h)
  1571  073E  0088               	movwf	(8)	;volatile
  1572  073F  2E14               	goto	l620
  1573                           	line	103
  1574                           	
  1575  0740                     l641:	
  1576                           	
  1577  0740                     l3226:	
  1578                           ;main.c: 103: else if((error>10)&&(error<=20))
  1579  0740  0822               	movf	(_error),w
  1580  0741  3A80               	xorlw	80h
  1581  0742  3E75               	addlw	-((0Bh)^80h)
  1582  0743  1C03               	skipc
  1583  0744  2F46               	goto	u3461
  1584  0745  2F47               	goto	u3460
  1585  0746                     u3461:
  1586  0746  2F51               	goto	l3232
  1587  0747                     u3460:
  1588                           	
  1589  0747                     l3228:	
  1590  0747  0822               	movf	(_error),w
  1591  0748  3A80               	xorlw	80h
  1592  0749  3E6B               	addlw	-((015h)^80h)
  1593  074A  1803               	skipnc
  1594  074B  2F4D               	goto	u3471
  1595  074C  2F4E               	goto	u3470
  1596  074D                     u3471:
  1597  074D  2F51               	goto	l3232
  1598  074E                     u3470:
  1599                           	line	104
  1600                           	
  1601  074E                     l3230:	
  1602                           ;main.c: 104: {PORTD=0x03;}
  1603  074E  3003               	movlw	(03h)
  1604  074F  0088               	movwf	(8)	;volatile
  1605  0750  2E14               	goto	l620
  1606                           	line	105
  1607                           	
  1608  0751                     l643:	
  1609                           	
  1610  0751                     l3232:	
  1611                           ;main.c: 105: else if((error>20)&&(error<=30))
  1612  0751  0822               	movf	(_error),w
  1613  0752  3A80               	xorlw	80h
  1614  0753  3E6B               	addlw	-((015h)^80h)
  1615  0754  1C03               	skipc
  1616  0755  2F57               	goto	u3481
  1617  0756  2F58               	goto	u3480
  1618  0757                     u3481:
  1619  0757  2F62               	goto	l3238
  1620  0758                     u3480:
  1621                           	
  1622  0758                     l3234:	
  1623  0758  0822               	movf	(_error),w
  1624  0759  3A80               	xorlw	80h
  1625  075A  3E61               	addlw	-((01Fh)^80h)
  1626  075B  1803               	skipnc
  1627  075C  2F5E               	goto	u3491
  1628  075D  2F5F               	goto	u3490
  1629  075E                     u3491:
  1630  075E  2F62               	goto	l3238
  1631  075F                     u3490:
  1632                           	line	106
  1633                           	
  1634  075F                     l3236:	
  1635                           ;main.c: 106: {PORTD=0x07;}
  1636  075F  3007               	movlw	(07h)
  1637  0760  0088               	movwf	(8)	;volatile
  1638  0761  2E14               	goto	l620
  1639                           	line	107
  1640                           	
  1641  0762                     l645:	
  1642                           	
  1643  0762                     l3238:	
  1644                           ;main.c: 107: else if((error>30)&&(error<=40))
  1645  0762  0822               	movf	(_error),w
  1646  0763  3A80               	xorlw	80h
  1647  0764  3E61               	addlw	-((01Fh)^80h)
  1648  0765  1C03               	skipc
  1649  0766  2F68               	goto	u3501
  1650  0767  2F69               	goto	u3500
  1651  0768                     u3501:
  1652  0768  2F73               	goto	l3244
  1653  0769                     u3500:
  1654                           	
  1655  0769                     l3240:	
  1656  0769  0822               	movf	(_error),w
  1657  076A  3A80               	xorlw	80h
  1658  076B  3E57               	addlw	-((029h)^80h)
  1659  076C  1803               	skipnc
  1660  076D  2F6F               	goto	u3511
  1661  076E  2F70               	goto	u3510
  1662  076F                     u3511:
  1663  076F  2F73               	goto	l3244
  1664  0770                     u3510:
  1665                           	line	108
  1666                           	
  1667  0770                     l3242:	
  1668                           ;main.c: 108: {PORTD=0x0f;}
  1669  0770  300F               	movlw	(0Fh)
  1670  0771  0088               	movwf	(8)	;volatile
  1671  0772  2E14               	goto	l620
  1672                           	line	109
  1673                           	
  1674  0773                     l647:	
  1675                           	
  1676  0773                     l3244:	
  1677                           ;main.c: 109: else if((error>40)&&(error<=50))
  1678  0773  0822               	movf	(_error),w
  1679  0774  3A80               	xorlw	80h
  1680  0775  3E57               	addlw	-((029h)^80h)
  1681  0776  1C03               	skipc
  1682  0777  2F79               	goto	u3521
  1683  0778  2F7A               	goto	u3520
  1684  0779                     u3521:
  1685  0779  2F84               	goto	l3250
  1686  077A                     u3520:
  1687                           	
  1688  077A                     l3246:	
  1689  077A  0822               	movf	(_error),w
  1690  077B  3A80               	xorlw	80h
  1691  077C  3E4D               	addlw	-((033h)^80h)
  1692  077D  1803               	skipnc
  1693  077E  2F80               	goto	u3531
  1694  077F  2F81               	goto	u3530
  1695  0780                     u3531:
  1696  0780  2F84               	goto	l3250
  1697  0781                     u3530:
  1698                           	line	110
  1699                           	
  1700  0781                     l3248:	
  1701                           ;main.c: 110: {PORTD=0x1f;}
  1702  0781  301F               	movlw	(01Fh)
  1703  0782  0088               	movwf	(8)	;volatile
  1704  0783  2E14               	goto	l620
  1705                           	line	111
  1706                           	
  1707  0784                     l649:	
  1708                           	
  1709  0784                     l3250:	
  1710                           ;main.c: 111: else if((error>50)&&(error<=60))
  1711  0784  0822               	movf	(_error),w
  1712  0785  3A80               	xorlw	80h
  1713  0786  3E4D               	addlw	-((033h)^80h)
  1714  0787  1C03               	skipc
  1715  0788  2F8A               	goto	u3541
  1716  0789  2F8B               	goto	u3540
  1717  078A                     u3541:
  1718  078A  2F95               	goto	l3256
  1719  078B                     u3540:
  1720                           	
  1721  078B                     l3252:	
  1722  078B  0822               	movf	(_error),w
  1723  078C  3A80               	xorlw	80h
  1724  078D  3E43               	addlw	-((03Dh)^80h)
  1725  078E  1803               	skipnc
  1726  078F  2F91               	goto	u3551
  1727  0790  2F92               	goto	u3550
  1728  0791                     u3551:
  1729  0791  2F95               	goto	l3256
  1730  0792                     u3550:
  1731                           	line	112
  1732                           	
  1733  0792                     l3254:	
  1734                           ;main.c: 112: {PORTD=0x3f;}
  1735  0792  303F               	movlw	(03Fh)
  1736  0793  0088               	movwf	(8)	;volatile
  1737  0794  2E14               	goto	l620
  1738                           	line	113
  1739                           	
  1740  0795                     l651:	
  1741                           	
  1742  0795                     l3256:	
  1743                           ;main.c: 113: else if((error>60)&&(error<=70))
  1744  0795  0822               	movf	(_error),w
  1745  0796  3A80               	xorlw	80h
  1746  0797  3E43               	addlw	-((03Dh)^80h)
  1747  0798  1C03               	skipc
  1748  0799  2F9B               	goto	u3561
  1749  079A  2F9C               	goto	u3560
  1750  079B                     u3561:
  1751  079B  2FA6               	goto	l3262
  1752  079C                     u3560:
  1753                           	
  1754  079C                     l3258:	
  1755  079C  0822               	movf	(_error),w
  1756  079D  3A80               	xorlw	80h
  1757  079E  3E39               	addlw	-((047h)^80h)
  1758  079F  1803               	skipnc
  1759  07A0  2FA2               	goto	u3571
  1760  07A1  2FA3               	goto	u3570
  1761  07A2                     u3571:
  1762  07A2  2FA6               	goto	l3262
  1763  07A3                     u3570:
  1764                           	line	114
  1765                           	
  1766  07A3                     l3260:	
  1767                           ;main.c: 114: {PORTD=0x7f;}
  1768  07A3  307F               	movlw	(07Fh)
  1769  07A4  0088               	movwf	(8)	;volatile
  1770  07A5  2E14               	goto	l620
  1771                           	line	115
  1772                           	
  1773  07A6                     l653:	
  1774                           	
  1775  07A6                     l3262:	
  1776                           ;main.c: 115: else if((error>70)&&(error<=80))
  1777  07A6  0822               	movf	(_error),w
  1778  07A7  3A80               	xorlw	80h
  1779  07A8  3E39               	addlw	-((047h)^80h)
  1780  07A9  1C03               	skipc
  1781  07AA  2FAC               	goto	u3581
  1782  07AB  2FAD               	goto	u3580
  1783  07AC                     u3581:
  1784  07AC  2E14               	goto	l620
  1785  07AD                     u3580:
  1786                           	
  1787  07AD                     l3264:	
  1788  07AD  0822               	movf	(_error),w
  1789  07AE  3A80               	xorlw	80h
  1790  07AF  3E2F               	addlw	-((051h)^80h)
  1791  07B0  1803               	skipnc
  1792  07B1  2FB3               	goto	u3591
  1793  07B2  2FB4               	goto	u3590
  1794  07B3                     u3591:
  1795  07B3  2E14               	goto	l620
  1796  07B4                     u3590:
  1797                           	line	116
  1798                           	
  1799  07B4                     l3266:	
  1800                           ;main.c: 116: {PORTD=0xff;}
  1801  07B4  30FF               	movlw	(0FFh)
  1802  07B5  0088               	movwf	(8)	;volatile
  1803  07B6  2E14               	goto	l620
  1804                           	
  1805  07B7                     l655:	
  1806  07B7  2E14               	goto	l620
  1807                           	line	118
  1808                           	
  1809  07B8                     l654:	
  1810  07B8  2E14               	goto	l620
  1811                           	
  1812  07B9                     l652:	
  1813  07B9  2E14               	goto	l620
  1814                           	
  1815  07BA                     l650:	
  1816  07BA  2E14               	goto	l620
  1817                           	
  1818  07BB                     l648:	
  1819  07BB  2E14               	goto	l620
  1820                           	
  1821  07BC                     l646:	
  1822  07BC  2E14               	goto	l620
  1823                           	
  1824  07BD                     l644:	
  1825  07BD  2E14               	goto	l620
  1826                           	
  1827  07BE                     l642:	
  1828                           ;main.c: 118: }
  1829  07BE  2E14               	goto	l620
  1830                           	line	120
  1831                           	
  1832  07BF                     l640:	
  1833                           	
  1834  07BF                     l3268:	
  1835                           ;main.c: 120: else if(current==sp)
  1836  07BF  1283               	bcf	status, 5	;RP0=0, select bank0
  1837  07C0  1303               	bcf	status, 6	;RP1=0, select bank0
  1838  07C1  0821               	movf	(_current),w
  1839  07C2  0627               	xorwf	(_sp),w
  1840  07C3  1D03               	skipz
  1841  07C4  2FC6               	goto	u3601
  1842  07C5  2FC7               	goto	u3600
  1843  07C6                     u3601:
  1844  07C6  2E14               	goto	l620
  1845  07C7                     u3600:
  1846                           	line	122
  1847                           	
  1848  07C7                     l3270:	
  1849                           ;main.c: 121: {
  1850                           ;main.c: 122: PORTD=0x00;
  1851  07C7  0188               	clrf	(8)	;volatile
  1852                           	line	123
  1853                           	
  1854  07C8                     l3272:	
  1855                           ;main.c: 123: for(i=0;i<17;i++)
  1856  07C8  1003               	clrc
  1857  07C9  3000               	movlw	0
  1858  07CA  1803               	btfsc	status,0
  1859  07CB  3001               	movlw	1
  1860  07CC  00A4               	movwf	(_i)
  1861                           	
  1862  07CD                     l3274:	
  1863  07CD  3011               	movlw	(011h)
  1864  07CE  0224               	subwf	(_i),w
  1865  07CF  1C03               	skipc
  1866  07D0  2FD2               	goto	u3611
  1867  07D1  2FD3               	goto	u3610
  1868  07D2                     u3611:
  1869  07D2  2FD5               	goto	l3278
  1870  07D3                     u3610:
  1871  07D3  2FEC               	goto	l3284
  1872                           	
  1873  07D4                     l3276:	
  1874  07D4  2FEC               	goto	l3284
  1875                           	line	124
  1876                           	
  1877  07D5                     l658:	
  1878                           	line	125
  1879                           	
  1880  07D5                     l3278:	
  1881                           ;main.c: 124: {
  1882                           ;main.c: 125: SendByteSerially(AT3[i]);
  1883  07D5  0824               	movf	(_i),w
  1884  07D6  3ED2               	addlw	_AT3&0ffh
  1885  07D7  0084               	movwf	fsr0
  1886  07D8  1383               	bcf	status, 7	;select IRP bank1
  1887  07D9  0800               	movf	indf,w
  1888  07DA  120A  118A  21A8   	fcall	_SendByteSerially
              120A  118A         
  1889                           	line	123
  1890                           	
  1891  07DF                     l3280:	
  1892  07DF  3001               	movlw	(01h)
  1893  07E0  1283               	bcf	status, 5	;RP0=0, select bank0
  1894  07E1  1303               	bcf	status, 6	;RP1=0, select bank0
  1895  07E2  00DD               	movwf	(??_main+0)+0
  1896  07E3  085D               	movf	(??_main+0)+0,w
  1897  07E4  07A4               	addwf	(_i),f
  1898                           	
  1899  07E5                     l3282:	
  1900  07E5  3011               	movlw	(011h)
  1901  07E6  0224               	subwf	(_i),w
  1902  07E7  1C03               	skipc
  1903  07E8  2FEA               	goto	u3621
  1904  07E9  2FEB               	goto	u3620
  1905  07EA                     u3621:
  1906  07EA  2FD5               	goto	l3278
  1907  07EB                     u3620:
  1908  07EB  2FEC               	goto	l3284
  1909                           	
  1910  07EC                     l659:	
  1911                           	line	128
  1912                           	
  1913  07EC                     l3284:	
  1914                           ;main.c: 126: }
  1915                           ;main.c: 128: SendByteSerially(0x0D);
  1916  07EC  300D               	movlw	(0Dh)
  1917  07ED  120A  118A  21A8   	fcall	_SendByteSerially
              120A  118A         
  1918                           	line	129
  1919                           ;main.c: 129: SendByteSerially(0x0A);
  1920  07F2  300A               	movlw	(0Ah)
  1921  07F3  120A  118A  21A8   	fcall	_SendByteSerially
              120A  118A         
  1922                           	line	130
  1923                           ;main.c: 130: break;
  1924  07F8  2FFD               	goto	l662
  1925                           	line	131
  1926                           	
  1927  07F9                     l657:	
  1928  07F9  2E14               	goto	l620
  1929                           	line	132
  1930                           	
  1931  07FA                     l656:	
  1932  07FA  2E14               	goto	l620
  1933                           	
  1934  07FB                     l639:	
  1935  07FB  2E14               	goto	l620
  1936                           	
  1937  07FC                     l661:	
  1938                           	line	63
  1939  07FC  2E14               	goto	l620
  1940                           	
  1941  07FD                     l660:	
  1942                           	line	133
  1943                           	
  1944  07FD                     l662:	
  1945                           	global	start
  1946  07FD  120A  118A  2800   	ljmp	start
  1947                           	opt stack 0
  1948                           GLOBAL	__end_of_main
  1949  0800                     	__end_of_main:
  1950 ;; =============== function _main ends ============
  1951                           
  1952                           	signat	_main,88
  1953                           	global	_SeriallyDisplayByte
  1954                           psect	text250,local,class=CODE,delta=2
  1955                           global __ptext250
  1956  03EE                     __ptext250:
  1957                           
  1958 ;; *************** function _SeriallyDisplayByte *****************
  1959 ;; Defined at:
  1960 ;;		line 31 in file "C:\Users\hardik - admin\Desktop\desktop\royproj_level_pc\serial.c"
  1961 ;; Parameters:    Size  Location     Type
  1962 ;;  Value           1    wreg     unsigned char 
  1963 ;; Auto vars:     Size  Location     Type
  1964 ;;  Value           1    4[BANK0 ] unsigned char 
  1965 ;; Return value:  Size  Location     Type
  1966 ;;		None               void
  1967 ;; Registers used:
  1968 ;;		wreg, status,2, status,0, pclath, cstack
  1969 ;; Tracked objects:
  1970 ;;		On entry : 0/0
  1971 ;;		On exit  : 0/0
  1972 ;;		Unchanged: 0/0
  1973 ;; Data sizes:     COMMON   BANK0   BANK1   BANK3   BANK2
  1974 ;;      Params:         0       0       0       0       0
  1975 ;;      Locals:         0       1       0       0       0
  1976 ;;      Temps:          2       0       0       0       0
  1977 ;;      Totals:         2       1       0       0       0
  1978 ;;Total ram usage:        3 bytes
  1979 ;; Hardware stack levels used:    1
  1980 ;; Hardware stack levels required when called:    1
  1981 ;; This function calls:
  1982 ;;		___awdiv
  1983 ;;		_SendByteSerially
  1984 ;;		___awmod
  1985 ;;		_Delay
  1986 ;; This function is called by:
  1987 ;;		_main
  1988 ;; This function uses a non-reentrant model
  1989 ;;
  1990                           psect	text250
  1991                           	file	"C:\Users\hardik - admin\Desktop\desktop\royproj_level_pc\serial.c"
  1992                           	line	31
  1993                           	global	__size_of_SeriallyDisplayByte
  1994  0106                     	__size_of_SeriallyDisplayByte	equ	__end_of_SeriallyDisplayByte-_SeriallyDisplayByte
  1995                           	
  1996  03EE                     _SeriallyDisplayByte:	
  1997                           	opt	stack 6
  1998                           ; Regs used in _SeriallyDisplayByte: [wreg+status,2+status,0+pclath+cstack]
  1999                           ;SeriallyDisplayByte@Value stored from wreg
  2000                           	line	33
  2001  03EE  1283               	bcf	status, 5	;RP0=0, select bank0
  2002  03EF  1303               	bcf	status, 6	;RP1=0, select bank0
  2003  03F0  00DC               	movwf	(SeriallyDisplayByte@Value)
  2004                           	
  2005  03F1                     l3056:	
  2006                           ;serial.c: 32: {
  2007                           ;serial.c: 33: if(( Value / 100 ) == 0)
  2008  03F1  3064               	movlw	low(064h)
  2009  03F2  00F7               	movwf	(?___awdiv)
  2010  03F3  3000               	movlw	high(064h)
  2011  03F4  00F8               	movwf	((?___awdiv))+1
  2012  03F5  085C               	movf	(SeriallyDisplayByte@Value),w
  2013  03F6  00FC               	movwf	(??_SeriallyDisplayByte+0)+0
  2014  03F7  01FD               	clrf	(??_SeriallyDisplayByte+0)+0+1
  2015  03F8  087C               	movf	0+(??_SeriallyDisplayByte+0)+0,w
  2016  03F9  00F9               	movwf	0+(?___awdiv)+02h
  2017  03FA  087D               	movf	1+(??_SeriallyDisplayByte+0)+0,w
  2018  03FB  00FA               	movwf	1+(?___awdiv)+02h
  2019  03FC  120A  118A  2373   	fcall	___awdiv
              120A  118A         
  2020  0401  0878               	movf	((1+(?___awdiv))),w
  2021  0402  0477               	iorwf	((0+(?___awdiv))),w
  2022  0403  1D03               	skipz
  2023  0404  2C06               	goto	u3121
  2024  0405  2C07               	goto	u3120
  2025  0406                     u3121:
  2026  0406  2C0E               	goto	l3060
  2027  0407                     u3120:
  2028                           	line	34
  2029                           	
  2030  0407                     l3058:	
  2031                           ;serial.c: 34: SendByteSerially(0x20);
  2032  0407  3020               	movlw	(020h)
  2033  0408  120A  118A  21A8   	fcall	_SendByteSerially
              120A  118A         
  2034  040D  2C27               	goto	l1264
  2035                           	line	35
  2036                           	
  2037  040E                     l1263:	
  2038                           	line	36
  2039                           	
  2040  040E                     l3060:	
  2041                           ;serial.c: 35: else
  2042                           ;serial.c: 36: SendByteSerially((Value / 100) | 0x30);
  2043  040E  3064               	movlw	low(064h)
  2044  040F  00F7               	movwf	(?___awdiv)
  2045  0410  3000               	movlw	high(064h)
  2046  0411  00F8               	movwf	((?___awdiv))+1
  2047  0412  1283               	bcf	status, 5	;RP0=0, select bank0
  2048  0413  1303               	bcf	status, 6	;RP1=0, select bank0
  2049  0414  085C               	movf	(SeriallyDisplayByte@Value),w
  2050  0415  00FC               	movwf	(??_SeriallyDisplayByte+0)+0
  2051  0416  01FD               	clrf	(??_SeriallyDisplayByte+0)+0+1
  2052  0417  087C               	movf	0+(??_SeriallyDisplayByte+0)+0,w
  2053  0418  00F9               	movwf	0+(?___awdiv)+02h
  2054  0419  087D               	movf	1+(??_SeriallyDisplayByte+0)+0,w
  2055  041A  00FA               	movwf	1+(?___awdiv)+02h
  2056  041B  120A  118A  2373   	fcall	___awdiv
              120A  118A         
  2057  0420  0877               	movf	(0+(?___awdiv)),w
  2058  0421  3830               	iorlw	030h
  2059  0422  120A  118A  21A8   	fcall	_SendByteSerially
              120A  118A         
  2060                           	
  2061  0427                     l1264:	
  2062                           	line	38
  2063                           ;serial.c: 38: if(((Value % 100) / 10) == 0)
  2064  0427  300A               	movlw	low(0Ah)
  2065  0428  00F7               	movwf	(?___awdiv)
  2066  0429  3000               	movlw	high(0Ah)
  2067  042A  00F8               	movwf	((?___awdiv))+1
  2068  042B  1283               	bcf	status, 5	;RP0=0, select bank0
  2069  042C  1303               	bcf	status, 6	;RP1=0, select bank0
  2070  042D  085C               	movf	(SeriallyDisplayByte@Value),w
  2071  042E  00FC               	movwf	(??_SeriallyDisplayByte+0)+0
  2072  042F  01FD               	clrf	(??_SeriallyDisplayByte+0)+0+1
  2073  0430  087C               	movf	0+(??_SeriallyDisplayByte+0)+0,w
  2074  0431  00F2               	movwf	0+(?___awmod)+02h
  2075  0432  087D               	movf	1+(??_SeriallyDisplayByte+0)+0,w
  2076  0433  00F3               	movwf	1+(?___awmod)+02h
  2077  0434  3064               	movlw	low(064h)
  2078  0435  00F0               	movwf	(?___awmod)
  2079  0436  3000               	movlw	high(064h)
  2080  0437  00F1               	movwf	((?___awmod))+1
  2081  0438  120A  118A  2297   	fcall	___awmod
              120A  118A         
  2082  043D  0871               	movf	(1+(?___awmod)),w
  2083  043E  01FA               	clrf	1+(?___awdiv)+02h
  2084  043F  07FA               	addwf	1+(?___awdiv)+02h
  2085  0440  0870               	movf	(0+(?___awmod)),w
  2086  0441  01F9               	clrf	0+(?___awdiv)+02h
  2087  0442  07F9               	addwf	0+(?___awdiv)+02h
  2088                           
  2089  0443  120A  118A  2373   	fcall	___awdiv
              120A  118A         
  2090  0448  0878               	movf	((1+(?___awdiv))),w
  2091  0449  0477               	iorwf	((0+(?___awdiv))),w
  2092  044A  1D03               	skipz
  2093  044B  2C4D               	goto	u3131
  2094  044C  2C4E               	goto	u3130
  2095  044D                     u3131:
  2096  044D  2C97               	goto	l3068
  2097  044E                     u3130:
  2098                           	line	39
  2099                           	
  2100  044E                     l3062:	
  2101                           ;serial.c: 39: if(( Value / 100 ) == 0)
  2102  044E  3064               	movlw	low(064h)
  2103  044F  00F7               	movwf	(?___awdiv)
  2104  0450  3000               	movlw	high(064h)
  2105  0451  00F8               	movwf	((?___awdiv))+1
  2106  0452  1283               	bcf	status, 5	;RP0=0, select bank0
  2107  0453  1303               	bcf	status, 6	;RP1=0, select bank0
  2108  0454  085C               	movf	(SeriallyDisplayByte@Value),w
  2109  0455  00FC               	movwf	(??_SeriallyDisplayByte+0)+0
  2110  0456  01FD               	clrf	(??_SeriallyDisplayByte+0)+0+1
  2111  0457  087C               	movf	0+(??_SeriallyDisplayByte+0)+0,w
  2112  0458  00F9               	movwf	0+(?___awdiv)+02h
  2113  0459  087D               	movf	1+(??_SeriallyDisplayByte+0)+0,w
  2114  045A  00FA               	movwf	1+(?___awdiv)+02h
  2115  045B  120A  118A  2373   	fcall	___awdiv
              120A  118A         
  2116  0460  0878               	movf	((1+(?___awdiv))),w
  2117  0461  0477               	iorwf	((0+(?___awdiv))),w
  2118  0462  1D03               	skipz
  2119  0463  2C65               	goto	u3141
  2120  0464  2C66               	goto	u3140
  2121  0465                     u3141:
  2122  0465  2C6D               	goto	l3066
  2123  0466                     u3140:
  2124                           	line	40
  2125                           	
  2126  0466                     l3064:	
  2127                           ;serial.c: 40: SendByteSerially(0x20);
  2128  0466  3020               	movlw	(020h)
  2129  0467  120A  118A  21A8   	fcall	_SendByteSerially
              120A  118A         
  2130  046C  2CBF               	goto	l1268
  2131                           	line	41
  2132                           	
  2133  046D                     l1266:	
  2134                           	line	42
  2135                           	
  2136  046D                     l3066:	
  2137                           ;serial.c: 41: else
  2138                           ;serial.c: 42: SendByteSerially(((Value % 100) / 10) | 0x30);
  2139  046D  300A               	movlw	low(0Ah)
  2140  046E  00F7               	movwf	(?___awdiv)
  2141  046F  3000               	movlw	high(0Ah)
  2142  0470  00F8               	movwf	((?___awdiv))+1
  2143  0471  1283               	bcf	status, 5	;RP0=0, select bank0
  2144  0472  1303               	bcf	status, 6	;RP1=0, select bank0
  2145  0473  085C               	movf	(SeriallyDisplayByte@Value),w
  2146  0474  00FC               	movwf	(??_SeriallyDisplayByte+0)+0
  2147  0475  01FD               	clrf	(??_SeriallyDisplayByte+0)+0+1
  2148  0476  087C               	movf	0+(??_SeriallyDisplayByte+0)+0,w
  2149  0477  00F2               	movwf	0+(?___awmod)+02h
  2150  0478  087D               	movf	1+(??_SeriallyDisplayByte+0)+0,w
  2151  0479  00F3               	movwf	1+(?___awmod)+02h
  2152  047A  3064               	movlw	low(064h)
  2153  047B  00F0               	movwf	(?___awmod)
  2154  047C  3000               	movlw	high(064h)
  2155  047D  00F1               	movwf	((?___awmod))+1
  2156  047E  120A  118A  2297   	fcall	___awmod
              120A  118A         
  2157  0483  0871               	movf	(1+(?___awmod)),w
  2158  0484  01FA               	clrf	1+(?___awdiv)+02h
  2159  0485  07FA               	addwf	1+(?___awdiv)+02h
  2160  0486  0870               	movf	(0+(?___awmod)),w
  2161  0487  01F9               	clrf	0+(?___awdiv)+02h
  2162  0488  07F9               	addwf	0+(?___awdiv)+02h
  2163                           
  2164  0489  120A  118A  2373   	fcall	___awdiv
              120A  118A         
  2165  048E  0877               	movf	(0+(?___awdiv)),w
  2166  048F  3830               	iorlw	030h
  2167  0490  120A  118A  21A8   	fcall	_SendByteSerially
              120A  118A         
  2168  0495  2CBF               	goto	l1268
  2169                           	
  2170  0496                     l1267:	
  2171  0496  2CBF               	goto	l1268
  2172                           	line	43
  2173                           	
  2174  0497                     l1265:	
  2175                           	line	44
  2176                           	
  2177  0497                     l3068:	
  2178                           ;serial.c: 43: else
  2179                           ;serial.c: 44: SendByteSerially(((Value % 100) / 10) | 0x30);
  2180  0497  300A               	movlw	low(0Ah)
  2181  0498  00F7               	movwf	(?___awdiv)
  2182  0499  3000               	movlw	high(0Ah)
  2183  049A  00F8               	movwf	((?___awdiv))+1
  2184  049B  1283               	bcf	status, 5	;RP0=0, select bank0
  2185  049C  1303               	bcf	status, 6	;RP1=0, select bank0
  2186  049D  085C               	movf	(SeriallyDisplayByte@Value),w
  2187  049E  00FC               	movwf	(??_SeriallyDisplayByte+0)+0
  2188  049F  01FD               	clrf	(??_SeriallyDisplayByte+0)+0+1
  2189  04A0  087C               	movf	0+(??_SeriallyDisplayByte+0)+0,w
  2190  04A1  00F2               	movwf	0+(?___awmod)+02h
  2191  04A2  087D               	movf	1+(??_SeriallyDisplayByte+0)+0,w
  2192  04A3  00F3               	movwf	1+(?___awmod)+02h
  2193  04A4  3064               	movlw	low(064h)
  2194  04A5  00F0               	movwf	(?___awmod)
  2195  04A6  3000               	movlw	high(064h)
  2196  04A7  00F1               	movwf	((?___awmod))+1
  2197  04A8  120A  118A  2297   	fcall	___awmod
              120A  118A         
  2198  04AD  0871               	movf	(1+(?___awmod)),w
  2199  04AE  01FA               	clrf	1+(?___awdiv)+02h
  2200  04AF  07FA               	addwf	1+(?___awdiv)+02h
  2201  04B0  0870               	movf	(0+(?___awmod)),w
  2202  04B1  01F9               	clrf	0+(?___awdiv)+02h
  2203  04B2  07F9               	addwf	0+(?___awdiv)+02h
  2204                           
  2205  04B3  120A  118A  2373   	fcall	___awdiv
              120A  118A         
  2206  04B8  0877               	movf	(0+(?___awdiv)),w
  2207  04B9  3830               	iorlw	030h
  2208  04BA  120A  118A  21A8   	fcall	_SendByteSerially
              120A  118A         
  2209                           	
  2210  04BF                     l1268:	
  2211                           	line	46
  2212                           ;serial.c: 46: SendByteSerially((Value % 10) | 0x30);
  2213  04BF  300A               	movlw	low(0Ah)
  2214  04C0  00F0               	movwf	(?___awmod)
  2215  04C1  3000               	movlw	high(0Ah)
  2216  04C2  00F1               	movwf	((?___awmod))+1
  2217  04C3  1283               	bcf	status, 5	;RP0=0, select bank0
  2218  04C4  1303               	bcf	status, 6	;RP1=0, select bank0
  2219  04C5  085C               	movf	(SeriallyDisplayByte@Value),w
  2220  04C6  00FC               	movwf	(??_SeriallyDisplayByte+0)+0
  2221  04C7  01FD               	clrf	(??_SeriallyDisplayByte+0)+0+1
  2222  04C8  087C               	movf	0+(??_SeriallyDisplayByte+0)+0,w
  2223  04C9  00F2               	movwf	0+(?___awmod)+02h
  2224  04CA  087D               	movf	1+(??_SeriallyDisplayByte+0)+0,w
  2225  04CB  00F3               	movwf	1+(?___awmod)+02h
  2226  04CC  120A  118A  2297   	fcall	___awmod
              120A  118A         
  2227  04D1  0870               	movf	(0+(?___awmod)),w
  2228  04D2  3830               	iorlw	030h
  2229  04D3  120A  118A  21A8   	fcall	_SendByteSerially
              120A  118A         
  2230                           	line	48
  2231                           	
  2232  04D8                     l3070:	
  2233                           ;serial.c: 47: }
  2234                           ;serial.c: 48: Value++;
  2235  04D8  3001               	movlw	(01h)
  2236  04D9  00FC               	movwf	(??_SeriallyDisplayByte+0)+0
  2237  04DA  087C               	movf	(??_SeriallyDisplayByte+0)+0,w
  2238  04DB  1283               	bcf	status, 5	;RP0=0, select bank0
  2239  04DC  1303               	bcf	status, 6	;RP1=0, select bank0
  2240  04DD  07DC               	addwf	(SeriallyDisplayByte@Value),f
  2241                           	line	49
  2242                           	
  2243  04DE                     l3072:	
  2244                           ;serial.c: 49: SendByteSerially(0x0D);
  2245  04DE  300D               	movlw	(0Dh)
  2246  04DF  120A  118A  21A8   	fcall	_SendByteSerially
              120A  118A         
  2247                           	line	50
  2248                           	
  2249  04E4                     l3074:	
  2250                           ;serial.c: 50: SendByteSerially(0x0A);
  2251  04E4  300A               	movlw	(0Ah)
  2252  04E5  120A  118A  21A8   	fcall	_SendByteSerially
              120A  118A         
  2253                           	line	51
  2254                           	
  2255  04EA                     l3076:	
  2256                           ;serial.c: 51: Delay(500);
  2257  04EA  30F4               	movlw	low(01F4h)
  2258  04EB  00F0               	movwf	(?_Delay)
  2259  04EC  3001               	movlw	high(01F4h)
  2260  04ED  00F1               	movwf	((?_Delay))+1
  2261  04EE  120A  118A  220B   	fcall	_Delay
              120A  118A         
  2262                           	line	53
  2263                           	
  2264  04F3                     l1269:	
  2265  04F3  0008               	return
  2266                           	opt stack 0
  2267                           GLOBAL	__end_of_SeriallyDisplayByte
  2268  04F4                     	__end_of_SeriallyDisplayByte:
  2269 ;; =============== function _SeriallyDisplayByte ends ============
  2270                           
  2271                           	signat	_SeriallyDisplayByte,4216
  2272                           	global	_MainSystemInitialize
  2273                           psect	text251,local,class=CODE,delta=2
  2274                           global __ptext251
  2275  018F                     __ptext251:
  2276                           
  2277 ;; *************** function _MainSystemInitialize *****************
  2278 ;; Defined at:
  2279 ;;		line 136 in file "C:\Users\hardik - admin\Desktop\desktop\royproj_level_pc\main.c"
  2280 ;; Parameters:    Size  Location     Type
  2281 ;;		None
  2282 ;; Auto vars:     Size  Location     Type
  2283 ;;		None
  2284 ;; Return value:  Size  Location     Type
  2285 ;;		None               void
  2286 ;; Registers used:
  2287 ;;		wreg, status,2, status,0, pclath, cstack
  2288 ;; Tracked objects:
  2289 ;;		On entry : 0/0
  2290 ;;		On exit  : 0/0
  2291 ;;		Unchanged: 0/0
  2292 ;; Data sizes:     COMMON   BANK0   BANK1   BANK3   BANK2
  2293 ;;      Params:         0       0       0       0       0
  2294 ;;      Locals:         0       0       0       0       0
  2295 ;;      Temps:          0       0       0       0       0
  2296 ;;      Totals:         0       0       0       0       0
  2297 ;;Total ram usage:        0 bytes
  2298 ;; Hardware stack levels used:    1
  2299 ;; Hardware stack levels required when called:    1
  2300 ;; This function calls:
  2301 ;;		_InitializeSerialCommunication
  2302 ;; This function is called by:
  2303 ;;		_main
  2304 ;; This function uses a non-reentrant model
  2305 ;;
  2306                           psect	text251
  2307                           	file	"C:\Users\hardik - admin\Desktop\desktop\royproj_level_pc\main.c"
  2308                           	line	136
  2309                           	global	__size_of_MainSystemInitialize
  2310  0006                     	__size_of_MainSystemInitialize	equ	__end_of_MainSystemInitialize-_MainSystemInitialize
  2311                           	
  2312  018F                     _MainSystemInitialize:	
  2313                           	opt	stack 6
  2314                           ; Regs used in _MainSystemInitialize: [wreg+status,2+status,0+pclath+cstack]
  2315                           	line	137
  2316                           	
  2317  018F                     l3054:	
  2318                           ;main.c: 137: InitializeSerialCommunication();
  2319  018F  120A  118A  21B4   	fcall	_InitializeSerialCommunication
              120A  118A         
  2320                           	line	138
  2321                           	
  2322  0194                     l665:	
  2323  0194  0008               	return
  2324                           	opt stack 0
  2325                           GLOBAL	__end_of_MainSystemInitialize
  2326  0195                     	__end_of_MainSystemInitialize:
  2327 ;; =============== function _MainSystemInitialize ends ============
  2328                           
  2329                           	signat	_MainSystemInitialize,88
  2330                           	global	___awmod
  2331                           psect	text252,local,class=CODE,delta=2
  2332                           global __ptext252
  2333  0297                     __ptext252:
  2334                           
  2335 ;; *************** function ___awmod *****************
  2336 ;; Defined at:
  2337 ;;		line 5 in file "C:\Program Files (x86)\HI-TECH Software\PICC\9.80\sources\awmod.c"
  2338 ;; Parameters:    Size  Location     Type
  2339 ;;  divisor         2    0[COMMON] int 
  2340 ;;  dividend        2    2[COMMON] int 
  2341 ;; Auto vars:     Size  Location     Type
  2342 ;;  sign            1    6[COMMON] unsigned char 
  2343 ;;  counter         1    5[COMMON] unsigned char 
  2344 ;; Return value:  Size  Location     Type
  2345 ;;                  2    0[COMMON] int 
  2346 ;; Registers used:
  2347 ;;		wreg, status,2, status,0
  2348 ;; Tracked objects:
  2349 ;;		On entry : 0/0
  2350 ;;		On exit  : 0/0
  2351 ;;		Unchanged: 0/0
  2352 ;; Data sizes:     COMMON   BANK0   BANK1   BANK3   BANK2
  2353 ;;      Params:         4       0       0       0       0
  2354 ;;      Locals:         2       0       0       0       0
  2355 ;;      Temps:          1       0       0       0       0
  2356 ;;      Totals:         7       0       0       0       0
  2357 ;;Total ram usage:        7 bytes
  2358 ;; Hardware stack levels used:    1
  2359 ;; This function calls:
  2360 ;;		Nothing
  2361 ;; This function is called by:
  2362 ;;		_SeriallyDisplayByte
  2363 ;; This function uses a non-reentrant model
  2364 ;;
  2365                           psect	text252
  2366                           	file	"C:\Program Files (x86)\HI-TECH Software\PICC\9.80\sources\awmod.c"
  2367                           	line	5
  2368                           	global	__size_of___awmod
  2369  006A                     	__size_of___awmod	equ	__end_of___awmod-___awmod
  2370                           	
  2371  0297                     ___awmod:	
  2372                           	opt	stack 6
  2373                           ; Regs used in ___awmod: [wreg+status,2+status,0]
  2374                           	line	8
  2375                           	
  2376  0297                     l3018:	
  2377  0297  1003               	clrc
  2378  0298  3000               	movlw	0
  2379  0299  1803               	btfsc	status,0
  2380  029A  3001               	movlw	1
  2381  029B  00F6               	movwf	(___awmod@sign)
  2382                           	line	9
  2383                           	
  2384  029C                     l3020:	
  2385  029C  1FF3               	btfss	(___awmod@dividend+1),7
  2386  029D  2A9F               	goto	u3031
  2387  029E  2AA0               	goto	u3030
  2388  029F                     u3031:
  2389  029F  2AA9               	goto	l3024
  2390  02A0                     u3030:
  2391                           	line	10
  2392                           	
  2393  02A0                     l3022:	
  2394  02A0  09F2               	comf	(___awmod@dividend),f
  2395  02A1  09F3               	comf	(___awmod@dividend+1),f
  2396  02A2  0AF2               	incf	(___awmod@dividend),f
  2397  02A3  1903               	skipnz
  2398  02A4  0AF3               	incf	(___awmod@dividend+1),f
  2399                           	line	11
  2400  02A5  01F6               	clrf	(___awmod@sign)
  2401  02A6  1403               	bsf	status,0
  2402  02A7  0DF6               	rlf	(___awmod@sign),f
  2403  02A8  2AA9               	goto	l3024
  2404                           	line	12
  2405                           	
  2406  02A9                     l1486:	
  2407                           	line	13
  2408                           	
  2409  02A9                     l3024:	
  2410  02A9  1FF1               	btfss	(___awmod@divisor+1),7
  2411  02AA  2AAC               	goto	u3041
  2412  02AB  2AAD               	goto	u3040
  2413  02AC                     u3041:
  2414  02AC  2AB3               	goto	l3028
  2415  02AD                     u3040:
  2416                           	line	14
  2417                           	
  2418  02AD                     l3026:	
  2419  02AD  09F0               	comf	(___awmod@divisor),f
  2420  02AE  09F1               	comf	(___awmod@divisor+1),f
  2421  02AF  0AF0               	incf	(___awmod@divisor),f
  2422  02B0  1903               	skipnz
  2423  02B1  0AF1               	incf	(___awmod@divisor+1),f
  2424  02B2  2AB3               	goto	l3028
  2425                           	
  2426  02B3                     l1487:	
  2427                           	line	15
  2428                           	
  2429  02B3                     l3028:	
  2430  02B3  0871               	movf	(___awmod@divisor+1),w
  2431  02B4  0470               	iorwf	(___awmod@divisor),w
  2432  02B5  1903               	skipnz
  2433  02B6  2AB8               	goto	u3051
  2434  02B7  2AB9               	goto	u3050
  2435  02B8                     u3051:
  2436  02B8  2AEF               	goto	l3046
  2437  02B9                     u3050:
  2438                           	line	16
  2439                           	
  2440  02B9                     l3030:	
  2441  02B9  01F5               	clrf	(___awmod@counter)
  2442  02BA  1403               	bsf	status,0
  2443  02BB  0DF5               	rlf	(___awmod@counter),f
  2444                           	line	17
  2445  02BC  2AC9               	goto	l3036
  2446                           	
  2447  02BD                     l1490:	
  2448                           	line	18
  2449                           	
  2450  02BD                     l3032:	
  2451  02BD  3001               	movlw	01h
  2452                           	
  2453  02BE                     u3065:
  2454  02BE  1003               	clrc
  2455  02BF  0DF0               	rlf	(___awmod@divisor),f
  2456  02C0  0DF1               	rlf	(___awmod@divisor+1),f
  2457  02C1  3EFF               	addlw	-1
  2458  02C2  1D03               	skipz
  2459  02C3  2ABE               	goto	u3065
  2460                           	line	19
  2461                           	
  2462  02C4                     l3034:	
  2463  02C4  3001               	movlw	(01h)
  2464  02C5  00F4               	movwf	(??___awmod+0)+0
  2465  02C6  0874               	movf	(??___awmod+0)+0,w
  2466  02C7  07F5               	addwf	(___awmod@counter),f
  2467  02C8  2AC9               	goto	l3036
  2468                           	line	20
  2469                           	
  2470  02C9                     l1489:	
  2471                           	line	17
  2472                           	
  2473  02C9                     l3036:	
  2474  02C9  1FF1               	btfss	(___awmod@divisor+1),(15)&7
  2475  02CA  2ACC               	goto	u3071
  2476  02CB  2ACD               	goto	u3070
  2477  02CC                     u3071:
  2478  02CC  2ABD               	goto	l3032
  2479  02CD                     u3070:
  2480  02CD  2ACF               	goto	l3038
  2481                           	
  2482  02CE                     l1491:	
  2483  02CE  2ACF               	goto	l3038
  2484                           	line	21
  2485                           	
  2486  02CF                     l1492:	
  2487                           	line	22
  2488                           	
  2489  02CF                     l3038:	
  2490  02CF  0871               	movf	(___awmod@divisor+1),w
  2491  02D0  0273               	subwf	(___awmod@dividend+1),w
  2492  02D1  1D03               	skipz
  2493  02D2  2AD5               	goto	u3085
  2494  02D3  0870               	movf	(___awmod@divisor),w
  2495  02D4  0272               	subwf	(___awmod@dividend),w
  2496  02D5                     u3085:
  2497  02D5  1C03               	skipc
  2498  02D6  2AD8               	goto	u3081
  2499  02D7  2AD9               	goto	u3080
  2500  02D8                     u3081:
  2501  02D8  2AE0               	goto	l3042
  2502  02D9                     u3080:
  2503                           	line	23
  2504                           	
  2505  02D9                     l3040:	
  2506  02D9  0870               	movf	(___awmod@divisor),w
  2507  02DA  02F2               	subwf	(___awmod@dividend),f
  2508  02DB  0871               	movf	(___awmod@divisor+1),w
  2509  02DC  1C03               	skipc
  2510  02DD  03F3               	decf	(___awmod@dividend+1),f
  2511  02DE  02F3               	subwf	(___awmod@dividend+1),f
  2512  02DF  2AE0               	goto	l3042
  2513                           	
  2514  02E0                     l1493:	
  2515                           	line	24
  2516                           	
  2517  02E0                     l3042:	
  2518  02E0  3001               	movlw	01h
  2519                           	
  2520  02E1                     u3095:
  2521  02E1  1003               	clrc
  2522  02E2  0CF1               	rrf	(___awmod@divisor+1),f
  2523  02E3  0CF0               	rrf	(___awmod@divisor),f
  2524  02E4  3EFF               	addlw	-1
  2525  02E5  1D03               	skipz
  2526  02E6  2AE1               	goto	u3095
  2527                           	line	25
  2528                           	
  2529  02E7                     l3044:	
  2530  02E7  3001               	movlw	low(01h)
  2531  02E8  02F5               	subwf	(___awmod@counter),f
  2532  02E9  1D03               	btfss	status,2
  2533  02EA  2AEC               	goto	u3101
  2534  02EB  2AED               	goto	u3100
  2535  02EC                     u3101:
  2536  02EC  2ACF               	goto	l3038
  2537  02ED                     u3100:
  2538  02ED  2AEF               	goto	l3046
  2539                           	
  2540  02EE                     l1494:	
  2541  02EE  2AEF               	goto	l3046
  2542                           	line	26
  2543                           	
  2544  02EF                     l1488:	
  2545                           	line	27
  2546                           	
  2547  02EF                     l3046:	
  2548  02EF  0876               	movf	(___awmod@sign),w
  2549  02F0  1D03               	skipz
  2550  02F1  2AF3               	goto	u3110
  2551  02F2  2AF9               	goto	l3050
  2552  02F3                     u3110:
  2553                           	line	28
  2554                           	
  2555  02F3                     l3048:	
  2556  02F3  09F2               	comf	(___awmod@dividend),f
  2557  02F4  09F3               	comf	(___awmod@dividend+1),f
  2558  02F5  0AF2               	incf	(___awmod@dividend),f
  2559  02F6  1903               	skipnz
  2560  02F7  0AF3               	incf	(___awmod@dividend+1),f
  2561  02F8  2AF9               	goto	l3050
  2562                           	
  2563  02F9                     l1495:	
  2564                           	line	29
  2565                           	
  2566  02F9                     l3050:	
  2567  02F9  0873               	movf	(___awmod@dividend+1),w
  2568  02FA  01F1               	clrf	(?___awmod+1)
  2569  02FB  07F1               	addwf	(?___awmod+1)
  2570  02FC  0872               	movf	(___awmod@dividend),w
  2571  02FD  01F0               	clrf	(?___awmod)
  2572  02FE  07F0               	addwf	(?___awmod)
  2573                           
  2574  02FF  2B00               	goto	l1496
  2575                           	
  2576  0300                     l3052:	
  2577                           	line	30
  2578                           	
  2579  0300                     l1496:	
  2580  0300  0008               	return
  2581                           	opt stack 0
  2582                           GLOBAL	__end_of___awmod
  2583  0301                     	__end_of___awmod:
  2584 ;; =============== function ___awmod ends ============
  2585                           
  2586                           	signat	___awmod,8314
  2587                           	global	___awdiv
  2588                           psect	text253,local,class=CODE,delta=2
  2589                           global __ptext253
  2590  0373                     __ptext253:
  2591                           
  2592 ;; *************** function ___awdiv *****************
  2593 ;; Defined at:
  2594 ;;		line 5 in file "C:\Program Files (x86)\HI-TECH Software\PICC\9.80\sources\awdiv.c"
  2595 ;; Parameters:    Size  Location     Type
  2596 ;;  divisor         2    7[COMMON] int 
  2597 ;;  dividend        2    9[COMMON] int 
  2598 ;; Auto vars:     Size  Location     Type
  2599 ;;  quotient        2    2[BANK0 ] int 
  2600 ;;  sign            1    1[BANK0 ] unsigned char 
  2601 ;;  counter         1    0[BANK0 ] unsigned char 
  2602 ;; Return value:  Size  Location     Type
  2603 ;;                  2    7[COMMON] int 
  2604 ;; Registers used:
  2605 ;;		wreg, status,2, status,0
  2606 ;; Tracked objects:
  2607 ;;		On entry : 0/0
  2608 ;;		On exit  : 0/0
  2609 ;;		Unchanged: 0/0
  2610 ;; Data sizes:     COMMON   BANK0   BANK1   BANK3   BANK2
  2611 ;;      Params:         4       0       0       0       0
  2612 ;;      Locals:         0       4       0       0       0
  2613 ;;      Temps:          1       0       0       0       0
  2614 ;;      Totals:         5       4       0       0       0
  2615 ;;Total ram usage:        9 bytes
  2616 ;; Hardware stack levels used:    1
  2617 ;; This function calls:
  2618 ;;		Nothing
  2619 ;; This function is called by:
  2620 ;;		_SeriallyDisplayByte
  2621 ;; This function uses a non-reentrant model
  2622 ;;
  2623                           psect	text253
  2624                           	file	"C:\Program Files (x86)\HI-TECH Software\PICC\9.80\sources\awdiv.c"
  2625                           	line	5
  2626                           	global	__size_of___awdiv
  2627  007B                     	__size_of___awdiv	equ	__end_of___awdiv-___awdiv
  2628                           	
  2629  0373                     ___awdiv:	
  2630                           	opt	stack 6
  2631                           ; Regs used in ___awdiv: [wreg+status,2+status,0]
  2632                           	line	9
  2633                           	
  2634  0373                     l2980:	
  2635  0373  1003               	clrc
  2636  0374  3000               	movlw	0
  2637  0375  1803               	btfsc	status,0
  2638  0376  3001               	movlw	1
  2639  0377  1283               	bcf	status, 5	;RP0=0, select bank0
  2640  0378  1303               	bcf	status, 6	;RP1=0, select bank0
  2641  0379  00D9               	movwf	(___awdiv@sign)
  2642                           	line	10
  2643                           	
  2644  037A                     l2982:	
  2645  037A  1FF8               	btfss	(___awdiv@divisor+1),7
  2646  037B  2B7D               	goto	u2931
  2647  037C  2B7E               	goto	u2930
  2648  037D                     u2931:
  2649  037D  2B87               	goto	l2986
  2650  037E                     u2930:
  2651                           	line	11
  2652                           	
  2653  037E                     l2984:	
  2654  037E  09F7               	comf	(___awdiv@divisor),f
  2655  037F  09F8               	comf	(___awdiv@divisor+1),f
  2656  0380  0AF7               	incf	(___awdiv@divisor),f
  2657  0381  1903               	skipnz
  2658  0382  0AF8               	incf	(___awdiv@divisor+1),f
  2659                           	line	12
  2660  0383  01D9               	clrf	(___awdiv@sign)
  2661  0384  1403               	bsf	status,0
  2662  0385  0DD9               	rlf	(___awdiv@sign),f
  2663  0386  2B87               	goto	l2986
  2664                           	line	13
  2665                           	
  2666  0387                     l1418:	
  2667                           	line	14
  2668                           	
  2669  0387                     l2986:	
  2670  0387  1FFA               	btfss	(___awdiv@dividend+1),7
  2671  0388  2B8A               	goto	u2941
  2672  0389  2B8B               	goto	u2940
  2673  038A                     u2941:
  2674  038A  2B94               	goto	l1419
  2675  038B                     u2940:
  2676                           	line	15
  2677                           	
  2678  038B                     l2988:	
  2679  038B  09F9               	comf	(___awdiv@dividend),f
  2680  038C  09FA               	comf	(___awdiv@dividend+1),f
  2681  038D  0AF9               	incf	(___awdiv@dividend),f
  2682  038E  1903               	skipnz
  2683  038F  0AFA               	incf	(___awdiv@dividend+1),f
  2684                           	line	16
  2685                           	
  2686  0390                     l2990:	
  2687  0390  3001               	movlw	(01h)
  2688  0391  00FB               	movwf	(??___awdiv+0)+0
  2689  0392  087B               	movf	(??___awdiv+0)+0,w
  2690  0393  06D9               	xorwf	(___awdiv@sign),f
  2691                           	line	17
  2692                           	
  2693  0394                     l1419:	
  2694                           	line	18
  2695  0394  3000               	movlw	low(0)
  2696  0395  00DA               	movwf	(___awdiv@quotient)
  2697  0396  3000               	movlw	high(0)
  2698  0397  00DB               	movwf	((___awdiv@quotient))+1
  2699                           	line	19
  2700  0398  0878               	movf	(___awdiv@divisor+1),w
  2701  0399  0477               	iorwf	(___awdiv@divisor),w
  2702  039A  1903               	skipnz
  2703  039B  2B9D               	goto	u2951
  2704  039C  2B9E               	goto	u2950
  2705  039D                     u2951:
  2706  039D  2BDC               	goto	l3010
  2707  039E                     u2950:
  2708                           	line	20
  2709                           	
  2710  039E                     l2992:	
  2711  039E  01D8               	clrf	(___awdiv@counter)
  2712  039F  1403               	bsf	status,0
  2713  03A0  0DD8               	rlf	(___awdiv@counter),f
  2714                           	line	21
  2715  03A1  2BAE               	goto	l2998
  2716                           	
  2717  03A2                     l1422:	
  2718                           	line	22
  2719                           	
  2720  03A2                     l2994:	
  2721  03A2  3001               	movlw	01h
  2722                           	
  2723  03A3                     u2965:
  2724  03A3  1003               	clrc
  2725  03A4  0DF7               	rlf	(___awdiv@divisor),f
  2726  03A5  0DF8               	rlf	(___awdiv@divisor+1),f
  2727  03A6  3EFF               	addlw	-1
  2728  03A7  1D03               	skipz
  2729  03A8  2BA3               	goto	u2965
  2730                           	line	23
  2731                           	
  2732  03A9                     l2996:	
  2733  03A9  3001               	movlw	(01h)
  2734  03AA  00FB               	movwf	(??___awdiv+0)+0
  2735  03AB  087B               	movf	(??___awdiv+0)+0,w
  2736  03AC  07D8               	addwf	(___awdiv@counter),f
  2737  03AD  2BAE               	goto	l2998
  2738                           	line	24
  2739                           	
  2740  03AE                     l1421:	
  2741                           	line	21
  2742                           	
  2743  03AE                     l2998:	
  2744  03AE  1FF8               	btfss	(___awdiv@divisor+1),(15)&7
  2745  03AF  2BB1               	goto	u2971
  2746  03B0  2BB2               	goto	u2970
  2747  03B1                     u2971:
  2748  03B1  2BA2               	goto	l2994
  2749  03B2                     u2970:
  2750  03B2  2BB4               	goto	l3000
  2751                           	
  2752  03B3                     l1423:	
  2753  03B3  2BB4               	goto	l3000
  2754                           	line	25
  2755                           	
  2756  03B4                     l1424:	
  2757                           	line	26
  2758                           	
  2759  03B4                     l3000:	
  2760  03B4  3001               	movlw	01h
  2761                           	
  2762  03B5                     u2985:
  2763  03B5  1003               	clrc
  2764  03B6  0DDA               	rlf	(___awdiv@quotient),f
  2765  03B7  0DDB               	rlf	(___awdiv@quotient+1),f
  2766  03B8  3EFF               	addlw	-1
  2767  03B9  1D03               	skipz
  2768  03BA  2BB5               	goto	u2985
  2769                           	line	27
  2770  03BB  0878               	movf	(___awdiv@divisor+1),w
  2771  03BC  027A               	subwf	(___awdiv@dividend+1),w
  2772  03BD  1D03               	skipz
  2773  03BE  2BC1               	goto	u2995
  2774  03BF  0877               	movf	(___awdiv@divisor),w
  2775  03C0  0279               	subwf	(___awdiv@dividend),w
  2776  03C1                     u2995:
  2777  03C1  1C03               	skipc
  2778  03C2  2BC4               	goto	u2991
  2779  03C3  2BC5               	goto	u2990
  2780  03C4                     u2991:
  2781  03C4  2BCD               	goto	l3006
  2782  03C5                     u2990:
  2783                           	line	28
  2784                           	
  2785  03C5                     l3002:	
  2786  03C5  0877               	movf	(___awdiv@divisor),w
  2787  03C6  02F9               	subwf	(___awdiv@dividend),f
  2788  03C7  0878               	movf	(___awdiv@divisor+1),w
  2789  03C8  1C03               	skipc
  2790  03C9  03FA               	decf	(___awdiv@dividend+1),f
  2791  03CA  02FA               	subwf	(___awdiv@dividend+1),f
  2792                           	line	29
  2793                           	
  2794  03CB                     l3004:	
  2795  03CB  145A               	bsf	(___awdiv@quotient)+(0/8),(0)&7
  2796  03CC  2BCD               	goto	l3006
  2797                           	line	30
  2798                           	
  2799  03CD                     l1425:	
  2800                           	line	31
  2801                           	
  2802  03CD                     l3006:	
  2803  03CD  3001               	movlw	01h
  2804                           	
  2805  03CE                     u3005:
  2806  03CE  1003               	clrc
  2807  03CF  0CF8               	rrf	(___awdiv@divisor+1),f
  2808  03D0  0CF7               	rrf	(___awdiv@divisor),f
  2809  03D1  3EFF               	addlw	-1
  2810  03D2  1D03               	skipz
  2811  03D3  2BCE               	goto	u3005
  2812                           	line	32
  2813                           	
  2814  03D4                     l3008:	
  2815  03D4  3001               	movlw	low(01h)
  2816  03D5  02D8               	subwf	(___awdiv@counter),f
  2817  03D6  1D03               	btfss	status,2
  2818  03D7  2BD9               	goto	u3011
  2819  03D8  2BDA               	goto	u3010
  2820  03D9                     u3011:
  2821  03D9  2BB4               	goto	l3000
  2822  03DA                     u3010:
  2823  03DA  2BDC               	goto	l3010
  2824                           	
  2825  03DB                     l1426:	
  2826  03DB  2BDC               	goto	l3010
  2827                           	line	33
  2828                           	
  2829  03DC                     l1420:	
  2830                           	line	34
  2831                           	
  2832  03DC                     l3010:	
  2833  03DC  0859               	movf	(___awdiv@sign),w
  2834  03DD  1D03               	skipz
  2835  03DE  2BE0               	goto	u3020
  2836  03DF  2BE6               	goto	l3014
  2837  03E0                     u3020:
  2838                           	line	35
  2839                           	
  2840  03E0                     l3012:	
  2841  03E0  09DA               	comf	(___awdiv@quotient),f
  2842  03E1  09DB               	comf	(___awdiv@quotient+1),f
  2843  03E2  0ADA               	incf	(___awdiv@quotient),f
  2844  03E3  1903               	skipnz
  2845  03E4  0ADB               	incf	(___awdiv@quotient+1),f
  2846  03E5  2BE6               	goto	l3014
  2847                           	
  2848  03E6                     l1427:	
  2849                           	line	36
  2850                           	
  2851  03E6                     l3014:	
  2852  03E6  085B               	movf	(___awdiv@quotient+1),w
  2853  03E7  01F8               	clrf	(?___awdiv+1)
  2854  03E8  07F8               	addwf	(?___awdiv+1)
  2855  03E9  085A               	movf	(___awdiv@quotient),w
  2856  03EA  01F7               	clrf	(?___awdiv)
  2857  03EB  07F7               	addwf	(?___awdiv)
  2858                           
  2859  03EC  2BED               	goto	l1428
  2860                           	
  2861  03ED                     l3016:	
  2862                           	line	37
  2863                           	
  2864  03ED                     l1428:	
  2865  03ED  0008               	return
  2866                           	opt stack 0
  2867                           GLOBAL	__end_of___awdiv
  2868  03EE                     	__end_of___awdiv:
  2869 ;; =============== function ___awdiv ends ============
  2870                           
  2871                           	signat	___awdiv,8314
  2872                           	global	___bmul
  2873                           psect	text254,local,class=CODE,delta=2
  2874                           global __ptext254
  2875  01EE                     __ptext254:
  2876                           
  2877 ;; *************** function ___bmul *****************
  2878 ;; Defined at:
  2879 ;;		line 3 in file "bmul.c"
  2880 ;; Parameters:    Size  Location     Type
  2881 ;;  multiplier      1    wreg     unsigned char 
  2882 ;;  multiplicand    1    0[COMMON] unsigned char 
  2883 ;; Auto vars:     Size  Location     Type
  2884 ;;  multiplier      1    3[COMMON] unsigned char 
  2885 ;;  product         1    2[COMMON] unsigned char 
  2886 ;; Return value:  Size  Location     Type
  2887 ;;                  1    wreg      unsigned char 
  2888 ;; Registers used:
  2889 ;;		wreg, status,2, status,0
  2890 ;; Tracked objects:
  2891 ;;		On entry : 0/0
  2892 ;;		On exit  : 0/0
  2893 ;;		Unchanged: 0/0
  2894 ;; Data sizes:     COMMON   BANK0   BANK1   BANK3   BANK2
  2895 ;;      Params:         1       0       0       0       0
  2896 ;;      Locals:         2       0       0       0       0
  2897 ;;      Temps:          1       0       0       0       0
  2898 ;;      Totals:         4       0       0       0       0
  2899 ;;Total ram usage:        4 bytes
  2900 ;; Hardware stack levels used:    1
  2901 ;; This function calls:
  2902 ;;		Nothing
  2903 ;; This function is called by:
  2904 ;;		_main
  2905 ;; This function uses a non-reentrant model
  2906 ;;
  2907                           psect	text254
  2908                           	file	"C:\Program Files (x86)\HI-TECH Software\PICC\9.80\sources\bmul.c"
  2909                           	line	3
  2910                           	global	__size_of___bmul
  2911  001D                     	__size_of___bmul	equ	__end_of___bmul-___bmul
  2912                           	
  2913  01EE                     ___bmul:	
  2914                           	opt	stack 7
  2915                           ; Regs used in ___bmul: [wreg+status,2+status,0]
  2916                           ;___bmul@multiplier stored from wreg
  2917  01EE  00F3               	movwf	(___bmul@multiplier)
  2918                           	line	4
  2919                           	
  2920  01EF                     l2964:	
  2921  01EF  1003               	clrc
  2922  01F0  3000               	movlw	0
  2923  01F1  1803               	btfsc	status,0
  2924  01F2  3001               	movlw	1
  2925  01F3  00F2               	movwf	(___bmul@product)
  2926  01F4  29F5               	goto	l2966
  2927                           	line	6
  2928                           	
  2929  01F5                     l1272:	
  2930                           	line	7
  2931                           	
  2932  01F5                     l2966:	
  2933  01F5  1C73               	btfss	(___bmul@multiplier),(0)&7
  2934  01F6  29F8               	goto	u2911
  2935  01F7  29F9               	goto	u2910
  2936  01F8                     u2911:
  2937  01F8  29FE               	goto	l2970
  2938  01F9                     u2910:
  2939                           	line	8
  2940                           	
  2941  01F9                     l2968:	
  2942  01F9  0870               	movf	(___bmul@multiplicand),w
  2943  01FA  00F1               	movwf	(??___bmul+0)+0
  2944  01FB  0871               	movf	(??___bmul+0)+0,w
  2945  01FC  07F2               	addwf	(___bmul@product),f
  2946  01FD  29FE               	goto	l2970
  2947                           	
  2948  01FE                     l1273:	
  2949                           	line	9
  2950                           	
  2951  01FE                     l2970:	
  2952  01FE  1003               	clrc
  2953  01FF  0DF0               	rlf	(___bmul@multiplicand),f
  2954                           
  2955                           	line	10
  2956                           	
  2957  0200                     l2972:	
  2958  0200  1003               	clrc
  2959  0201  0CF3               	rrf	(___bmul@multiplier),f
  2960                           
  2961                           	line	11
  2962                           	
  2963  0202                     l2974:	
  2964  0202  08F3               	movf	(___bmul@multiplier),f
  2965  0203  1D03               	skipz
  2966  0204  2A06               	goto	u2921
  2967  0205  2A07               	goto	u2920
  2968  0206                     u2921:
  2969  0206  29F5               	goto	l2966
  2970  0207                     u2920:
  2971  0207  2A08               	goto	l2976
  2972                           	
  2973  0208                     l1274:	
  2974                           	line	12
  2975                           	
  2976  0208                     l2976:	
  2977  0208  0872               	movf	(___bmul@product),w
  2978  0209  2A0A               	goto	l1275
  2979                           	
  2980  020A                     l2978:	
  2981                           	line	13
  2982                           	
  2983  020A                     l1275:	
  2984  020A  0008               	return
  2985                           	opt stack 0
  2986                           GLOBAL	__end_of___bmul
  2987  020B                     	__end_of___bmul:
  2988 ;; =============== function ___bmul ends ============
  2989                           
  2990                           	signat	___bmul,8313
  2991                           	global	_InitializeSerialCommunication
  2992                           psect	text255,local,class=CODE,delta=2
  2993                           global __ptext255
  2994  01B4                     __ptext255:
  2995                           
  2996 ;; *************** function _InitializeSerialCommunication *****************
  2997 ;; Defined at:
  2998 ;;		line 6 in file "C:\Users\hardik - admin\Desktop\desktop\royproj_level_pc\serial.c"
  2999 ;; Parameters:    Size  Location     Type
  3000 ;;		None
  3001 ;; Auto vars:     Size  Location     Type
  3002 ;;		None
  3003 ;; Return value:  Size  Location     Type
  3004 ;;		None               void
  3005 ;; Registers used:
  3006 ;;		wreg
  3007 ;; Tracked objects:
  3008 ;;		On entry : 0/0
  3009 ;;		On exit  : 0/0
  3010 ;;		Unchanged: 0/0
  3011 ;; Data sizes:     COMMON   BANK0   BANK1   BANK3   BANK2
  3012 ;;      Params:         0       0       0       0       0
  3013 ;;      Locals:         0       0       0       0       0
  3014 ;;      Temps:          0       0       0       0       0
  3015 ;;      Totals:         0       0       0       0       0
  3016 ;;Total ram usage:        0 bytes
  3017 ;; Hardware stack levels used:    1
  3018 ;; This function calls:
  3019 ;;		Nothing
  3020 ;; This function is called by:
  3021 ;;		_MainSystemInitialize
  3022 ;; This function uses a non-reentrant model
  3023 ;;
  3024                           psect	text255
  3025                           	file	"C:\Users\hardik - admin\Desktop\desktop\royproj_level_pc\serial.c"
  3026                           	line	6
  3027                           	global	__size_of_InitializeSerialCommunication
  3028  000E                     	__size_of_InitializeSerialCommunication	equ	__end_of_InitializeSerialCommunication-_Ini
                                 tializeSerialCommunication
  3029                           	
  3030  01B4                     _InitializeSerialCommunication:	
  3031                           	opt	stack 6
  3032                           ; Regs used in _InitializeSerialCommunication: [wreg]
  3033                           	line	8
  3034                           	
  3035  01B4                     l2960:	
  3036                           ;serial.c: 8: SPBRG = ((int)(16000000L/(16UL * 9600) -1));
  3037  01B4  3067               	movlw	(067h)
  3038  01B5  1683               	bsf	status, 5	;RP0=1, select bank1
  3039  01B6  1303               	bcf	status, 6	;RP1=0, select bank1
  3040  01B7  0099               	movwf	(153)^080h	;volatile
  3041                           	line	9
  3042                           ;serial.c: 9: RCSTA = 0x90;
  3043  01B8  3090               	movlw	(090h)
  3044  01B9  1283               	bcf	status, 5	;RP0=0, select bank0
  3045  01BA  1303               	bcf	status, 6	;RP1=0, select bank0
  3046  01BB  0098               	movwf	(24)	;volatile
  3047                           	line	10
  3048                           ;serial.c: 10: TXSTA = 0x24;
  3049  01BC  3024               	movlw	(024h)
  3050  01BD  1683               	bsf	status, 5	;RP0=1, select bank1
  3051  01BE  1303               	bcf	status, 6	;RP1=0, select bank1
  3052  01BF  0098               	movwf	(152)^080h	;volatile
  3053                           	line	11
  3054                           	
  3055  01C0                     l2962:	
  3056                           ;serial.c: 11: SYNC=0;
  3057  01C0  1218               	bcf	(1220/8)^080h,(1220)&7
  3058                           	line	12
  3059                           	
  3060  01C1                     l1248:	
  3061  01C1  0008               	return
  3062                           	opt stack 0
  3063                           GLOBAL	__end_of_InitializeSerialCommunication
  3064  01C2                     	__end_of_InitializeSerialCommunication:
  3065 ;; =============== function _InitializeSerialCommunication ends ============
  3066                           
  3067                           	signat	_InitializeSerialCommunication,88
  3068                           	global	_ReceiveByteSerially
  3069                           psect	text256,local,class=CODE,delta=2
  3070                           global __ptext256
  3071  019D                     __ptext256:
  3072                           
  3073 ;; *************** function _ReceiveByteSerially *****************
  3074 ;; Defined at:
  3075 ;;		line 23 in file "C:\Users\hardik - admin\Desktop\desktop\royproj_level_pc\serial.c"
  3076 ;; Parameters:    Size  Location     Type
  3077 ;;		None
  3078 ;; Auto vars:     Size  Location     Type
  3079 ;;		None
  3080 ;; Return value:  Size  Location     Type
  3081 ;;                  1    wreg      unsigned char 
  3082 ;; Registers used:
  3083 ;;		wreg
  3084 ;; Tracked objects:
  3085 ;;		On entry : 0/0
  3086 ;;		On exit  : 0/0
  3087 ;;		Unchanged: 0/0
  3088 ;; Data sizes:     COMMON   BANK0   BANK1   BANK3   BANK2
  3089 ;;      Params:         0       0       0       0       0
  3090 ;;      Locals:         0       0       0       0       0
  3091 ;;      Temps:          0       0       0       0       0
  3092 ;;      Totals:         0       0       0       0       0
  3093 ;;Total ram usage:        0 bytes
  3094 ;; Hardware stack levels used:    1
  3095 ;; This function calls:
  3096 ;;		Nothing
  3097 ;; This function is called by:
  3098 ;;		_main
  3099 ;; This function uses a non-reentrant model
  3100 ;;
  3101                           psect	text256
  3102                           	file	"C:\Users\hardik - admin\Desktop\desktop\royproj_level_pc\serial.c"
  3103                           	line	23
  3104                           	global	__size_of_ReceiveByteSerially
  3105  000B                     	__size_of_ReceiveByteSerially	equ	__end_of_ReceiveByteSerially-_ReceiveByteSerially
  3106                           	
  3107  019D                     _ReceiveByteSerially:	
  3108                           	opt	stack 7
  3109                           ; Regs used in _ReceiveByteSerially: [wreg]
  3110                           	line	25
  3111                           	
  3112  019D                     l2954:	
  3113                           ;serial.c: 25: while(!RCIF)
  3114  019D  299E               	goto	l1257
  3115                           	
  3116  019E                     l1258:	
  3117                           	line	26
  3118                           ;serial.c: 26: continue;
  3119                           	
  3120  019E                     l1257:	
  3121                           	line	25
  3122  019E  1283               	bcf	status, 5	;RP0=0, select bank0
  3123  019F  1303               	bcf	status, 6	;RP1=0, select bank0
  3124  01A0  1E8C               	btfss	(101/8),(101)&7
  3125  01A1  29A3               	goto	u2901
  3126  01A2  29A4               	goto	u2900
  3127  01A3                     u2901:
  3128  01A3  299E               	goto	l1257
  3129  01A4                     u2900:
  3130  01A4  29A5               	goto	l2956
  3131                           	
  3132  01A5                     l1259:	
  3133                           	line	27
  3134                           	
  3135  01A5                     l2956:	
  3136                           ;serial.c: 27: return RCREG;
  3137  01A5  081A               	movf	(26),w	;volatile
  3138  01A6  29A7               	goto	l1260
  3139                           	
  3140  01A7                     l2958:	
  3141                           	line	28
  3142                           	
  3143  01A7                     l1260:	
  3144  01A7  0008               	return
  3145                           	opt stack 0
  3146                           GLOBAL	__end_of_ReceiveByteSerially
  3147  01A8                     	__end_of_ReceiveByteSerially:
  3148 ;; =============== function _ReceiveByteSerially ends ============
  3149                           
  3150                           	signat	_ReceiveByteSerially,89
  3151                           	global	_currentlevel
  3152                           psect	text257,local,class=CODE,delta=2
  3153                           global __ptext257
  3154  0301                     __ptext257:
  3155                           
  3156 ;; *************** function _currentlevel *****************
  3157 ;; Defined at:
  3158 ;;		line 141 in file "C:\Users\hardik - admin\Desktop\desktop\royproj_level_pc\main.c"
  3159 ;; Parameters:    Size  Location     Type
  3160 ;;		None
  3161 ;; Auto vars:     Size  Location     Type
  3162 ;;		None
  3163 ;; Return value:  Size  Location     Type
  3164 ;;		None               void
  3165 ;; Registers used:
  3166 ;;		wreg, status,2, status,0
  3167 ;; Tracked objects:
  3168 ;;		On entry : 0/0
  3169 ;;		On exit  : 0/0
  3170 ;;		Unchanged: 0/0
  3171 ;; Data sizes:     COMMON   BANK0   BANK1   BANK3   BANK2
  3172 ;;      Params:         0       0       0       0       0
  3173 ;;      Locals:         0       0       0       0       0
  3174 ;;      Temps:          1       0       0       0       0
  3175 ;;      Totals:         1       0       0       0       0
  3176 ;;Total ram usage:        1 bytes
  3177 ;; Hardware stack levels used:    1
  3178 ;; This function calls:
  3179 ;;		Nothing
  3180 ;; This function is called by:
  3181 ;;		_main
  3182 ;; This function uses a non-reentrant model
  3183 ;;
  3184                           psect	text257
  3185                           	file	"C:\Users\hardik - admin\Desktop\desktop\royproj_level_pc\main.c"
  3186                           	line	141
  3187                           	global	__size_of_currentlevel
  3188  0072                     	__size_of_currentlevel	equ	__end_of_currentlevel-_currentlevel
  3189                           	
  3190  0301                     _currentlevel:	
  3191                           	opt	stack 7
  3192                           ; Regs used in _currentlevel: [wreg+status,2+status,0]
  3193                           	line	143
  3194                           	
  3195  0301                     l2918:	
  3196                           ;main.c: 143: temp=PORTB;
  3197  0301  1283               	bcf	status, 5	;RP0=0, select bank0
  3198  0302  1303               	bcf	status, 6	;RP1=0, select bank0
  3199  0303  0806               	movf	(6),w	;volatile
  3200  0304  00F0               	movwf	(??_currentlevel+0)+0
  3201  0305  0870               	movf	(??_currentlevel+0)+0,w
  3202  0306  00A8               	movwf	(_temp)
  3203                           	line	145
  3204                           ;main.c: 145: if(temp==0xff)
  3205  0307  0828               	movf	(_temp),w
  3206  0308  3AFF               	xorlw	0FFh
  3207  0309  1D03               	skipz
  3208  030A  2B0C               	goto	u2811
  3209  030B  2B0D               	goto	u2810
  3210  030C                     u2811:
  3211  030C  2B12               	goto	l2922
  3212  030D                     u2810:
  3213                           	line	146
  3214                           	
  3215  030D                     l2920:	
  3216                           ;main.c: 146: current=80;
  3217  030D  3050               	movlw	(050h)
  3218  030E  00F0               	movwf	(??_currentlevel+0)+0
  3219  030F  0870               	movf	(??_currentlevel+0)+0,w
  3220  0310  00A1               	movwf	(_current)
  3221  0311  2B72               	goto	l685
  3222                           	line	148
  3223                           	
  3224  0312                     l668:	
  3225                           	
  3226  0312                     l2922:	
  3227                           ;main.c: 148: else if(temp==0x7f)
  3228  0312  0828               	movf	(_temp),w
  3229  0313  3A7F               	xorlw	07Fh
  3230  0314  1D03               	skipz
  3231  0315  2B17               	goto	u2821
  3232  0316  2B18               	goto	u2820
  3233  0317                     u2821:
  3234  0317  2B1D               	goto	l2926
  3235  0318                     u2820:
  3236                           	line	149
  3237                           	
  3238  0318                     l2924:	
  3239                           ;main.c: 149: current=70;
  3240  0318  3046               	movlw	(046h)
  3241  0319  00F0               	movwf	(??_currentlevel+0)+0
  3242  031A  0870               	movf	(??_currentlevel+0)+0,w
  3243  031B  00A1               	movwf	(_current)
  3244  031C  2B72               	goto	l685
  3245                           	line	151
  3246                           	
  3247  031D                     l670:	
  3248                           	
  3249  031D                     l2926:	
  3250                           ;main.c: 151: else if(temp==0x3f)
  3251  031D  0828               	movf	(_temp),w
  3252  031E  3A3F               	xorlw	03Fh
  3253  031F  1D03               	skipz
  3254  0320  2B22               	goto	u2831
  3255  0321  2B23               	goto	u2830
  3256  0322                     u2831:
  3257  0322  2B28               	goto	l2930
  3258  0323                     u2830:
  3259                           	line	152
  3260                           	
  3261  0323                     l2928:	
  3262                           ;main.c: 152: current=60;
  3263  0323  303C               	movlw	(03Ch)
  3264  0324  00F0               	movwf	(??_currentlevel+0)+0
  3265  0325  0870               	movf	(??_currentlevel+0)+0,w
  3266  0326  00A1               	movwf	(_current)
  3267  0327  2B72               	goto	l685
  3268                           	line	154
  3269                           	
  3270  0328                     l672:	
  3271                           	
  3272  0328                     l2930:	
  3273                           ;main.c: 154: else if(temp==0x1F)
  3274  0328  0828               	movf	(_temp),w
  3275  0329  3A1F               	xorlw	01Fh
  3276  032A  1D03               	skipz
  3277  032B  2B2D               	goto	u2841
  3278  032C  2B2E               	goto	u2840
  3279  032D                     u2841:
  3280  032D  2B33               	goto	l2934
  3281  032E                     u2840:
  3282                           	line	155
  3283                           	
  3284  032E                     l2932:	
  3285                           ;main.c: 155: current=50;
  3286  032E  3032               	movlw	(032h)
  3287  032F  00F0               	movwf	(??_currentlevel+0)+0
  3288  0330  0870               	movf	(??_currentlevel+0)+0,w
  3289  0331  00A1               	movwf	(_current)
  3290  0332  2B72               	goto	l685
  3291                           	line	157
  3292                           	
  3293  0333                     l674:	
  3294                           	
  3295  0333                     l2934:	
  3296                           ;main.c: 157: else if(temp==0x0F)
  3297  0333  0828               	movf	(_temp),w
  3298  0334  3A0F               	xorlw	0Fh
  3299  0335  1D03               	skipz
  3300  0336  2B38               	goto	u2851
  3301  0337  2B39               	goto	u2850
  3302  0338                     u2851:
  3303  0338  2B3E               	goto	l2938
  3304  0339                     u2850:
  3305                           	line	158
  3306                           	
  3307  0339                     l2936:	
  3308                           ;main.c: 158: current=40;
  3309  0339  3028               	movlw	(028h)
  3310  033A  00F0               	movwf	(??_currentlevel+0)+0
  3311  033B  0870               	movf	(??_currentlevel+0)+0,w
  3312  033C  00A1               	movwf	(_current)
  3313  033D  2B72               	goto	l685
  3314                           	line	160
  3315                           	
  3316  033E                     l676:	
  3317                           	
  3318  033E                     l2938:	
  3319                           ;main.c: 160: else if(temp==0x07)
  3320  033E  0828               	movf	(_temp),w
  3321  033F  3A07               	xorlw	07h
  3322  0340  1D03               	skipz
  3323  0341  2B43               	goto	u2861
  3324  0342  2B44               	goto	u2860
  3325  0343                     u2861:
  3326  0343  2B49               	goto	l2942
  3327  0344                     u2860:
  3328                           	line	161
  3329                           	
  3330  0344                     l2940:	
  3331                           ;main.c: 161: current=30;
  3332  0344  301E               	movlw	(01Eh)
  3333  0345  00F0               	movwf	(??_currentlevel+0)+0
  3334  0346  0870               	movf	(??_currentlevel+0)+0,w
  3335  0347  00A1               	movwf	(_current)
  3336  0348  2B72               	goto	l685
  3337                           	line	163
  3338                           	
  3339  0349                     l678:	
  3340                           	
  3341  0349                     l2942:	
  3342                           ;main.c: 163: else if(temp==0x03)
  3343  0349  0828               	movf	(_temp),w
  3344  034A  3A03               	xorlw	03h
  3345  034B  1D03               	skipz
  3346  034C  2B4E               	goto	u2871
  3347  034D  2B4F               	goto	u2870
  3348  034E                     u2871:
  3349  034E  2B54               	goto	l2946
  3350  034F                     u2870:
  3351                           	line	164
  3352                           	
  3353  034F                     l2944:	
  3354                           ;main.c: 164: current=20;
  3355  034F  3014               	movlw	(014h)
  3356  0350  00F0               	movwf	(??_currentlevel+0)+0
  3357  0351  0870               	movf	(??_currentlevel+0)+0,w
  3358  0352  00A1               	movwf	(_current)
  3359  0353  2B72               	goto	l685
  3360                           	line	166
  3361                           	
  3362  0354                     l680:	
  3363                           	
  3364  0354                     l2946:	
  3365                           ;main.c: 166: else if(temp==0x01)
  3366  0354  0828               	movf	(_temp),w
  3367  0355  3A01               	xorlw	01h
  3368  0356  1D03               	skipz
  3369  0357  2B59               	goto	u2881
  3370  0358  2B5A               	goto	u2880
  3371  0359                     u2881:
  3372  0359  2B5F               	goto	l2950
  3373  035A                     u2880:
  3374                           	line	167
  3375                           	
  3376  035A                     l2948:	
  3377                           ;main.c: 167: current=10;
  3378  035A  300A               	movlw	(0Ah)
  3379  035B  00F0               	movwf	(??_currentlevel+0)+0
  3380  035C  0870               	movf	(??_currentlevel+0)+0,w
  3381  035D  00A1               	movwf	(_current)
  3382  035E  2B72               	goto	l685
  3383                           	line	169
  3384                           	
  3385  035F                     l682:	
  3386                           	
  3387  035F                     l2950:	
  3388                           ;main.c: 169: else if(temp==0x00)
  3389  035F  08A8               	movf	(_temp),f
  3390  0360  1D03               	skipz
  3391  0361  2B63               	goto	u2891
  3392  0362  2B64               	goto	u2890
  3393  0363                     u2891:
  3394  0363  2B72               	goto	l685
  3395  0364                     u2890:
  3396                           	line	170
  3397                           	
  3398  0364                     l2952:	
  3399                           ;main.c: 170: current=0;
  3400  0364  1003               	clrc
  3401  0365  3000               	movlw	0
  3402  0366  1803               	btfsc	status,0
  3403  0367  3001               	movlw	1
  3404  0368  00A1               	movwf	(_current)
  3405  0369  2B72               	goto	l685
  3406                           	
  3407  036A                     l684:	
  3408  036A  2B72               	goto	l685
  3409                           	line	172
  3410                           	
  3411  036B                     l683:	
  3412  036B  2B72               	goto	l685
  3413                           	
  3414  036C                     l681:	
  3415  036C  2B72               	goto	l685
  3416                           	
  3417  036D                     l679:	
  3418  036D  2B72               	goto	l685
  3419                           	
  3420  036E                     l677:	
  3421  036E  2B72               	goto	l685
  3422                           	
  3423  036F                     l675:	
  3424  036F  2B72               	goto	l685
  3425                           	
  3426  0370                     l673:	
  3427  0370  2B72               	goto	l685
  3428                           	
  3429  0371                     l671:	
  3430  0371  2B72               	goto	l685
  3431                           	
  3432  0372                     l669:	
  3433                           	
  3434  0372                     l685:	
  3435  0372  0008               	return
  3436                           	opt stack 0
  3437                           GLOBAL	__end_of_currentlevel
  3438  0373                     	__end_of_currentlevel:
  3439 ;; =============== function _currentlevel ends ============
  3440                           
  3441                           	signat	_currentlevel,88
  3442                           	global	_SendByteSerially
  3443                           psect	text258,local,class=CODE,delta=2
  3444                           global __ptext258
  3445  01A8                     __ptext258:
  3446                           
  3447 ;; *************** function _SendByteSerially *****************
  3448 ;; Defined at:
  3449 ;;		line 15 in file "C:\Users\hardik - admin\Desktop\desktop\royproj_level_pc\serial.c"
  3450 ;; Parameters:    Size  Location     Type
  3451 ;;  byte            1    wreg     unsigned char 
  3452 ;; Auto vars:     Size  Location     Type
  3453 ;;  byte            1    0[COMMON] unsigned char 
  3454 ;; Return value:  Size  Location     Type
  3455 ;;		None               void
  3456 ;; Registers used:
  3457 ;;		wreg
  3458 ;; Tracked objects:
  3459 ;;		On entry : 0/0
  3460 ;;		On exit  : 0/0
  3461 ;;		Unchanged: 0/0
  3462 ;; Data sizes:     COMMON   BANK0   BANK1   BANK3   BANK2
  3463 ;;      Params:         0       0       0       0       0
  3464 ;;      Locals:         1       0       0       0       0
  3465 ;;      Temps:          0       0       0       0       0
  3466 ;;      Totals:         1       0       0       0       0
  3467 ;;Total ram usage:        1 bytes
  3468 ;; Hardware stack levels used:    1
  3469 ;; This function calls:
  3470 ;;		Nothing
  3471 ;; This function is called by:
  3472 ;;		_main
  3473 ;;		_SeriallyDisplayByte
  3474 ;; This function uses a non-reentrant model
  3475 ;;
  3476                           psect	text258
  3477                           	file	"C:\Users\hardik - admin\Desktop\desktop\royproj_level_pc\serial.c"
  3478                           	line	15
  3479                           	global	__size_of_SendByteSerially
  3480  000C                     	__size_of_SendByteSerially	equ	__end_of_SendByteSerially-_SendByteSerially
  3481                           	
  3482  01A8                     _SendByteSerially:	
  3483                           	opt	stack 6
  3484                           ; Regs used in _SendByteSerially: [wreg]
  3485                           ;SendByteSerially@byte stored from wreg
  3486  01A8  00F0               	movwf	(SendByteSerially@byte)
  3487                           	line	17
  3488                           	
  3489  01A9                     l2914:	
  3490                           ;serial.c: 17: while(!TXIF)
  3491  01A9  29AA               	goto	l1251
  3492                           	
  3493  01AA                     l1252:	
  3494                           	line	18
  3495                           ;serial.c: 18: continue;
  3496                           	
  3497  01AA                     l1251:	
  3498                           	line	17
  3499  01AA  1283               	bcf	status, 5	;RP0=0, select bank0
  3500  01AB  1303               	bcf	status, 6	;RP1=0, select bank0
  3501  01AC  1E0C               	btfss	(100/8),(100)&7
  3502  01AD  29AF               	goto	u2801
  3503  01AE  29B0               	goto	u2800
  3504  01AF                     u2801:
  3505  01AF  29AA               	goto	l1251
  3506  01B0                     u2800:
  3507  01B0  29B1               	goto	l2916
  3508                           	
  3509  01B1                     l1253:	
  3510                           	line	19
  3511                           	
  3512  01B1                     l2916:	
  3513                           ;serial.c: 19: TXREG = byte;
  3514  01B1  0870               	movf	(SendByteSerially@byte),w
  3515  01B2  0099               	movwf	(25)	;volatile
  3516                           	line	20
  3517                           	
  3518  01B3                     l1254:	
  3519  01B3  0008               	return
  3520                           	opt stack 0
  3521                           GLOBAL	__end_of_SendByteSerially
  3522  01B4                     	__end_of_SendByteSerially:
  3523 ;; =============== function _SendByteSerially ends ============
  3524                           
  3525                           	signat	_SendByteSerially,4216
  3526                           	global	_Delay
  3527                           psect	text259,local,class=CODE,delta=2
  3528                           global __ptext259
  3529  020B                     __ptext259:
  3530                           
  3531 ;; *************** function _Delay *****************
  3532 ;; Defined at:
  3533 ;;		line 4 in file "C:\Users\hardik - admin\Desktop\desktop\royproj_level_pc\delay.c"
  3534 ;; Parameters:    Size  Location     Type
  3535 ;;  time            2    0[COMMON] unsigned int 
  3536 ;; Auto vars:     Size  Location     Type
  3537 ;;  pause           1    3[COMMON] unsigned char 
  3538 ;; Return value:  Size  Location     Type
  3539 ;;		None               void
  3540 ;; Registers used:
  3541 ;;		wreg, status,2, status,0
  3542 ;; Tracked objects:
  3543 ;;		On entry : 0/0
  3544 ;;		On exit  : 0/0
  3545 ;;		Unchanged: 0/0
  3546 ;; Data sizes:     COMMON   BANK0   BANK1   BANK3   BANK2
  3547 ;;      Params:         2       0       0       0       0
  3548 ;;      Locals:         1       0       0       0       0
  3549 ;;      Temps:          1       0       0       0       0
  3550 ;;      Totals:         4       0       0       0       0
  3551 ;;Total ram usage:        4 bytes
  3552 ;; Hardware stack levels used:    1
  3553 ;; This function calls:
  3554 ;;		Nothing
  3555 ;; This function is called by:
  3556 ;;		_main
  3557 ;;		_SeriallyDisplayByte
  3558 ;; This function uses a non-reentrant model
  3559 ;;
  3560                           psect	text259
  3561                           	file	"C:\Users\hardik - admin\Desktop\desktop\royproj_level_pc\delay.c"
  3562                           	line	4
  3563                           	global	__size_of_Delay
  3564  001F                     	__size_of_Delay	equ	__end_of_Delay-_Delay
  3565                           	
  3566  020B                     _Delay:	
  3567                           	opt	stack 7
  3568                           ; Regs used in _Delay: [wreg+status,2+status,0]
  3569                           	line	6
  3570                           	
  3571  020B                     l2904:	
  3572                           ;delay.c: 5: unsigned char pause;
  3573                           ;delay.c: 6: while( time > 0)
  3574  020B  2A22               	goto	l2912
  3575                           	
  3576  020C                     l4:	
  3577                           	line	8
  3578                           	
  3579  020C                     l2906:	
  3580                           ;delay.c: 7: {
  3581                           ;delay.c: 8: pause = 255;
  3582  020C  30FF               	movlw	(0FFh)
  3583  020D  00F2               	movwf	(??_Delay+0)+0
  3584  020E  0872               	movf	(??_Delay+0)+0,w
  3585  020F  00F3               	movwf	(Delay@pause)
  3586                           	line	9
  3587                           ;delay.c: 9: while(pause--);
  3588  0210  2A12               	goto	l2908
  3589                           	
  3590  0211                     l6:	
  3591  0211  2A12               	goto	l2908
  3592                           	
  3593  0212                     l5:	
  3594                           	
  3595  0212                     l2908:	
  3596  0212  3001               	movlw	low(01h)
  3597  0213  02F3               	subwf	(Delay@pause),f
  3598  0214  0873               	movf	((Delay@pause)),w
  3599  0215  3AFF               	xorlw	0FFh
  3600  0216  1D03               	skipz
  3601  0217  2A19               	goto	u2781
  3602  0218  2A1A               	goto	u2780
  3603  0219                     u2781:
  3604  0219  2A12               	goto	l2908
  3605  021A                     u2780:
  3606  021A  2A1B               	goto	l2910
  3607                           	
  3608  021B                     l7:	
  3609                           	line	10
  3610                           	
  3611  021B                     l2910:	
  3612                           ;delay.c: 10: time--;
  3613  021B  3001               	movlw	low(01h)
  3614  021C  02F0               	subwf	(Delay@time),f
  3615  021D  3000               	movlw	high(01h)
  3616  021E  1C03               	skipc
  3617  021F  03F1               	decf	(Delay@time+1),f
  3618  0220  02F1               	subwf	(Delay@time+1),f
  3619  0221  2A22               	goto	l2912
  3620                           	line	11
  3621                           	
  3622  0222                     l3:	
  3623                           	line	6
  3624                           	
  3625  0222                     l2912:	
  3626  0222  0871               	movf	((Delay@time+1)),w
  3627  0223  0470               	iorwf	((Delay@time)),w
  3628  0224  1D03               	skipz
  3629  0225  2A27               	goto	u2791
  3630  0226  2A28               	goto	u2790
  3631  0227                     u2791:
  3632  0227  2A0C               	goto	l2906
  3633  0228                     u2790:
  3634  0228  2A29               	goto	l9
  3635                           	
  3636  0229                     l8:	
  3637                           	line	12
  3638                           	
  3639  0229                     l9:	
  3640  0229  0008               	return
  3641                           	opt stack 0
  3642                           GLOBAL	__end_of_Delay
  3643  022A                     	__end_of_Delay:
  3644 ;; =============== function _Delay ends ============
  3645                           
  3646                           	signat	_Delay,4216
  3647                           psect	text260,local,class=CODE,delta=2
  3648                           global __ptext260
  3649  0000                     __ptext260:
  3650                           	global	btemp
  3651  007E                     	btemp set 07Eh
  3652                           
  3653                           	DABS	1,126,2	;btemp
  3654                           	global	wtemp0
  3655  007E                     	wtemp0 set btemp


HI-TECH Software PICC Macro Assembler V9.80 build 6738 
Symbol Table                                                                                   Sun Mar 10 18:44:59 2013

                                     l3 0222                                       l4 020C  
                                     l5 0212                                       l6 0211  
                                     l7 021B                                       l8 0229  
                                     l9 0229                                       _i 0024  
                                     _j 0025                                       _k 0026  
                                     pc 0002                          ___bmul@product 0072  
                                    _AT 00A0                            ___awdiv@sign 0059  
                                    _sp 0027                                      fsr 0004  
                                   l610 050E                                     l611 0525  
                                   l620 0614                                     l612 0551  
                                   l621 0628                                     l613 0568  
                                   l630 06B7                                     l622 063F  
                                   l614 0589                                     l623 0703  
                                   l631 06FF                                     l615 05A0  
                                   l640 07BF                                     l632 06C8  
                                   l624 0684                                     l616 05B1  
                                   l641 0740                                     l625 0702  
                                   l633 06FE                                     l617 05CE  
                                   l642 07BE                                     l650 07BA  
                                   l634 06D9                                     l626 0695  
                                   l618 05DB                                     l651 0795  
                                   l643 0751                                     l627 0701  
                                   l635 06FD                                     l619 05F2  
                                   l660 07FD                                     l644 07BD  
                                   l652 07B9                                     l636 06EA  
                                   l628 06A6                                     _AT0 003D  
                                   l661 07FC                                     l653 07A6  
                                   l645 0762                                     l629 0700  
                                   l637 06FC                                     _AT1 00BE  
                                   l670 031D                                     l662 07FD  
                                   l646 07BC                                     l654 07B8  
                                   l638 06FB                                     _AT2 004C  
                                   l671 0371                                     l639 07FB  
                                   l655 07B7                                     l647 0773  
                                   _AT3 00D2                                     l680 0354  
                                   l672 0328                                     l656 07FA  
                                   l648 07BB                                     l673 0370  
                                   l681 036C                                     l665 0194  
                                   l657 07F9                                     l649 0784  
                                   l682 035F                                     l674 0333  
                                   l658 07D5                                     l675 036F  
                                   l683 036B                                     l659 07EC  
                                   l684 036A                                     l676 033E  
                                   l668 0312                                     l669 0372  
                                   l677 036E                                     l685 0372  
                                   l678 0349                                     l679 036D  
                                   fsr0 0004                                     indf 0000  
                          ___awmod@sign 0076                SeriallyDisplayByte@Value 005C  
                                  l3000 03B4                                    l3002 03C5  
                                  l3010 03DC                                    l1251 01AA  
                                  l1252 01AA                                    l1260 01A7  
                                  l3012 03E0                                    l1420 03DC  
                                  l3004 03CB                                    l3020 029C  
                                  l3100 0542                                    l1253 01B1  
                                  l1421 03AE                                    l1254 01B3  
                                  l3014 03E6                                    l3006 03CD  
                                  l1422 03A2                                    l3030 02B9  
                                  l3022 02A0                                    l3110 0561  
                                  l3102 0549                                    l1423 03B3  
                                  l1263 040E                                    l1248 01C1  
                                  l1272 01F5                                    l3016 03ED  
                                  l3008 03D4                                    l1424 03B4  
                                  l3040 02D9                                    l3032 02BD  
                                  l3024 02A9                                    l1264 0427  
                                  l3200 06CF                                    l3120 0589  
                                  l3104 0550                                    l3112 0568  
                                  l1257 019E                                    l1273 01FE  
                                  l1425 03CD                                    l1265 0497  
                                  l1258 019E                                    l1274 0208  
                                  l1426 03DB                                    l1418 0387  
                                  l3050 02F9                                    l3042 02E0  
                                  l3034 02C4                                    l3026 02AD  
                                  l3018 0297                                    l1266 046D  
                                  l3210 06EA                                    l3202 06D6  
                                  l3130 05B1                                    l3122 0593  
                                  l3114 057A                                    l3106 0551  
                                  l1259 01A5                                    l1275 020A  
                                  l1427 03E6                                    l1419 0394  
                                  l1267 0496                                    l1428 03ED  
                                  l3052 0300                                    l3044 02E7  
                                  l3036 02C9                                    l3028 02B3  
                                  l1268 04BF                                    l3060 040E  
                                  l3220 072F                                    l3212 06F1  
                                  l3204 06D9                                    l3140 05DA  
                                  l3132 05BF                                    l3124 0599  
                                  l3116 0581                                    l3108 055B  
                                  l1269 04F3                                    l3038 02CF  
                                  l3046 02EF                                    l3054 018F  
                                  l3070 04D8                                    l3062 044E  
                                  l3230 074E                                    l3222 0736  
                                  l3214 06F8                                    l3206 06E0  
                                  l3150 0619                                    l3142 05DB  
                                  l3134 05C3                                    l3118 0588  
                                  l3126 05A0                                    l3048 02F3  
                                  l3072 04DE                                    l3064 0466  
                                  l3056 03F1                                    l3240 0769  
                                  l3232 0751                                    l3224 073D  
                                  l3208 06E7                                    l3216 0703  
                                  l3160 0638                                    l3152 0620  
                                  l3144 05E5                                    l3136 05CE  
                                  l3128 05A9                                    l3080 04F8  
                                  l1490 02BD                                    l3074 04E4  
                                  l3066 046D                                    l3058 0407  
                                  l3250 0784                                    l3242 0770  
                                  l3234 0758                                    l3226 0740  
                                  l3218 0727                                    l3170 067A  
                                  l3154 0627                                    l3162 063F  
                                  l3146 05EB                                    l3138 05D3  
                                  l3090 050D                                    l3082 04F9  
                                  l1491 02CE                                    l1492 02CF  
                                  l3076 04EA                                    l3068 0497  
                                  l3260 07A3                                    l3252 078B  
                                  l3244 0773                                    l3236 075F  
                                  l3228 0747                                    l3180 0695  
                                  l3172 0681                                    l3164 0651  
                                  l3156 0628                                    l3148 05F2  
                                  l3092 050E                                    l3084 04FA  
                                  l1493 02E0                                    l1494 02EE  
                                  l1486 02A9                                    l3270 07C7  
                                  l3262 07A6                                    l3254 0792  
                                  l3246 077A                                    l3238 0762  
                                  l3190 06B4                                    l3182 069C  
                                  l3174 0684                                    l3166 066D  
                                  l3158 0632                                    l3094 0518  
                                  l3086 04FF                                    l3078 04F4  
                                  l1495 02F9                                    l1487 02B3  
                                  l1496 0300                                    l1488 02EF  
                                  l3280 07DF                                    l3272 07C8  
                                  l3264 07AD                                    l3256 0795  
                                  l3248 0781                                    l3192 06B7  
                                  l3184 06A3                                    l3176 068B  
                                  l3168 0673                                    l3096 051E  
                                  l3088 0506                                    l1489 02C9  
                                  l3282 07E5                                    l3274 07CD  
                                  l3266 07B4                                    l3258 079C  
                                  l3194 06BE                                    l3186 06A6  
                                  l3178 0692                                    l3098 0525  
                                  l3276 07D4                                    l3284 07EC  
                                  l3268 07BF                                    l3196 06C5  
                                  l3188 06AD                                    l2910 021B  
                                  l3278 07D5                                    l3198 06C8  
                                  l2912 0222                                    l2904 020B  
                                  l2920 030D                                    l2906 020C  
                                  l2914 01A9                                    l2930 0328  
                                  l2922 0312                                    l2908 0212  
                                  l2916 01B1                                    l2940 0344  
                                  l2932 032E                                    l2924 0318  
                                  l2950 035F                                    l2942 0349  
                                  l2934 0333                                    l2926 031D  
                                  l2918 0301                                    l2952 0364  
                                  l2944 034F                                    l2936 0339  
                                  l2928 0323                                    l2960 01B4  
                                  l2946 0354                                    l2938 033E  
                                  l2954 019D                                    l2962 01C0  
                                  l2970 01FE                                    l2948 035A  
                                  l2956 01A5                                    l2972 0200  
                                  l2964 01EF                                    l2980 0373  
                                  l2958 01A7                                    l2974 0202  
                                  l2966 01F5                                    l2990 0390  
                                  l2982 037A                                    l2976 0208  
                                  l2968 01F9                                    l2992 039E  
                                  l2984 037E                                    l2978 020A  
                                  l2994 03A2                                    l2986 0387  
                                  l2996 03A9                                    l2988 038B  
                                  l2998 03AE                                    u3010 03DA  
                                  u3011 03D9                                    u3020 03E0  
                                  u3100 02ED                                    u3005 03CE  
                                  u3101 02EC                                    u3110 02F3  
                                  u3030 02A0                                    u3031 029F  
                                  u3040 02AD                                    u3120 0407  
                                  u3200 059F                                    u3041 02AC  
                                  u3121 0406                                    u3201 059E  
                                  u3050 02B9                                    u3130 044E  
                                  u3210 05CD                                    u3051 02B8  
                                  u3131 044D                                    u3211 05CC  
                                  u3140 0466                                    u3300 0692  
                                  u3220 05D9                                    u3141 0465  
                                  u3301 0691                                    u3221 05D8  
                                  u3070 02CD                                    u3310 069C  
                                  u3230 05F1                                    u3150 050C  
                                  u3071 02CC                                    u3311 069B  
                                  u3231 05F0                                    u3151 050B  
                                  u3080 02D9                                    u3400 06E7  
                                  u3320 06A3                                    u3240 0626  
                                  u3160 0524                                    u3081 02D8  
                                  u3065 02BE                                    u3401 06E6  
                                  u3321 06A2                                    u3241 0625  
                                  u3161 0523                                    u3410 06F1  
                                  u3330 06AD                                    u3250 063E  
                                  u3170 054F                                    u3411 06F0  
                                  u3331 06AC                                    u3251 063D  
                                  u3171 054E                                    u3500 0769  
                                  u3420 06F8                                    u3340 06B4  
                                  u3260 066D                                    u3180 0567  
                                  u3085 02D5                                    u3501 0768  
                                  u3421 06F7                                    u3341 06B3  
                                  u3261 066C                                    u3181 0566  
                                  u3510 0770                                    u3430 0727  
                                  u3350 06BE                                    u3270 067A  
                                  u3190 0587                                    u3095 02E1  
                                  u3511 076F                                    u3431 0726  
                                  u3351 06BD                                    u3271 0679  
                                  u3191 0586                                    u2800 01B0  
                                  u3600 07C7                                    u3520 077A  
                                  u3440 0736                                    u3360 06C5  
                                  u3280 0681                                    u2801 01AF  
                                  u3601 07C6                                    u3521 0779  
                                  u3441 0735                                    u3361 06C4  
                                  u3281 0680                                    u2810 030D  
                                  u3610 07D3                                    u3530 0781  
                                  u3450 073D                                    u3370 06CF  
                                  u3290 068B                                    u2811 030C  
                                  u3611 07D2                                    u3531 0780  
                                  u3451 073C                                    u3435 0723  
                                  u3371 06CE                                    u3291 068A  
                                  u2820 0318                                    u2900 01A4  
                                  u3620 07EB                                    u3540 078B  
                                  u3460 0747                                    u3380 06D6  
                                  u2821 0317                                    u2901 01A3  
                                  u3621 07EA                                    u3541 078A  
                                  u3461 0746                                    u3381 06D5  
                                  u2830 0323                                    u2910 01F9  
                                  u3550 0792                                    u3470 074E  
                                  u3390 06E0                                    u2831 0322  
                                  u2911 01F8                                    u3551 0791  
                                  u3471 074D                                    u3391 06DF  
                                  u2840 032E                                    u2920 0207  
                                  u3560 079C                                    u3480 0758  
                                  u2841 032D                                    u2921 0206  
                                  u3561 079B                                    u3481 0757  
                                  u2850 0339                                    u2930 037E  
                                  u3570 07A3                                    u3490 075F  
                                  u2851 0338                                    u2931 037D  
                                  u3571 07A2                                    u3491 075E  
                                  u2780 021A                                    u2860 0344  
                                  u2940 038B                                    u3580 07AD  
                                  u2781 0219                                    u2861 0343  
                                  u2941 038A                                    u3581 07AC  
                                  u2790 0228                                    u2870 034F  
                                  u2950 039E                                    u3590 07B4  
                                  u2791 0227                                    u2871 034E  
                                  u2951 039D                                    u3591 07B3  
                                  u2880 035A                                    u2881 0359  
                                  u2890 0364                                    u2970 03B2  
                                  u2891 0363                                    u2971 03B1  
                                  _RCIF 0065                                    u2965 03A3  
                                  u2990 03C5                                    u2991 03C4  
                                  u2985 03B5                                    u2995 03C1  
                                  _RBPU 040F                                    _TXIF 0064  
                                  _SYNC 04C4                    _MainSystemInitialize 018F  
                                  _main 04F4                                    _temp 0028  
                                  btemp 007E                                    start 0000  
                     ___bmul@multiplier 0073                                   ?_main 0070  
                       __end_of___awdiv 03EE                         __end_of___awmod 0301  
                       ___awdiv@divisor 0077                         ___awdiv@counter 0058  
                                 _RCREG 001A                                   _RCSTA 0018  
                                 _SPBRG 0099                                   _PORTB 0006  
                                 _PORTD 0008                                   _TRISB 0086  
                                 _TRISD 0088                                   _TXREG 0019  
                                 _TXSTA 0098                                   _Delay 020B  
                                 _Count 0020                                   _flag1 0023  
                                 _error 0022                                   pclath 000A  
                 ?_MainSystemInitialize 0070                                   status 0003  
                                 wtemp0 007E                            __end_of_main 0800  
        ?_InitializeSerialCommunication 0070                                  ??_main 005D  
                                ?_Delay 0070                        ___awdiv@dividend 0079  
                         ?_currentlevel 0070                                  ___bmul 01EE  
                             ??___awdiv 007B                               ??___awmod 0074  
                      ___awdiv@quotient 005A                         ___awmod@divisor 0070  
                       ___awmod@counter 0075                                  clrloop 0196  
              __end_of_SendByteSerially 01B4                  ??_MainSystemInitialize 0070  
                        ??_currentlevel 0070                     ___bmul@multiplicand 0070  
           __end_of_ReceiveByteSerially 01A8                           __end_of_Delay 022A  
                        __pcstackCOMMON 0070                            __pidataBANK0 01D3  
                          __pidataBANK1 0251                    SendByteSerially@byte 0070  
                               ??_Delay 0072                              __pbssBANK0 0020  
          __size_of_SeriallyDisplayByte 0106                              __pmaintext 04F4  
                               ?___bmul 0070                         __size_of___bmul 001D  
                               ___awdiv 0373                                 ___awmod 0297  
                  __end_of_currentlevel 0373                                 _current 0021  
                      ___awmod@dividend 0072                    end_of_initialization 024D  
                             Delay@time 0070         ??_InitializeSerialCommunication 0070  
                               init_ram 01C6                       ?_SendByteSerially 0070  
                    ??_SendByteSerially 0070                          __end_of___bmul 020B  
                   _SeriallyDisplayByte 03EE                     start_initialization 022A  
                  ?_SeriallyDisplayByte 0070           __size_of_MainSystemInitialize 0006  
 __end_of_InitializeSerialCommunication 01C2  __size_of_InitializeSerialCommunication 000E  
         _InitializeSerialCommunication 01B4                                ??___bmul 0071  
                 __size_of_currentlevel 0072                             __pdataBANK0 003D  
                           __pdataBANK1 00A0            __size_of_ReceiveByteSerially 000B  
                         __pcstackBANK0 0058                   ??_SeriallyDisplayByte 007C  
                          _currentlevel 0301                                ?___awdiv 0077  
                             __ptext250 03EE                               __ptext251 018F  
                             __ptext260 0000                               __ptext252 0297  
                             __ptext253 0373                               __ptext254 01EE  
                             __ptext255 01B4                               __ptext256 019D  
                             __ptext257 0301                               __ptext258 01A8  
                             __ptext259 020B                                ?___awmod 0070  
                        __size_of_Delay 001F                               _receivesp 0029  
             __size_of_SendByteSerially 000C                               init_fetch 01C2  
                      __size_of___awdiv 007B                        __size_of___awmod 006A  
                   _ReceiveByteSerially 019D                           __size_of_main 030C  
                              clear_ram 0195            __end_of_MainSystemInitialize 0195  
                  ?_ReceiveByteSerially 0070                              Delay@pause 0073  
                 ??_ReceiveByteSerially 0070             __end_of_SeriallyDisplayByte 04F4  
                      _SendByteSerially 01A8  
