

HI-TECH Software PIC LITE Macro Assembler V9.80 build 6738 
                                                                                               Thu Jun 28 19:50:29 2012

HI-TECH Software Omniscient Code Generator (Lite mode) build 6738
     1  0000                     opt subtitle "HI-TECH Software Omniscient Code Generator (Lite mode) build 6738"
     2                           
     3                           opt pagewidth 120
     4                           
     5                           	opt lm
     6                           
     7                           	processor	16F877A
     8                           clrc	macro
     9                           	bcf	3,0
    10  0000                     	endm
    11                           clrz	macro
    12                           	bcf	3,2
    13  0000                     	endm
    14                           setc	macro
    15                           	bsf	3,0
    16  0000                     	endm
    17                           setz	macro
    18                           	bsf	3,2
    19  0000                     	endm
    20                           skipc	macro
    21                           	btfss	3,0
    22  0000                     	endm
    23                           skipz	macro
    24                           	btfss	3,2
    25  0000                     	endm
    26                           skipnc	macro
    27                           	btfsc	3,0
    28  0000                     	endm
    29                           skipnz	macro
    30                           	btfsc	3,2
    31  0000                     	endm
    32  0000                     indf	equ	0
    33  0000                     indf0	equ	0
    34  0002                     pc	equ	2
    35  0002                     pcl	equ	2
    36  0003                     status	equ	3
    37  0004                     fsr	equ	4
    38  0004                     fsr0	equ	4
    39  0001                     c	equ	1
    40  0000                     z	equ	0
    41  000A                     pclath	equ	10
    42                           # 16 "C:\Users\X4ROY\Desktop\URE\LCD Interfacing\main.h"
    43                           	psect config,class=CONFIG,delta=2 ;#
    44                           # 16 "C:\Users\X4ROY\Desktop\URE\LCD Interfacing\main.h"
    45  2007  2F0A               	dw 0x2F0A ;#
    46                           	FNCALL	_main,_MainSystemInitialize
    47                           	FNCALL	_main,_ADCReadData
    48                           	FNCALL	_main,_LCDWriteCommand
    49                           	FNCALL	_main,_LCDWriteFloat
    50                           	FNCALL	_main,_LCDWriteString
    51                           	FNCALL	_MainSystemInitialize,_ADCInitialize
    52                           	FNCALL	_MainSystemInitialize,_LCDInitialize
    53                           	FNCALL	_LCDWriteFloat,___ftge
    54                           	FNCALL	_LCDWriteFloat,_LCDWriteData
    55                           	FNCALL	_LCDWriteFloat,___ftneg
    56                           	FNCALL	_LCDWriteFloat,___fttol
    57                           	FNCALL	_LCDWriteFloat,_LCDWriteInteger
    58                           	FNCALL	_LCDWriteFloat,___awtoft
    59                           	FNCALL	_LCDWriteFloat,___ftadd
    60                           	FNCALL	_LCDWriteFloat,___ftmul
    61                           	FNCALL	_LCDWriteFloat,___awmod
    62                           	FNCALL	_LCDWriteFloat,___awdiv
    63                           	FNCALL	_LCDWriteFloat,_LCDWriteCommand
    64                           	FNCALL	_LCDWriteFloat,_LCDWriteString
    65                           	FNCALL	_LCDInitialize,_LCDReset
    66                           	FNCALL	_LCDInitialize,_LCDWriteCommand
    67                           	FNCALL	_LCDWriteInteger,_LCDWriteData
    68                           	FNCALL	_LCDWriteInteger,___awmod
    69                           	FNCALL	_LCDWriteInteger,___awdiv
    70                           	FNCALL	_LCDReset,_LCDWriteCommand
    71                           	FNCALL	_LCDWriteString,_LCDWriteData
    72                           	FNCALL	_LCDWriteData,_LCDWriteByte
    73                           	FNCALL	_LCDWriteCommand,_LCDWriteByte
    74                           	FNCALL	_ADCReadData,_Delay
    75                           	FNCALL	_ADCReadData,___wmul
    76                           	FNCALL	_ADCReadData,___lwtoft
    77                           	FNCALL	_ADCReadData,___ftmul
    78                           	FNCALL	_ADCReadData,___ftdiv
    79                           	FNCALL	_LCDWriteByte,_LCDEnable
    80                           	FNCALL	_LCDWriteByte,_Delay
    81                           	FNCALL	___lwtoft,___ftpack
    82                           	FNCALL	___awtoft,___ftpack
    83                           	FNCALL	___ftmul,___ftpack
    84                           	FNCALL	___ftdiv,___ftpack
    85                           	FNCALL	___ftadd,___ftpack
    86                           	FNCALL	_LCDEnable,_Delay
    87                           	FNROOT	_main
    88                           	global	_AT2
    89                           	global	_AT3
    90                           	global	_TH_Err
    91                           	global	_TL_Err
    92                           	global	_HYS_Err
    93                           	global	_AT1
    94                           	global	_AT
    95                           	global	_AT0
    96                           psect	idataBANK0,class=CODE,space=0,delta=2
    97                           global __pidataBANK0
    98  0CA9                     __pidataBANK0:
    99                           	file	"C:\Users\X4ROY\Desktop\URE\LCD Interfacing\main.h"
   100                           	line	31
   101                           
   102                           ;initializer for _AT2
   103  0CA9  3454               	retlw	054h
   104  0CAA  342D               	retlw	02Dh
   105  0CAB  3448               	retlw	048h
   106  0CAC  3469               	retlw	069h
   107  0CAD  3467               	retlw	067h
   108  0CAE  3468               	retlw	068h
   109  0CAF  3420               	retlw	020h
   110  0CB0  343A               	retlw	03Ah
   111                           	line	32
   112                           
   113                           ;initializer for _AT3
   114  0CB1  3454               	retlw	054h
   115  0CB2  342D               	retlw	02Dh
   116  0CB3  344C               	retlw	04Ch
   117  0CB4  346F               	retlw	06Fh
   118  0CB5  3477               	retlw	077h
   119  0CB6  3420               	retlw	020h
   120  0CB7  343A               	retlw	03Ah
   121                           psect	idataBANK2,class=CODE,space=0,delta=2
   122                           global __pidataBANK2
   123  0D59                     __pidataBANK2:
   124                           	line	34
   125                           
   126                           ;initializer for _TH_Err
   127  0D59  3454               	retlw	054h
   128  0D5A  3465               	retlw	065h
   129  0D5B  346D               	retlw	06Dh
   130  0D5C  3470               	retlw	070h
   131  0D5D  3465               	retlw	065h
   132  0D5E  3472               	retlw	072h
   133  0D5F  3461               	retlw	061h
   134  0D60  3474               	retlw	074h
   135  0D61  3475               	retlw	075h
   136  0D62  3472               	retlw	072h
   137  0D63  3465               	retlw	065h
   138  0D64  3420               	retlw	020h
   139  0D65  3475               	retlw	075h
   140  0D66  3470               	retlw	070h
   141  0D67  3470               	retlw	070h
   142  0D68  3465               	retlw	065h
   143  0D69  3472               	retlw	072h
   144  0D6A  3420               	retlw	020h
   145  0D6B  346C               	retlw	06Ch
   146  0D6C  3469               	retlw	069h
   147  0D6D  346D               	retlw	06Dh
   148  0D6E  3469               	retlw	069h
   149  0D6F  3474               	retlw	074h
   150  0D70  3420               	retlw	020h
   151  0D71  3469               	retlw	069h
   152  0D72  3473               	retlw	073h
   153  0D73  3420               	retlw	020h
   154  0D74  3474               	retlw	074h
   155  0D75  346F               	retlw	06Fh
   156  0D76  346F               	retlw	06Fh
   157  0D77  3420               	retlw	020h
   158  0D78  3468               	retlw	068h
   159  0D79  3469               	retlw	069h
   160  0D7A  3467               	retlw	067h
   161  0D7B  3468               	retlw	068h
   162                           psect	idataBANK3,class=CODE,space=0,delta=2
   163                           global __pidataBANK3
   164  0E6F                     __pidataBANK3:
   165                           	line	35
   166                           
   167                           ;initializer for _TL_Err
   168  0E6F  3454               	retlw	054h
   169  0E70  3465               	retlw	065h
   170  0E71  346D               	retlw	06Dh
   171  0E72  3470               	retlw	070h
   172  0E73  3465               	retlw	065h
   173  0E74  3472               	retlw	072h
   174  0E75  3461               	retlw	061h
   175  0E76  3474               	retlw	074h
   176  0E77  3475               	retlw	075h
   177  0E78  3472               	retlw	072h
   178  0E79  3465               	retlw	065h
   179  0E7A  3420               	retlw	020h
   180  0E7B  346C               	retlw	06Ch
   181  0E7C  346F               	retlw	06Fh
   182  0E7D  3477               	retlw	077h
   183  0E7E  3465               	retlw	065h
   184  0E7F  3472               	retlw	072h
   185  0E80  3420               	retlw	020h
   186  0E81  346C               	retlw	06Ch
   187  0E82  3469               	retlw	069h
   188  0E83  346D               	retlw	06Dh
   189  0E84  3469               	retlw	069h
   190  0E85  3474               	retlw	074h
   191  0E86  3420               	retlw	020h
   192  0E87  3469               	retlw	069h
   193  0E88  3473               	retlw	073h
   194  0E89  3420               	retlw	020h
   195  0E8A  3474               	retlw	074h
   196  0E8B  346F               	retlw	06Fh
   197  0E8C  346F               	retlw	06Fh
   198  0E8D  3420               	retlw	020h
   199  0E8E  346C               	retlw	06Ch
   200  0E8F  346F               	retlw	06Fh
   201  0E90  3477               	retlw	077h
   202                           	line	33
   203                           
   204                           ;initializer for _HYS_Err
   205  0E91  3454               	retlw	054h
   206  0E92  3465               	retlw	065h
   207  0E93  346D               	retlw	06Dh
   208  0E94  3470               	retlw	070h
   209  0E95  3465               	retlw	065h
   210  0E96  3472               	retlw	072h
   211  0E97  3461               	retlw	061h
   212  0E98  3474               	retlw	074h
   213  0E99  3475               	retlw	075h
   214  0E9A  3472               	retlw	072h
   215  0E9B  3465               	retlw	065h
   216  0E9C  3420               	retlw	020h
   217  0E9D  346C               	retlw	06Ch
   218  0E9E  3469               	retlw	069h
   219  0E9F  346D               	retlw	06Dh
   220  0EA0  3469               	retlw	069h
   221  0EA1  3474               	retlw	074h
   222  0EA2  3473               	retlw	073h
   223  0EA3  3420               	retlw	020h
   224  0EA4  3461               	retlw	061h
   225  0EA5  3472               	retlw	072h
   226  0EA6  3465               	retlw	065h
   227  0EA7  3420               	retlw	020h
   228  0EA8  3474               	retlw	074h
   229  0EA9  346F               	retlw	06Fh
   230  0EAA  346F               	retlw	06Fh
   231  0EAB  3420               	retlw	020h
   232  0EAC  3463               	retlw	063h
   233  0EAD  346C               	retlw	06Ch
   234  0EAE  346F               	retlw	06Fh
   235  0EAF  3473               	retlw	073h
   236  0EB0  3465               	retlw	065h
   237                           psect	idataBANK1,class=CODE,space=0,delta=2
   238                           global __pidataBANK1
   239  0009                     __pidataBANK1:
   240                           	line	30
   241                           
   242                           ;initializer for _AT1
   243  0009  3450               	retlw	050h
   244  000A  346C               	retlw	06Ch
   245  000B  3465               	retlw	065h
   246  000C  3461               	retlw	061h
   247  000D  3473               	retlw	073h
   248  000E  3465               	retlw	065h
   249  000F  3420               	retlw	020h
   250  0010  3445               	retlw	045h
   251  0011  346E               	retlw	06Eh
   252  0012  3474               	retlw	074h
   253  0013  3465               	retlw	065h
   254  0014  3472               	retlw	072h
   255  0015  3420               	retlw	020h
   256  0016  3454               	retlw	054h
   257  0017  3465               	retlw	065h
   258  0018  346D               	retlw	06Dh
   259  0019  3470               	retlw	070h
   260  001A  3465               	retlw	065h
   261  001B  3472               	retlw	072h
   262  001C  3461               	retlw	061h
   263  001D  3474               	retlw	074h
   264  001E  3475               	retlw	075h
   265  001F  3472               	retlw	072h
   266  0020  3465               	retlw	065h
   267  0021  3420               	retlw	020h
   268  0022  344C               	retlw	04Ch
   269  0023  3469               	retlw	069h
   270  0024  346D               	retlw	06Dh
   271  0025  3469               	retlw	069h
   272  0026  3474               	retlw	074h
   273  0027  3473               	retlw	073h
   274                           	line	28
   275                           
   276                           ;initializer for _AT
   277  0028  3454               	retlw	054h
   278  0029  3445               	retlw	045h
   279  002A  344D               	retlw	04Dh
   280  002B  3450               	retlw	050h
   281  002C  3445               	retlw	045h
   282  002D  3452               	retlw	052h
   283  002E  3441               	retlw	041h
   284  002F  3454               	retlw	054h
   285  0030  3455               	retlw	055h
   286  0031  3452               	retlw	052h
   287  0032  3445               	retlw	045h
   288  0033  3420               	retlw	020h
   289  0034  3443               	retlw	043h
   290  0035  344F               	retlw	04Fh
   291  0036  344E               	retlw	04Eh
   292  0037  3454               	retlw	054h
   293  0038  3452               	retlw	052h
   294  0039  344F               	retlw	04Fh
   295  003A  344C               	retlw	04Ch
   296  003B  344C               	retlw	04Ch
   297  003C  3445               	retlw	045h
   298  003D  3452               	retlw	052h
   299  003E  3420               	retlw	020h
   300  003F  344B               	retlw	04Bh
   301  0040  3449               	retlw	049h
   302  0041  3454               	retlw	054h
   303                           	line	29
   304                           
   305                           ;initializer for _AT0
   306  0042  3452               	retlw	052h
   307  0043  346F               	retlw	06Fh
   308  0044  346F               	retlw	06Fh
   309  0045  346D               	retlw	06Dh
   310  0046  3420               	retlw	020h
   311  0047  3454               	retlw	054h
   312  0048  3465               	retlw	065h
   313  0049  346D               	retlw	06Dh
   314  004A  3470               	retlw	070h
   315  004B  3465               	retlw	065h
   316  004C  3472               	retlw	072h
   317  004D  3461               	retlw	061h
   318  004E  3474               	retlw	074h
   319  004F  3475               	retlw	075h
   320  0050  3472               	retlw	072h
   321  0051  3465               	retlw	065h
   322                           	global	_THigh
   323                           	global	_TLow
   324                           	global	_ADCON0
   325  001F                     _ADCON0	set	31
   326                           	global	_ADRESH
   327  001E                     _ADRESH	set	30
   328                           	global	_PORTD
   329  0008                     _PORTD	set	8
   330                           	global	_PORTE
   331  0009                     _PORTE	set	9
   332                           	global	_ADCS0
   333  00FE                     _ADCS0	set	254
   334                           	global	_ADCS1
   335  00FF                     _ADCS1	set	255
   336                           	global	_ADON
   337  00F8                     _ADON	set	248
   338                           	global	_RD2
   339  0042                     _RD2	set	66
   340                           	global	_RD3
   341  0043                     _RD3	set	67
   342                           	global	_RE0
   343  0048                     _RE0	set	72
   344                           	global	_RE1
   345  0049                     _RE1	set	73
   346                           	global	_ADRESL
   347  009E                     _ADRESL	set	158
   348                           	global	_TRISD
   349  0088                     _TRISD	set	136
   350                           	global	_TRISE
   351  0089                     _TRISE	set	137
   352                           	global	_ADCS2
   353  04FE                     _ADCS2	set	1278
   354                           	global	_ADFM
   355  04FF                     _ADFM	set	1279
   356                           	global	_PCFG0
   357  04F8                     _PCFG0	set	1272
   358                           	global	_PCFG1
   359  04F9                     _PCFG1	set	1273
   360                           	global	_PCFG2
   361  04FA                     _PCFG2	set	1274
   362                           	global	_PCFG3
   363  04FB                     _PCFG3	set	1275
   364                           psect	strings,class=STRING,delta=2
   365                           global __pstrings
   366  0800                     __pstrings:
   367                           ;	global	stringdir,stringtab,__stringbase
   368  0800                     stringtab:
   369                           ;	String table - string pointers are 1 byte each
   370  0800                     stringcode:stringdir:
      + 0800                     stringdir:	
   371  0800  3008               movlw high(stringdir)
   372  0801  008A               movwf pclath
   373  0802  0804               movf fsr,w
   374  0803  0A84               incf fsr
   375  0804  0782               	addwf pc
   376  0805                     __stringbase:
   377  0805  3400               	retlw	0
   378                           psect	strings
   379                           	
   380  0806                     STR_1:	
   381  0806  3449               	retlw	73	;'I'
   382  0807  344E               	retlw	78	;'N'
   383  0808  3449               	retlw	73	;'I'
   384  0809  3454               	retlw	84	;'T'
   385  080A  3449               	retlw	73	;'I'
   386  080B  3441               	retlw	65	;'A'
   387  080C  344C               	retlw	76	;'L'
   388  080D  3449               	retlw	73	;'I'
   389  080E  345A               	retlw	90	;'Z'
   390  080F  3449               	retlw	73	;'I'
   391  0810  344E               	retlw	78	;'N'
   392  0811  3447               	retlw	71	;'G'
   393  0812  342E               	retlw	46	;'.'
   394  0813  342E               	retlw	46	;'.'
   395  0814  342E               	retlw	46	;'.'
   396  0815  342E               	retlw	46	;'.'
   397  0816  3400               	retlw	0
   398                           psect	strings
   399                           	
   400  0817                     STR_6:	
   401  0817  3468               	retlw	104	;'h'
   402  0818  3441               	retlw	65	;'A'
   403  0819  344C               	retlw	76	;'L'
   404  081A  344C               	retlw	76	;'L'
   405  081B  3420               	retlw	32	;' '
   406  081C  344F               	retlw	79	;'O'
   407  081D  344E               	retlw	78	;'N'
   408  081E  3420               	retlw	32	;' '
   409  081F  3400               	retlw	0
   410                           psect	strings
   411                           	
   412  0820                     STR_7:	
   413  0820  3468               	retlw	104	;'h'
   414  0821  3441               	retlw	65	;'A'
   415  0822  344C               	retlw	76	;'L'
   416  0823  344C               	retlw	76	;'L'
   417  0824  3420               	retlw	32	;' '
   418  0825  344F               	retlw	79	;'O'
   419  0826  3466               	retlw	102	;'f'
   420  0827  3466               	retlw	102	;'f'
   421  0828  3400               	retlw	0
   422                           psect	strings
   423                           	
   424  0829                     STR_4:	
   425  0829  3449               	retlw	73	;'I'
   426  082A  3452               	retlw	82	;'R'
   427  082B  3420               	retlw	32	;' '
   428  082C  344F               	retlw	79	;'O'
   429  082D  344E               	retlw	78	;'N'
   430  082E  3420               	retlw	32	;' '
   431  082F  3400               	retlw	0
   432                           psect	strings
   433                           	
   434  0830                     STR_5:	
   435  0830  3449               	retlw	73	;'I'
   436  0831  3452               	retlw	82	;'R'
   437  0832  3420               	retlw	32	;' '
   438  0833  344F               	retlw	79	;'O'
   439  0834  3446               	retlw	70	;'F'
   440  0835  3446               	retlw	70	;'F'
   441  0836  3400               	retlw	0
   442                           psect	strings
   443                           	
   444  0837                     STR_2:	
   445  0837  3420               	retlw	32	;' '
   446  0838  3420               	retlw	32	;' '
   447  0839  3400               	retlw	0
   448                           psect	strings
   449  0838                     STR_3	equ	STR_2+1
   450                           	file	"LCD Interfacing.as"
   451                           	line	#
   452                           psect cinit,class=CODE,delta=2
   453                           global start_initialization
   454  0E2D                     start_initialization:
   455                           
   456                           psect	bssBANK0,class=BANK0,space=1
   457                           global __pbssBANK0
   458  0067                     __pbssBANK0:
   459  0067                     _THigh:
   460  0067                            ds      4
   461                           
   462  006B                     _TLow:
   463  006B                            ds      4
   464                           
   465                           psect	dataBANK0,class=BANK0,space=1
   466                           global __pdataBANK0
   467  0058                     __pdataBANK0:
   468                           	file	"C:\Users\X4ROY\Desktop\URE\LCD Interfacing\main.h"
   469                           	line	31
   470  0058                     _AT2:
   471  0058                            ds      8
   472                           
   473                           psect	dataBANK0
   474                           	file	"C:\Users\X4ROY\Desktop\URE\LCD Interfacing\main.h"
   475                           	line	32
   476  0060                     _AT3:
   477  0060                            ds      7
   478                           
   479                           psect	dataBANK1,class=BANK1,space=1
   480                           global __pdataBANK1
   481  00A0                     __pdataBANK1:
   482                           	file	"C:\Users\X4ROY\Desktop\URE\LCD Interfacing\main.h"
   483                           	line	30
   484  00A0                     _AT1:
   485  00A0                            ds      31
   486                           
   487                           psect	dataBANK1
   488                           	file	"C:\Users\X4ROY\Desktop\URE\LCD Interfacing\main.h"
   489                           	line	28
   490  00BF                     _AT:
   491  00BF                            ds      26
   492                           
   493                           psect	dataBANK1
   494                           	file	"C:\Users\X4ROY\Desktop\URE\LCD Interfacing\main.h"
   495                           	line	29
   496  00D9                     _AT0:
   497  00D9                            ds      16
   498                           
   499                           psect	dataBANK3,class=BANK3,space=1
   500                           global __pdataBANK3
   501  0190                     __pdataBANK3:
   502                           	file	"C:\Users\X4ROY\Desktop\URE\LCD Interfacing\main.h"
   503                           	line	35
   504  0190                     _TL_Err:
   505  0190                            ds      34
   506                           
   507                           psect	dataBANK3
   508                           	file	"C:\Users\X4ROY\Desktop\URE\LCD Interfacing\main.h"
   509                           	line	33
   510  01B2                     _HYS_Err:
   511  01B2                            ds      32
   512                           
   513                           psect	dataBANK2,class=BANK2,space=1
   514                           global __pdataBANK2
   515  0110                     __pdataBANK2:
   516                           	file	"C:\Users\X4ROY\Desktop\URE\LCD Interfacing\main.h"
   517                           	line	34
   518  0110                     _TH_Err:
   519  0110                            ds      35
   520                           
   521                           ; Clear objects allocated to BANK0
   522                           psect cinit,class=CODE,delta=2
   523  0E2D  01E7               	clrf	((__pbssBANK0)+0)&07Fh
   524  0E2E  01E8               	clrf	((__pbssBANK0)+1)&07Fh
   525  0E2F  01E9               	clrf	((__pbssBANK0)+2)&07Fh
   526  0E30  01EA               	clrf	((__pbssBANK0)+3)&07Fh
   527  0E31  01EB               	clrf	((__pbssBANK0)+4)&07Fh
   528  0E32  01EC               	clrf	((__pbssBANK0)+5)&07Fh
   529  0E33  01ED               	clrf	((__pbssBANK0)+6)&07Fh
   530  0E34  01EE               	clrf	((__pbssBANK0)+7)&07Fh
   531                           global btemp
   532                           psect inittext,class=CODE,delta=2
   533                           global init_fetch,btemp
   534                           ;	Called with low address in FSR and high address in W
   535  0CC8                     init_fetch:
   536  0CC8  087E               	movf btemp,w
   537  0CC9  008A               	movwf pclath
   538  0CCA  087F               	movf btemp+1,w
   539  0CCB  0082               	movwf pc
   540                           global init_ram
   541                           ;Called with:
   542                           ;	high address of idata address in btemp 
   543                           ;	low address of idata address in btemp+1 
   544                           ;	low address of data in FSR
   545                           ;	high address + 1 of data in btemp-1
   546  0CCC                     init_ram:
   547  0CCC  24C8  120A  158A   	fcall init_fetch
   548  0CCF  0080               	movwf indf,f
   549  0CD0  0A84               	incf fsr,f
   550  0CD1  0804               	movf fsr,w
   551  0CD2  067D               	xorwf btemp-1,w
   552  0CD3  1903               	btfsc status,2
   553  0CD4  3400               	retlw 0
   554  0CD5  0AFF               	incf btemp+1,f
   555  0CD6  1903               	btfsc status,2
   556  0CD7  0AFE               	incf btemp,f
   557  0CD8  2CCC               	goto init_ram
   558                           ; Initialize objects allocated to BANK3
   559                           psect cinit,class=CODE,delta=2
   560                           global init_ram, __pidataBANK3
   561  0E35  1783               	bsf	status, 7	;select IRP bank2
   562  0E36  30D2               	movlw low(__pdataBANK3+66)
   563  0E37  00FD               	movwf btemp-1,f
   564  0E38  300E               	movlw high(__pidataBANK3)
   565  0E39  00FE               	movwf btemp,f
   566  0E3A  306F               	movlw low(__pidataBANK3)
   567  0E3B  00FF               	movwf btemp+1,f
   568  0E3C  3090               	movlw low(__pdataBANK3)
   569  0E3D  0084               	movwf fsr,f
   570  0E3E  120A  158A  24CC   	fcall init_ram
              120A  158A         
   571                           ; Initialize objects allocated to BANK2
   572                           psect cinit,class=CODE,delta=2
   573                           global init_ram, __pidataBANK2
   574  0E43  3033               	movlw low(__pdataBANK2+35)
   575  0E44  00FD               	movwf btemp-1,f
   576  0E45  300D               	movlw high(__pidataBANK2)
   577  0E46  00FE               	movwf btemp,f
   578  0E47  3059               	movlw low(__pidataBANK2)
   579  0E48  00FF               	movwf btemp+1,f
   580  0E49  3010               	movlw low(__pdataBANK2)
   581  0E4A  0084               	movwf fsr,f
   582  0E4B  120A  158A  24CC   	fcall init_ram
              120A  158A         
   583                           ; Initialize objects allocated to BANK1
   584                           psect cinit,class=CODE,delta=2
   585                           global init_ram, __pidataBANK1
   586  0E50  1383               	bcf	status, 7	;select IRP bank0
   587  0E51  30E9               	movlw low(__pdataBANK1+73)
   588  0E52  00FD               	movwf btemp-1,f
   589  0E53  3000               	movlw high(__pidataBANK1)
   590  0E54  00FE               	movwf btemp,f
   591  0E55  3009               	movlw low(__pidataBANK1)
   592  0E56  00FF               	movwf btemp+1,f
   593  0E57  30A0               	movlw low(__pdataBANK1)
   594  0E58  0084               	movwf fsr,f
   595  0E59  120A  158A  24CC   	fcall init_ram
              120A  158A         
   596                           ; Initialize objects allocated to BANK0
   597                           psect cinit,class=CODE,delta=2
   598                           global init_ram, __pidataBANK0
   599  0E5E  3067               	movlw low(__pdataBANK0+15)
   600  0E5F  00FD               	movwf btemp-1,f
   601  0E60  300C               	movlw high(__pidataBANK0)
   602  0E61  00FE               	movwf btemp,f
   603  0E62  30A9               	movlw low(__pidataBANK0)
   604  0E63  00FF               	movwf btemp+1,f
   605  0E64  3058               	movlw low(__pdataBANK0)
   606  0E65  0084               	movwf fsr,f
   607  0E66  120A  158A  24CC   	fcall init_ram
              120A  158A         
   608                           psect cinit,class=CODE,delta=2
   609                           global end_of_initialization
   610                           
   611                           ;End of C runtime variable initialization code
   612                           
   613  0E6B                     end_of_initialization:
   614  0E6B  0183               clrf status
   615  0E6C  120A  118A  2B65   ljmp _main	;jump to C main() function
   616                           psect	cstackCOMMON,class=COMMON,space=1
   617                           global __pcstackCOMMON
   618  0070                     __pcstackCOMMON:
   619                           	global	?_LCDWriteByte
   620  0070                     ?_LCDWriteByte:	; 0 bytes @ 0x0
   621                           	global	?_LCDReset
   622  0070                     ?_LCDReset:	; 0 bytes @ 0x0
   623                           	global	?_MainSystemInitialize
   624  0070                     ?_MainSystemInitialize:	; 0 bytes @ 0x0
   625                           	global	?_ADCInitialize
   626  0070                     ?_ADCInitialize:	; 0 bytes @ 0x0
   627                           	global	??_ADCInitialize
   628  0070                     ??_ADCInitialize:	; 0 bytes @ 0x0
   629                           	global	?_Delay
   630  0070                     ?_Delay:	; 0 bytes @ 0x0
   631                           	global	?_LCDEnable
   632  0070                     ?_LCDEnable:	; 0 bytes @ 0x0
   633                           	global	?_LCDWriteCommand
   634  0070                     ?_LCDWriteCommand:	; 0 bytes @ 0x0
   635                           	global	?_LCDWriteData
   636  0070                     ?_LCDWriteData:	; 0 bytes @ 0x0
   637                           	global	?_LCDWriteString
   638  0070                     ?_LCDWriteString:	; 0 bytes @ 0x0
   639                           	global	?_LCDInitialize
   640  0070                     ?_LCDInitialize:	; 0 bytes @ 0x0
   641                           	global	?_main
   642  0070                     ?_main:	; 0 bytes @ 0x0
   643                           	global	?___ftge
   644  0070                     ?___ftge:	; 1 bit 
   645                           	global	?___wmul
   646  0070                     ?___wmul:	; 2 bytes @ 0x0
   647                           	global	?___awdiv
   648  0070                     ?___awdiv:	; 2 bytes @ 0x0
   649                           	global	?___awmod
   650  0070                     ?___awmod:	; 2 bytes @ 0x0
   651                           	global	?___ftpack
   652  0070                     ?___ftpack:	; 3 bytes @ 0x0
   653                           	global	?___fttol
   654  0070                     ?___fttol:	; 4 bytes @ 0x0
   655                           	global	Delay@time
   656  0070                     Delay@time:	; 2 bytes @ 0x0
   657                           	global	___wmul@multiplier
   658  0070                     ___wmul@multiplier:	; 2 bytes @ 0x0
   659                           	global	___awdiv@divisor
   660  0070                     ___awdiv@divisor:	; 2 bytes @ 0x0
   661                           	global	___awmod@divisor
   662  0070                     ___awmod@divisor:	; 2 bytes @ 0x0
   663                           	global	___fttol@f1
   664  0070                     ___fttol@f1:	; 3 bytes @ 0x0
   665                           	global	___ftge@ff1
   666  0070                     ___ftge@ff1:	; 3 bytes @ 0x0
   667                           	global	___ftpack@arg
   668  0070                     ___ftpack@arg:	; 3 bytes @ 0x0
   669  0070                     	ds	2
   670                           	global	??_Delay
   671  0072                     ??_Delay:	; 0 bytes @ 0x2
   672                           	global	___wmul@multiplicand
   673  0072                     ___wmul@multiplicand:	; 2 bytes @ 0x2
   674                           	global	___awdiv@dividend
   675  0072                     ___awdiv@dividend:	; 2 bytes @ 0x2
   676                           	global	___awmod@dividend
   677  0072                     ___awmod@dividend:	; 2 bytes @ 0x2
   678  0072                     	ds	1
   679                           	global	Delay@pause
   680  0073                     Delay@pause:	; 1 bytes @ 0x3
   681                           	global	___ftpack@exp
   682  0073                     ___ftpack@exp:	; 1 bytes @ 0x3
   683                           	global	___ftge@ff2
   684  0073                     ___ftge@ff2:	; 3 bytes @ 0x3
   685  0073                     	ds	1
   686                           	global	??_LCDWriteByte
   687  0074                     ??_LCDWriteByte:	; 0 bytes @ 0x4
   688                           	global	??_LCDEnable
   689  0074                     ??_LCDEnable:	; 0 bytes @ 0x4
   690                           	global	??___wmul
   691  0074                     ??___wmul:	; 0 bytes @ 0x4
   692                           	global	??___fttol
   693  0074                     ??___fttol:	; 0 bytes @ 0x4
   694                           	global	??___awdiv
   695  0074                     ??___awdiv:	; 0 bytes @ 0x4
   696                           	global	??___awmod
   697  0074                     ??___awmod:	; 0 bytes @ 0x4
   698                           	global	___ftpack@sign
   699  0074                     ___ftpack@sign:	; 1 bytes @ 0x4
   700                           	global	___wmul@product
   701  0074                     ___wmul@product:	; 2 bytes @ 0x4
   702  0074                     	ds	1
   703                           	global	??___ftpack
   704  0075                     ??___ftpack:	; 0 bytes @ 0x5
   705                           	global	LCDWriteByte@LCDData
   706  0075                     LCDWriteByte@LCDData:	; 1 bytes @ 0x5
   707                           	global	___awdiv@counter
   708  0075                     ___awdiv@counter:	; 1 bytes @ 0x5
   709                           	global	___awmod@counter
   710  0075                     ___awmod@counter:	; 1 bytes @ 0x5
   711  0075                     	ds	1
   712                           	global	??_LCDWriteCommand
   713  0076                     ??_LCDWriteCommand:	; 0 bytes @ 0x6
   714                           	global	??_LCDWriteData
   715  0076                     ??_LCDWriteData:	; 0 bytes @ 0x6
   716                           	global	??___ftge
   717  0076                     ??___ftge:	; 0 bytes @ 0x6
   718                           	global	LCDWriteCommand@LCDData
   719  0076                     LCDWriteCommand@LCDData:	; 1 bytes @ 0x6
   720                           	global	LCDWriteData@LCDData
   721  0076                     LCDWriteData@LCDData:	; 1 bytes @ 0x6
   722                           	global	___awdiv@sign
   723  0076                     ___awdiv@sign:	; 1 bytes @ 0x6
   724                           	global	___awmod@sign
   725  0076                     ___awmod@sign:	; 1 bytes @ 0x6
   726  0076                     	ds	1
   727                           	global	??_LCDReset
   728  0077                     ??_LCDReset:	; 0 bytes @ 0x7
   729                           	global	??_LCDWriteString
   730  0077                     ??_LCDWriteString:	; 0 bytes @ 0x7
   731                           	global	??_LCDInitialize
   732  0077                     ??_LCDInitialize:	; 0 bytes @ 0x7
   733                           	global	___awdiv@quotient
   734  0077                     ___awdiv@quotient:	; 2 bytes @ 0x7
   735  0077                     	ds	1
   736                           	global	??_MainSystemInitialize
   737  0078                     ??_MainSystemInitialize:	; 0 bytes @ 0x8
   738                           	global	?___ftdiv
   739  0078                     ?___ftdiv:	; 3 bytes @ 0x8
   740                           	global	?___ftneg
   741  0078                     ?___ftneg:	; 3 bytes @ 0x8
   742                           	global	?___lwtoft
   743  0078                     ?___lwtoft:	; 3 bytes @ 0x8
   744                           	global	LCDWriteString@lcd_string
   745  0078                     LCDWriteString@lcd_string:	; 1 bytes @ 0x8
   746                           	global	___fttol@sign1
   747  0078                     ___fttol@sign1:	; 1 bytes @ 0x8
   748                           	global	___lwtoft@c
   749  0078                     ___lwtoft@c:	; 2 bytes @ 0x8
   750                           	global	___ftdiv@f2
   751  0078                     ___ftdiv@f2:	; 3 bytes @ 0x8
   752                           	global	___ftneg@f1
   753  0078                     ___ftneg@f1:	; 3 bytes @ 0x8
   754  0078                     	ds	1
   755                           	global	?_LCDWriteInteger
   756  0079                     ?_LCDWriteInteger:	; 0 bytes @ 0x9
   757                           	global	LCDWriteInteger@IntegerNumber
   758  0079                     LCDWriteInteger@IntegerNumber:	; 2 bytes @ 0x9
   759                           	global	___fttol@lval
   760  0079                     ___fttol@lval:	; 4 bytes @ 0x9
   761  0079                     	ds	2
   762                           	global	??_LCDWriteInteger
   763  007B                     ??_LCDWriteInteger:	; 0 bytes @ 0xB
   764                           	global	??___ftneg
   765  007B                     ??___ftneg:	; 0 bytes @ 0xB
   766                           	global	??___lwtoft
   767  007B                     ??___lwtoft:	; 0 bytes @ 0xB
   768                           	global	?___awtoft
   769  007B                     ?___awtoft:	; 3 bytes @ 0xB
   770                           	global	___awtoft@c
   771  007B                     ___awtoft@c:	; 2 bytes @ 0xB
   772                           	global	___ftdiv@f1
   773  007B                     ___ftdiv@f1:	; 3 bytes @ 0xB
   774  007B                     	ds	2
   775                           	global	___fttol@exp1
   776  007D                     ___fttol@exp1:	; 1 bytes @ 0xD
   777  007D                     	ds	1
   778                           psect	cstackBANK0,class=BANK0,space=1
   779                           global __pcstackBANK0
   780  0020                     __pcstackBANK0:
   781                           	global	??___ftdiv
   782  0020                     ??___ftdiv:	; 0 bytes @ 0x0
   783                           	global	??___awtoft
   784  0020                     ??___awtoft:	; 0 bytes @ 0x0
   785                           	global	LCDWriteInteger@c
   786  0020                     LCDWriteInteger@c:	; 6 bytes @ 0x0
   787  0020                     	ds	2
   788                           	global	___awtoft@sign
   789  0022                     ___awtoft@sign:	; 1 bytes @ 0x2
   790  0022                     	ds	1
   791                           	global	?___ftadd
   792  0023                     ?___ftadd:	; 3 bytes @ 0x3
   793                           	global	___ftadd@f1
   794  0023                     ___ftadd@f1:	; 3 bytes @ 0x3
   795  0023                     	ds	1
   796                           	global	___ftdiv@cntr
   797  0024                     ___ftdiv@cntr:	; 1 bytes @ 0x4
   798  0024                     	ds	1
   799                           	global	___ftdiv@f3
   800  0025                     ___ftdiv@f3:	; 3 bytes @ 0x5
   801  0025                     	ds	1
   802                           	global	LCDWriteInteger@i
   803  0026                     LCDWriteInteger@i:	; 1 bytes @ 0x6
   804                           	global	___ftadd@f2
   805  0026                     ___ftadd@f2:	; 3 bytes @ 0x6
   806  0026                     	ds	2
   807                           	global	___ftdiv@exp
   808  0028                     ___ftdiv@exp:	; 1 bytes @ 0x8
   809  0028                     	ds	1
   810                           	global	??___ftadd
   811  0029                     ??___ftadd:	; 0 bytes @ 0x9
   812                           	global	___ftdiv@sign
   813  0029                     ___ftdiv@sign:	; 1 bytes @ 0x9
   814  0029                     	ds	4
   815                           	global	___ftadd@sign
   816  002D                     ___ftadd@sign:	; 1 bytes @ 0xD
   817  002D                     	ds	1
   818                           	global	___ftadd@exp2
   819  002E                     ___ftadd@exp2:	; 1 bytes @ 0xE
   820  002E                     	ds	1
   821                           	global	___ftadd@exp1
   822  002F                     ___ftadd@exp1:	; 1 bytes @ 0xF
   823  002F                     	ds	1
   824                           	global	?___ftmul
   825  0030                     ?___ftmul:	; 3 bytes @ 0x10
   826                           	global	___ftmul@f1
   827  0030                     ___ftmul@f1:	; 3 bytes @ 0x10
   828  0030                     	ds	3
   829                           	global	___ftmul@f2
   830  0033                     ___ftmul@f2:	; 3 bytes @ 0x13
   831  0033                     	ds	3
   832                           	global	??___ftmul
   833  0036                     ??___ftmul:	; 0 bytes @ 0x16
   834  0036                     	ds	4
   835                           	global	___ftmul@exp
   836  003A                     ___ftmul@exp:	; 1 bytes @ 0x1A
   837  003A                     	ds	1
   838                           	global	___ftmul@f3_as_product
   839  003B                     ___ftmul@f3_as_product:	; 3 bytes @ 0x1B
   840  003B                     	ds	3
   841                           	global	___ftmul@cntr
   842  003E                     ___ftmul@cntr:	; 1 bytes @ 0x1E
   843  003E                     	ds	1
   844                           	global	___ftmul@sign
   845  003F                     ___ftmul@sign:	; 1 bytes @ 0x1F
   846  003F                     	ds	1
   847                           	global	?_LCDWriteFloat
   848  0040                     ?_LCDWriteFloat:	; 0 bytes @ 0x20
   849                           	global	?_ADCReadData
   850  0040                     ?_ADCReadData:	; 3 bytes @ 0x20
   851                           	global	LCDWriteFloat@FloatNumber
   852  0040                     LCDWriteFloat@FloatNumber:	; 3 bytes @ 0x20
   853  0040                     	ds	3
   854                           	global	??_ADCReadData
   855  0043                     ??_ADCReadData:	; 0 bytes @ 0x23
   856                           	global	??_LCDWriteFloat
   857  0043                     ??_LCDWriteFloat:	; 0 bytes @ 0x23
   858  0043                     	ds	1
   859                           	global	LCDWriteFloat@c
   860  0044                     LCDWriteFloat@c:	; 6 bytes @ 0x24
   861  0044                     	ds	1
   862                           	global	ADCReadData@f
   863  0045                     ADCReadData@f:	; 3 bytes @ 0x25
   864  0045                     	ds	3
   865                           	global	ADCReadData@x
   866  0048                     ADCReadData@x:	; 2 bytes @ 0x28
   867  0048                     	ds	2
   868                           	global	ADCReadData@y
   869  004A                     ADCReadData@y:	; 2 bytes @ 0x2A
   870                           	global	_LCDWriteFloat$1282
   871  004A                     _LCDWriteFloat$1282:	; 3 bytes @ 0x2A
   872  004A                     	ds	2
   873                           	global	ADCReadData@c
   874  004C                     ADCReadData@c:	; 2 bytes @ 0x2C
   875  004C                     	ds	1
   876                           	global	LCDWriteFloat@Temp
   877  004D                     LCDWriteFloat@Temp:	; 2 bytes @ 0x2D
   878  004D                     	ds	1
   879                           	global	ADCReadData@z
   880  004E                     ADCReadData@z:	; 2 bytes @ 0x2E
   881  004E                     	ds	1
   882                           	global	LCDWriteFloat@i
   883  004F                     LCDWriteFloat@i:	; 1 bytes @ 0x2F
   884  004F                     	ds	1
   885                           	global	ADCReadData@ChannelNumber
   886  0050                     ADCReadData@ChannelNumber:	; 1 bytes @ 0x30
   887                           	global	LCDWriteFloat@n
   888  0050                     LCDWriteFloat@n:	; 2 bytes @ 0x30
   889  0050                     	ds	1
   890                           	global	ADCReadData@p
   891  0051                     ADCReadData@p:	; 3 bytes @ 0x31
   892  0051                     	ds	3
   893                           	global	??_main
   894  0054                     ??_main:	; 0 bytes @ 0x34
   895  0054                     	ds	1
   896                           	global	main@temp
   897  0055                     main@temp:	; 3 bytes @ 0x35
   898  0055                     	ds	3
   899 ;;Data sizes: Strings 52, constant 0, data 189, bss 8, persistent 0 stack 0
   900 ;;Auto spaces:   Size  Autos    Used
   901 ;; COMMON          14     14      14
   902 ;; BANK0           80     56      79
   903 ;; BANK1           80      0      73
   904 ;; BANK3           96      0      66
   905 ;; BANK2           96      0      35
   906                           
   907 ;;
   908 ;; Pointer list with targets:
   909                           
   910 ;; ?___ftpack	float  size(1) Largest target is 0
   911 ;;
   912 ;; ?_ADCReadData	float  size(1) Largest target is 0
   913 ;;
   914 ;; ?___ftdiv	float  size(1) Largest target is 0
   915 ;;
   916 ;; ?___lwtoft	float  size(1) Largest target is 0
   917 ;;
   918 ;; ?___wmul	unsigned int  size(1) Largest target is 0
   919 ;;
   920 ;; ?___awtoft	float  size(1) Largest target is 0
   921 ;;
   922 ;; ?___ftadd	float  size(1) Largest target is 0
   923 ;;
   924 ;; ?___ftmul	float  size(1) Largest target is 0
   925 ;;
   926 ;; ?___fttol	long  size(1) Largest target is 0
   927 ;;
   928 ;; ?___ftneg	float  size(1) Largest target is 0
   929 ;;
   930 ;; ?___awmod	int  size(1) Largest target is 0
   931 ;;
   932 ;; ?___awdiv	int  size(1) Largest target is 0
   933 ;;
   934 ;; LCDWriteString@lcd_string	PTR const unsigned char  size(1) Largest target is 17
   935 ;;		 -> STR_7(CODE[9]), STR_6(CODE[9]), STR_5(CODE[7]), STR_4(CODE[7]), 
   936 ;;		 -> STR_3(CODE[2]), STR_2(CODE[3]), STR_1(CODE[17]), 
   937 ;;
   938                           
   939                           
   940 ;;
   941 ;; Critical Paths under _main in COMMON
   942 ;;
   943 ;;   _MainSystemInitialize->_LCDInitialize
   944 ;;   _LCDWriteFloat->___fttol
   945 ;;   _LCDWriteFloat->___awtoft
   946 ;;   _LCDInitialize->_LCDWriteCommand
   947 ;;   _LCDWriteInteger->___awdiv
   948 ;;   _LCDReset->_LCDWriteCommand
   949 ;;   _LCDWriteString->_LCDWriteData
   950 ;;   _LCDWriteData->_LCDWriteByte
   951 ;;   _LCDWriteCommand->_LCDWriteByte
   952 ;;   _ADCReadData->___ftdiv
   953 ;;   _LCDWriteByte->_Delay
   954 ;;   ___lwtoft->___ftpack
   955 ;;   ___awtoft->___ftneg
   956 ;;   ___ftmul->___awtoft
   957 ;;   ___ftdiv->___ftpack
   958 ;;   ___ftadd->___awtoft
   959 ;;   _LCDEnable->_Delay
   960 ;;   ___ftneg->___ftpack
   961 ;;
   962 ;; Critical Paths under _main in BANK0
   963 ;;
   964 ;;   _main->_ADCReadData
   965 ;;   _LCDWriteFloat->___ftmul
   966 ;;   _ADCReadData->___ftmul
   967 ;;   ___ftmul->___ftadd
   968 ;;   ___ftadd->___awtoft
   969 ;;
   970 ;; Critical Paths under _main in BANK1
   971 ;;
   972 ;;   None.
   973 ;;
   974 ;; Critical Paths under _main in BANK3
   975 ;;
   976 ;;   None.
   977 ;;
   978 ;; Critical Paths under _main in BANK2
   979 ;;
   980 ;;   None.
   981                           
   982 ;;
   983 ;;Main: autosize = 0, tempsize = 1, incstack = 0, save=0
   984 ;;
   985                           
   986 ;;
   987 ;;Call Graph Tables:
   988 ;;
   989 ;; ---------------------------------------------------------------------------------
   990 ;; (Depth) Function   	        Calls       Base Space   Used Autos Params    Refs
   991 ;; ---------------------------------------------------------------------------------
   992 ;; (0) _main                                                 4     4      0    7234
   993 ;;                                             52 BANK0      4     4      0
   994 ;;               _MainSystemInitialize
   995 ;;                        _ADCReadData
   996 ;;                    _LCDWriteCommand
   997 ;;                      _LCDWriteFloat
   998 ;;                     _LCDWriteString
   999 ;; ---------------------------------------------------------------------------------
  1000 ;; (1) _MainSystemInitialize                                 0     0      0     316
  1001 ;;                      _ADCInitialize
  1002 ;;                      _LCDInitialize
  1003 ;; ---------------------------------------------------------------------------------
  1004 ;; (1) _LCDWriteFloat                                       18    15      3    4888
  1005 ;;                                             32 BANK0     18    15      3
  1006 ;;                             ___ftge
  1007 ;;                       _LCDWriteData
  1008 ;;                            ___ftneg
  1009 ;;                            ___fttol
  1010 ;;                    _LCDWriteInteger
  1011 ;;                           ___awtoft
  1012 ;;                            ___ftadd
  1013 ;;                            ___ftmul
  1014 ;;                            ___awmod
  1015 ;;                            ___awdiv
  1016 ;;                    _LCDWriteCommand
  1017 ;;                     _LCDWriteString
  1018 ;; ---------------------------------------------------------------------------------
  1019 ;; (2) _LCDInitialize                                        1     1      0     316
  1020 ;;                                              7 COMMON     1     1      0
  1021 ;;                           _LCDReset
  1022 ;;                    _LCDWriteCommand
  1023 ;; ---------------------------------------------------------------------------------
  1024 ;; (2) _LCDWriteInteger                                     10     8      2    1003
  1025 ;;                                              9 COMMON     3     1      2
  1026 ;;                                              0 BANK0      7     7      0
  1027 ;;                       _LCDWriteData
  1028 ;;                            ___awmod
  1029 ;;                            ___awdiv
  1030 ;; ---------------------------------------------------------------------------------
  1031 ;; (3) _LCDReset                                             0     0      0     158
  1032 ;;                    _LCDWriteCommand
  1033 ;; ---------------------------------------------------------------------------------
  1034 ;; (1) _LCDWriteString                                       2     2      0     203
  1035 ;;                                              7 COMMON     2     2      0
  1036 ;;                       _LCDWriteData
  1037 ;; ---------------------------------------------------------------------------------
  1038 ;; (2) _LCDWriteData                                         1     1      0     158
  1039 ;;                                              6 COMMON     1     1      0
  1040 ;;                       _LCDWriteByte
  1041 ;; ---------------------------------------------------------------------------------
  1042 ;; (2) _LCDWriteCommand                                      1     1      0     158
  1043 ;;                                              6 COMMON     1     1      0
  1044 ;;                       _LCDWriteByte
  1045 ;; ---------------------------------------------------------------------------------
  1046 ;; (1) _ADCReadData                                         21    18      3    1577
  1047 ;;                                             32 BANK0     20    17      3
  1048 ;;                              _Delay
  1049 ;;                             ___wmul
  1050 ;;                           ___lwtoft
  1051 ;;                            ___ftmul
  1052 ;;                            ___ftdiv
  1053 ;; ---------------------------------------------------------------------------------
  1054 ;; (3) _LCDWriteByte                                         2     2      0     136
  1055 ;;                                              4 COMMON     2     2      0
  1056 ;;                          _LCDEnable
  1057 ;;                              _Delay
  1058 ;; ---------------------------------------------------------------------------------
  1059 ;; (2) ___lwtoft                                             4     1      3     231
  1060 ;;                                              8 COMMON     4     1      3
  1061 ;;                           ___ftpack
  1062 ;; ---------------------------------------------------------------------------------
  1063 ;; (2) ___awtoft                                             6     3      3     300
  1064 ;;                                             11 COMMON     3     0      3
  1065 ;;                                              0 BANK0      3     3      0
  1066 ;;                           ___ftpack
  1067 ;;                            ___ftneg (ARG)
  1068 ;; ---------------------------------------------------------------------------------
  1069 ;; (2) ___ftmul                                             16    10      6     535
  1070 ;;                                             16 BANK0     16    10      6
  1071 ;;                           ___ftpack
  1072 ;;                            ___ftadd (ARG)
  1073 ;;                            ___ftneg (ARG)
  1074 ;;                           ___awtoft (ARG)
  1075 ;; ---------------------------------------------------------------------------------
  1076 ;; (2) ___ftdiv                                             16    10      6     489
  1077 ;;                                              8 COMMON     6     0      6
  1078 ;;                                              0 BANK0     10    10      0
  1079 ;;                           ___ftpack
  1080 ;; ---------------------------------------------------------------------------------
  1081 ;; (2) ___ftadd                                             13     7      6    1049
  1082 ;;                                              3 BANK0     13     7      6
  1083 ;;                           ___ftpack
  1084 ;;                            ___ftneg (ARG)
  1085 ;;                           ___awtoft (ARG)
  1086 ;; ---------------------------------------------------------------------------------
  1087 ;; (4) _LCDEnable                                            0     0      0      46
  1088 ;;                              _Delay
  1089 ;; ---------------------------------------------------------------------------------
  1090 ;; (2) ___awmod                                              7     3      4     296
  1091 ;;                                              0 COMMON     7     3      4
  1092 ;; ---------------------------------------------------------------------------------
  1093 ;; (2) ___ftge                                              12     6      6     136
  1094 ;;                                              0 COMMON    12     6      6
  1095 ;; ---------------------------------------------------------------------------------
  1096 ;; (2) ___ftneg                                              3     0      3      45
  1097 ;;                                              8 COMMON     3     0      3
  1098 ;;                           ___ftpack (ARG)
  1099 ;; ---------------------------------------------------------------------------------
  1100 ;; (2) ___awdiv                                              9     5      4     300
  1101 ;;                                              0 COMMON     9     5      4
  1102 ;; ---------------------------------------------------------------------------------
  1103 ;; (2) ___fttol                                             14    10      4     252
  1104 ;;                                              0 COMMON    14    10      4
  1105 ;; ---------------------------------------------------------------------------------
  1106 ;; (3) ___ftpack                                             8     3      5     209
  1107 ;;                                              0 COMMON     8     3      5
  1108 ;; ---------------------------------------------------------------------------------
  1109 ;; (2) ___wmul                                               6     2      4      92
  1110 ;;                                              0 COMMON     6     2      4
  1111 ;; ---------------------------------------------------------------------------------
  1112 ;; (2) _ADCInitialize                                        0     0      0       0
  1113 ;; ---------------------------------------------------------------------------------
  1114 ;; (4) _Delay                                                4     2      2      46
  1115 ;;                                              0 COMMON     4     2      2
  1116 ;; ---------------------------------------------------------------------------------
  1117 ;; Estimated maximum stack depth 4
  1118 ;; ---------------------------------------------------------------------------------
  1119                           
  1120 ;; Call Graph Graphs:
  1121                           
  1122 ;; _main (ROOT)
  1123 ;;   _MainSystemInitialize
  1124 ;;     _ADCInitialize
  1125 ;;     _LCDInitialize
  1126 ;;       _LCDReset
  1127 ;;         _LCDWriteCommand
  1128 ;;           _LCDWriteByte
  1129 ;;             _LCDEnable
  1130 ;;               _Delay
  1131 ;;             _Delay
  1132 ;;       _LCDWriteCommand
  1133 ;;         _LCDWriteByte
  1134 ;;           _LCDEnable
  1135 ;;             _Delay
  1136 ;;           _Delay
  1137 ;;   _ADCReadData
  1138 ;;     _Delay
  1139 ;;     ___wmul
  1140 ;;     ___lwtoft
  1141 ;;       ___ftpack
  1142 ;;     ___ftmul
  1143 ;;       ___ftpack
  1144 ;;       ___ftadd (ARG)
  1145 ;;         ___ftpack
  1146 ;;         ___ftneg (ARG)
  1147 ;;           ___ftpack (ARG)
  1148 ;;         ___awtoft (ARG)
  1149 ;;           ___ftpack
  1150 ;;           ___ftneg (ARG)
  1151 ;;             ___ftpack (ARG)
  1152 ;;       ___ftneg (ARG)
  1153 ;;         ___ftpack (ARG)
  1154 ;;       ___awtoft (ARG)
  1155 ;;         ___ftpack
  1156 ;;         ___ftneg (ARG)
  1157 ;;           ___ftpack (ARG)
  1158 ;;     ___ftdiv
  1159 ;;       ___ftpack
  1160 ;;   _LCDWriteCommand
  1161 ;;     _LCDWriteByte
  1162 ;;       _LCDEnable
  1163 ;;         _Delay
  1164 ;;       _Delay
  1165 ;;   _LCDWriteFloat
  1166 ;;     ___ftge
  1167 ;;     _LCDWriteData
  1168 ;;       _LCDWriteByte
  1169 ;;         _LCDEnable
  1170 ;;           _Delay
  1171 ;;         _Delay
  1172 ;;     ___ftneg
  1173 ;;       ___ftpack (ARG)
  1174 ;;     ___fttol
  1175 ;;     _LCDWriteInteger
  1176 ;;       _LCDWriteData
  1177 ;;         _LCDWriteByte
  1178 ;;           _LCDEnable
  1179 ;;             _Delay
  1180 ;;           _Delay
  1181 ;;       ___awmod
  1182 ;;       ___awdiv
  1183 ;;     ___awtoft
  1184 ;;       ___ftpack
  1185 ;;       ___ftneg (ARG)
  1186 ;;         ___ftpack (ARG)
  1187 ;;     ___ftadd
  1188 ;;       ___ftpack
  1189 ;;       ___ftneg (ARG)
  1190 ;;         ___ftpack (ARG)
  1191 ;;       ___awtoft (ARG)
  1192 ;;         ___ftpack
  1193 ;;         ___ftneg (ARG)
  1194 ;;           ___ftpack (ARG)
  1195 ;;     ___ftmul
  1196 ;;       ___ftpack
  1197 ;;       ___ftadd (ARG)
  1198 ;;         ___ftpack
  1199 ;;         ___ftneg (ARG)
  1200 ;;           ___ftpack (ARG)
  1201 ;;         ___awtoft (ARG)
  1202 ;;           ___ftpack
  1203 ;;           ___ftneg (ARG)
  1204 ;;             ___ftpack (ARG)
  1205 ;;       ___ftneg (ARG)
  1206 ;;         ___ftpack (ARG)
  1207 ;;       ___awtoft (ARG)
  1208 ;;         ___ftpack
  1209 ;;         ___ftneg (ARG)
  1210 ;;           ___ftpack (ARG)
  1211 ;;     ___awmod
  1212 ;;     ___awdiv
  1213 ;;     _LCDWriteCommand
  1214 ;;       _LCDWriteByte
  1215 ;;         _LCDEnable
  1216 ;;           _Delay
  1217 ;;         _Delay
  1218 ;;     _LCDWriteString
  1219 ;;       _LCDWriteData
  1220 ;;         _LCDWriteByte
  1221 ;;           _LCDEnable
  1222 ;;             _Delay
  1223 ;;           _Delay
  1224 ;;   _LCDWriteString
  1225 ;;     _LCDWriteData
  1226 ;;       _LCDWriteByte
  1227 ;;         _LCDEnable
  1228 ;;           _Delay
  1229 ;;         _Delay
  1230 ;;
  1231                           
  1232 ;; Address spaces:
  1233                           
  1234 ;;Name               Size   Autos  Total    Cost      Usage
  1235 ;;BANK3               60      0      42       9       68.8%
  1236 ;;BITBANK3            60      0       0       8        0.0%
  1237 ;;SFR3                 0      0       0       4        0.0%
  1238 ;;BITSFR3              0      0       0       4        0.0%
  1239 ;;BANK2               60      0      23      11       36.5%
  1240 ;;BITBANK2            60      0       0      10        0.0%
  1241 ;;SFR2                 0      0       0       5        0.0%
  1242 ;;BITSFR2              0      0       0       5        0.0%
  1243 ;;SFR1                 0      0       0       2        0.0%
  1244 ;;BITSFR1              0      0       0       2        0.0%
  1245 ;;BANK1               50      0      49       7       91.3%
  1246 ;;BITBANK1            50      0       0       6        0.0%
  1247 ;;CODE                 0      0       0       0        0.0%
  1248 ;;DATA                 0      0     112      12        0.0%
  1249 ;;ABS                  0      0     10B       3        0.0%
  1250 ;;NULL                 0      0       0       0        0.0%
  1251 ;;STACK                0      0       7       2        0.0%
  1252 ;;BANK0               50     38      4F       5       98.8%
  1253 ;;BITBANK0            50      0       0       4        0.0%
  1254 ;;SFR0                 0      0       0       1        0.0%
  1255 ;;BITSFR0              0      0       0       1        0.0%
  1256 ;;COMMON               E      E       E       1      100.0%
  1257 ;;BITCOMMON            E      0       0       0        0.0%
  1258 ;;EEDATA             100      0       0       0        0.0%
  1259                           
  1260                           	global	_main
  1261                           psect	maintext,global,class=CODE,delta=2
  1262                           global __pmaintext
  1263  0365                     __pmaintext:
  1264                           
  1265 ;; *************** function _main *****************
  1266 ;; Defined at:
  1267 ;;		line 6 in file "C:\Users\X4ROY\Desktop\URE\LCD Interfacing\main.c"
  1268 ;; Parameters:    Size  Location     Type
  1269 ;;		None
  1270 ;; Auto vars:     Size  Location     Type
  1271 ;;  temp            3   53[BANK0 ] float 
  1272 ;; Return value:  Size  Location     Type
  1273 ;;		None               void
  1274 ;; Registers used:
  1275 ;;		wreg, fsr0l, fsr0h, status,2, status,0, btemp+1, pclath, cstack
  1276 ;; Tracked objects:
  1277 ;;		On entry : 17F/0
  1278 ;;		On exit  : 0/0
  1279 ;;		Unchanged: 0/0
  1280 ;; Data sizes:     COMMON   BANK0   BANK1   BANK3   BANK2
  1281 ;;      Params:         0       0       0       0       0
  1282 ;;      Locals:         0       3       0       0       0
  1283 ;;      Temps:          0       1       0       0       0
  1284 ;;      Totals:         0       4       0       0       0
  1285 ;;Total ram usage:        4 bytes
  1286 ;; Hardware stack levels required when called:    7
  1287 ;; This function calls:
  1288 ;;		_MainSystemInitialize
  1289 ;;		_ADCReadData
  1290 ;;		_LCDWriteCommand
  1291 ;;		_LCDWriteFloat
  1292 ;;		_LCDWriteString
  1293 ;; This function is called by:
  1294 ;;		Startup code after reset
  1295 ;; This function uses a non-reentrant model
  1296 ;;
  1297                           psect	maintext
  1298                           	file	"C:\Users\X4ROY\Desktop\URE\LCD Interfacing\main.c"
  1299                           	line	6
  1300                           	global	__size_of_main
  1301  00E7                     	__size_of_main	equ	__end_of_main-_main
  1302                           	
  1303  0365                     _main:	
  1304                           	opt	stack 1
  1305                           ; Regs used in _main: [wreg-fsr0h+status,2+status,0+btemp+1+pclath+cstack]
  1306                           	line	9
  1307                           	
  1308  0365                     l4321:	
  1309                           ;main.c: 8: float temp;
  1310                           ;main.c: 9: TRISE |= 0x07;
  1311  0365  3007               	movlw	(07h)
  1312  0366  1283               	bcf	status, 5	;RP0=0, select bank0
  1313  0367  1303               	bcf	status, 6	;RP1=0, select bank0
  1314  0368  00D4               	movwf	(??_main+0)+0
  1315  0369  0854               	movf	(??_main+0)+0,w
  1316  036A  1683               	bsf	status, 5	;RP0=1, select bank1
  1317  036B  1303               	bcf	status, 6	;RP1=0, select bank1
  1318  036C  0489               	iorwf	(137)^080h,f	;volatile
  1319                           	line	10
  1320                           ;main.c: 10: PORTE |= 0x07;
  1321  036D  3007               	movlw	(07h)
  1322  036E  1283               	bcf	status, 5	;RP0=0, select bank0
  1323  036F  1303               	bcf	status, 6	;RP1=0, select bank0
  1324  0370  00D4               	movwf	(??_main+0)+0
  1325  0371  0854               	movf	(??_main+0)+0,w
  1326  0372  0489               	iorwf	(9),f	;volatile
  1327                           	line	11
  1328                           	
  1329  0373                     l4323:	
  1330                           ;main.c: 11: MainSystemInitialize();
  1331  0373  120A  158A  2492   	fcall	_MainSystemInitialize
              120A  118A         
  1332  0378  2B79               	goto	l4325
  1333                           	line	14
  1334                           ;main.c: 13: for(;;)
  1335                           	
  1336  0379                     l1227:	
  1337                           	line	16
  1338                           	
  1339  0379                     l4325:	
  1340                           ;main.c: 14: {
  1341                           ;main.c: 16: temp = ADCReadData(0x00);
  1342  0379  3000               	movlw	(0)
  1343  037A  120A  118A  21F2   	fcall	_ADCReadData
              120A  118A         
  1344  037F  1283               	bcf	status, 5	;RP0=0, select bank0
  1345  0380  1303               	bcf	status, 6	;RP1=0, select bank0
  1346  0381  0840               	movf	(0+(?_ADCReadData)),w
  1347  0382  00D5               	movwf	(main@temp)
  1348  0383  0841               	movf	(1+(?_ADCReadData)),w
  1349  0384  00D6               	movwf	(main@temp+1)
  1350  0385  0842               	movf	(2+(?_ADCReadData)),w
  1351  0386  00D7               	movwf	(main@temp+2)
  1352                           	line	17
  1353                           	
  1354  0387                     l4327:	
  1355                           ;main.c: 17: LCDWriteCommand(0x80);
  1356  0387  3080               	movlw	(080h)
  1357  0388  120A  158A  247C   	fcall	_LCDWriteCommand
              120A  118A         
  1358                           	line	18
  1359                           	
  1360  038D                     l4329:	
  1361                           ;main.c: 18: LCDWriteFloat(temp);
  1362  038D  1283               	bcf	status, 5	;RP0=0, select bank0
  1363  038E  1303               	bcf	status, 6	;RP1=0, select bank0
  1364  038F  0855               	movf	(main@temp),w
  1365  0390  00C0               	movwf	(?_LCDWriteFloat)
  1366  0391  0856               	movf	(main@temp+1),w
  1367  0392  00C1               	movwf	(?_LCDWriteFloat+1)
  1368  0393  0857               	movf	(main@temp+2),w
  1369  0394  00C2               	movwf	(?_LCDWriteFloat+2)
  1370  0395  120A  118A  2684   	fcall	_LCDWriteFloat
              120A  118A         
  1371                           	line	20
  1372                           	
  1373  039A                     l4331:	
  1374                           ;main.c: 20: temp = ADCReadData(0x08);
  1375  039A  3008               	movlw	(08h)
  1376  039B  120A  118A  21F2   	fcall	_ADCReadData
              120A  118A         
  1377  03A0  1283               	bcf	status, 5	;RP0=0, select bank0
  1378  03A1  1303               	bcf	status, 6	;RP1=0, select bank0
  1379  03A2  0840               	movf	(0+(?_ADCReadData)),w
  1380  03A3  00D5               	movwf	(main@temp)
  1381  03A4  0841               	movf	(1+(?_ADCReadData)),w
  1382  03A5  00D6               	movwf	(main@temp+1)
  1383  03A6  0842               	movf	(2+(?_ADCReadData)),w
  1384  03A7  00D7               	movwf	(main@temp+2)
  1385                           	line	21
  1386                           	
  1387  03A8                     l4333:	
  1388                           ;main.c: 21: LCDWriteCommand(0x8A);
  1389  03A8  308A               	movlw	(08Ah)
  1390  03A9  120A  158A  247C   	fcall	_LCDWriteCommand
              120A  118A         
  1391                           	line	22
  1392                           	
  1393  03AE                     l4335:	
  1394                           ;main.c: 22: LCDWriteFloat(temp);
  1395  03AE  1283               	bcf	status, 5	;RP0=0, select bank0
  1396  03AF  1303               	bcf	status, 6	;RP1=0, select bank0
  1397  03B0  0855               	movf	(main@temp),w
  1398  03B1  00C0               	movwf	(?_LCDWriteFloat)
  1399  03B2  0856               	movf	(main@temp+1),w
  1400  03B3  00C1               	movwf	(?_LCDWriteFloat+1)
  1401  03B4  0857               	movf	(main@temp+2),w
  1402  03B5  00C2               	movwf	(?_LCDWriteFloat+2)
  1403  03B6  120A  118A  2684   	fcall	_LCDWriteFloat
              120A  118A         
  1404                           	line	24
  1405                           	
  1406  03BB                     l4337:	
  1407                           ;main.c: 24: temp = ADCReadData(0x10);
  1408  03BB  3010               	movlw	(010h)
  1409  03BC  120A  118A  21F2   	fcall	_ADCReadData
              120A  118A         
  1410  03C1  1283               	bcf	status, 5	;RP0=0, select bank0
  1411  03C2  1303               	bcf	status, 6	;RP1=0, select bank0
  1412  03C3  0840               	movf	(0+(?_ADCReadData)),w
  1413  03C4  00D5               	movwf	(main@temp)
  1414  03C5  0841               	movf	(1+(?_ADCReadData)),w
  1415  03C6  00D6               	movwf	(main@temp+1)
  1416  03C7  0842               	movf	(2+(?_ADCReadData)),w
  1417  03C8  00D7               	movwf	(main@temp+2)
  1418                           	line	25
  1419                           	
  1420  03C9                     l4339:	
  1421                           ;main.c: 25: LCDWriteCommand(0xC0);
  1422  03C9  30C0               	movlw	(0C0h)
  1423  03CA  120A  158A  247C   	fcall	_LCDWriteCommand
              120A  118A         
  1424                           	line	26
  1425                           	
  1426  03CF                     l4341:	
  1427                           ;main.c: 26: LCDWriteFloat(temp);
  1428  03CF  1283               	bcf	status, 5	;RP0=0, select bank0
  1429  03D0  1303               	bcf	status, 6	;RP1=0, select bank0
  1430  03D1  0855               	movf	(main@temp),w
  1431  03D2  00C0               	movwf	(?_LCDWriteFloat)
  1432  03D3  0856               	movf	(main@temp+1),w
  1433  03D4  00C1               	movwf	(?_LCDWriteFloat+1)
  1434  03D5  0857               	movf	(main@temp+2),w
  1435  03D6  00C2               	movwf	(?_LCDWriteFloat+2)
  1436  03D7  120A  118A  2684   	fcall	_LCDWriteFloat
              120A  118A         
  1437                           	line	28
  1438                           	
  1439  03DC                     l4343:	
  1440                           ;main.c: 28: temp = ADCReadData(0x18);
  1441  03DC  3018               	movlw	(018h)
  1442  03DD  120A  118A  21F2   	fcall	_ADCReadData
              120A  118A         
  1443  03E2  1283               	bcf	status, 5	;RP0=0, select bank0
  1444  03E3  1303               	bcf	status, 6	;RP1=0, select bank0
  1445  03E4  0840               	movf	(0+(?_ADCReadData)),w
  1446  03E5  00D5               	movwf	(main@temp)
  1447  03E6  0841               	movf	(1+(?_ADCReadData)),w
  1448  03E7  00D6               	movwf	(main@temp+1)
  1449  03E8  0842               	movf	(2+(?_ADCReadData)),w
  1450  03E9  00D7               	movwf	(main@temp+2)
  1451                           	line	29
  1452                           	
  1453  03EA                     l4345:	
  1454                           ;main.c: 29: LCDWriteCommand(0xCA);
  1455  03EA  30CA               	movlw	(0CAh)
  1456  03EB  120A  158A  247C   	fcall	_LCDWriteCommand
              120A  118A         
  1457                           	line	30
  1458                           	
  1459  03F0                     l4347:	
  1460                           ;main.c: 30: LCDWriteFloat(temp);
  1461  03F0  1283               	bcf	status, 5	;RP0=0, select bank0
  1462  03F1  1303               	bcf	status, 6	;RP1=0, select bank0
  1463  03F2  0855               	movf	(main@temp),w
  1464  03F3  00C0               	movwf	(?_LCDWriteFloat)
  1465  03F4  0856               	movf	(main@temp+1),w
  1466  03F5  00C1               	movwf	(?_LCDWriteFloat+1)
  1467  03F6  0857               	movf	(main@temp+2),w
  1468  03F7  00C2               	movwf	(?_LCDWriteFloat+2)
  1469  03F8  120A  118A  2684   	fcall	_LCDWriteFloat
              120A  118A         
  1470                           	line	32
  1471                           	
  1472  03FD                     l4349:	
  1473                           ;main.c: 32: if(RE0 == 1)
  1474  03FD  1283               	bcf	status, 5	;RP0=0, select bank0
  1475  03FE  1303               	bcf	status, 6	;RP1=0, select bank0
  1476  03FF  1C09               	btfss	(72/8),(72)&7
  1477  0400  2C02               	goto	u3631
  1478  0401  2C03               	goto	u3630
  1479  0402                     u3631:
  1480  0402  2C10               	goto	l1228
  1481  0403                     u3630:
  1482                           	line	34
  1483                           	
  1484  0403                     l4351:	
  1485                           ;main.c: 33: {
  1486                           ;main.c: 34: LCDWriteCommand(0x94);
  1487  0403  3094               	movlw	(094h)
  1488  0404  120A  158A  247C   	fcall	_LCDWriteCommand
              120A  118A         
  1489                           	line	35
  1490                           	
  1491  0409                     l4353:	
  1492                           ;main.c: 35: LCDWriteString("IR ON ");
  1493  0409  3024               	movlw	((STR_4-__stringbase))&0ffh
  1494  040A  120A  158A  2538   	fcall	_LCDWriteString
              120A  118A         
  1495                           	line	36
  1496                           ;main.c: 36: }
  1497  040F  2C22               	goto	l4359
  1498                           	line	37
  1499                           	
  1500  0410                     l1228:	
  1501                           ;main.c: 37: else if(RE0 == 0)
  1502  0410  1809               	btfsc	(72/8),(72)&7
  1503  0411  2C13               	goto	u3641
  1504  0412  2C14               	goto	u3640
  1505  0413                     u3641:
  1506  0413  2C22               	goto	l4359
  1507  0414                     u3640:
  1508                           	line	39
  1509                           	
  1510  0414                     l4355:	
  1511                           ;main.c: 38: {
  1512                           ;main.c: 39: LCDWriteCommand(0x94);
  1513  0414  3094               	movlw	(094h)
  1514  0415  120A  158A  247C   	fcall	_LCDWriteCommand
              120A  118A         
  1515                           	line	40
  1516                           	
  1517  041A                     l4357:	
  1518                           ;main.c: 40: LCDWriteString("IR OFF");
  1519  041A  302B               	movlw	((STR_5-__stringbase))&0ffh
  1520  041B  120A  158A  2538   	fcall	_LCDWriteString
              120A  118A         
  1521  0420  2C22               	goto	l4359
  1522                           	line	41
  1523                           	
  1524  0421                     l1230:	
  1525  0421  2C22               	goto	l4359
  1526                           	line	43
  1527                           	
  1528  0422                     l1229:	
  1529                           	
  1530  0422                     l4359:	
  1531                           ;main.c: 41: }
  1532                           ;main.c: 43: if(RE1 == 1)
  1533  0422  1283               	bcf	status, 5	;RP0=0, select bank0
  1534  0423  1303               	bcf	status, 6	;RP1=0, select bank0
  1535  0424  1C89               	btfss	(73/8),(73)&7
  1536  0425  2C27               	goto	u3651
  1537  0426  2C28               	goto	u3650
  1538  0427                     u3651:
  1539  0427  2C35               	goto	l4365
  1540  0428                     u3650:
  1541                           	line	45
  1542                           	
  1543  0428                     l4361:	
  1544                           ;main.c: 44: {
  1545                           ;main.c: 45: LCDWriteCommand(0xD4);
  1546  0428  30D4               	movlw	(0D4h)
  1547  0429  120A  158A  247C   	fcall	_LCDWriteCommand
              120A  118A         
  1548                           	line	46
  1549                           	
  1550  042E                     l4363:	
  1551                           ;main.c: 46: LCDWriteString("hALL ON ");
  1552  042E  3012               	movlw	((STR_6-__stringbase))&0ffh
  1553  042F  120A  158A  2538   	fcall	_LCDWriteString
              120A  118A         
  1554  0434  2C35               	goto	l4365
  1555                           	line	47
  1556                           	
  1557  0435                     l1231:	
  1558                           	line	48
  1559                           	
  1560  0435                     l4365:	
  1561                           ;main.c: 47: }
  1562                           ;main.c: 48: if(RE1 == 0)
  1563  0435  1283               	bcf	status, 5	;RP0=0, select bank0
  1564  0436  1303               	bcf	status, 6	;RP1=0, select bank0
  1565  0437  1889               	btfsc	(73/8),(73)&7
  1566  0438  2C3A               	goto	u3661
  1567  0439  2C3B               	goto	u3660
  1568  043A                     u3661:
  1569  043A  2B79               	goto	l4325
  1570  043B                     u3660:
  1571                           	line	50
  1572                           	
  1573  043B                     l4367:	
  1574                           ;main.c: 49: {
  1575                           ;main.c: 50: LCDWriteCommand(0xD4);
  1576  043B  30D4               	movlw	(0D4h)
  1577  043C  120A  158A  247C   	fcall	_LCDWriteCommand
              120A  118A         
  1578                           	line	51
  1579                           	
  1580  0441                     l4369:	
  1581                           ;main.c: 51: LCDWriteString("hALL Off");
  1582  0441  301B               	movlw	((STR_7-__stringbase))&0ffh
  1583  0442  120A  158A  2538   	fcall	_LCDWriteString
              120A  118A         
  1584  0447  2B79               	goto	l4325
  1585                           	line	52
  1586                           	
  1587  0448                     l1232:	
  1588                           	line	53
  1589                           ;main.c: 52: }
  1590                           ;main.c: 53: }
  1591  0448  2B79               	goto	l4325
  1592                           	
  1593  0449                     l1233:	
  1594                           	line	54
  1595                           	
  1596  0449                     l1234:	
  1597                           	global	start
  1598  0449  120A  118A  2800   	ljmp	start
  1599                           	opt stack 0
  1600                           GLOBAL	__end_of_main
  1601  044C                     	__end_of_main:
  1602 ;; =============== function _main ends ============
  1603                           
  1604                           	signat	_main,88
  1605                           	global	_MainSystemInitialize
  1606                           psect	text510,local,class=CODE,delta=2
  1607                           global __ptext510
  1608  0C92                     __ptext510:
  1609                           
  1610 ;; *************** function _MainSystemInitialize *****************
  1611 ;; Defined at:
  1612 ;;		line 57 in file "C:\Users\X4ROY\Desktop\URE\LCD Interfacing\main.c"
  1613 ;; Parameters:    Size  Location     Type
  1614 ;;		None
  1615 ;; Auto vars:     Size  Location     Type
  1616 ;;		None
  1617 ;; Return value:  Size  Location     Type
  1618 ;;		None               void
  1619 ;; Registers used:
  1620 ;;		wreg, status,2, status,0, pclath, cstack
  1621 ;; Tracked objects:
  1622 ;;		On entry : 0/0
  1623 ;;		On exit  : 0/0
  1624 ;;		Unchanged: 0/0
  1625 ;; Data sizes:     COMMON   BANK0   BANK1   BANK3   BANK2
  1626 ;;      Params:         0       0       0       0       0
  1627 ;;      Locals:         0       0       0       0       0
  1628 ;;      Temps:          0       0       0       0       0
  1629 ;;      Totals:         0       0       0       0       0
  1630 ;;Total ram usage:        0 bytes
  1631 ;; Hardware stack levels used:    1
  1632 ;; Hardware stack levels required when called:    6
  1633 ;; This function calls:
  1634 ;;		_ADCInitialize
  1635 ;;		_LCDInitialize
  1636 ;; This function is called by:
  1637 ;;		_main
  1638 ;; This function uses a non-reentrant model
  1639 ;;
  1640                           psect	text510
  1641                           	file	"C:\Users\X4ROY\Desktop\URE\LCD Interfacing\main.c"
  1642                           	line	57
  1643                           	global	__size_of_MainSystemInitialize
  1644  000B                     	__size_of_MainSystemInitialize	equ	__end_of_MainSystemInitialize-_MainSystemInitialize
  1645                           	
  1646  0C92                     _MainSystemInitialize:	
  1647                           	opt	stack 1
  1648                           ; Regs used in _MainSystemInitialize: [wreg+status,2+status,0+pclath+cstack]
  1649                           	line	58
  1650                           	
  1651  0C92                     l4317:	
  1652                           ;main.c: 58: ADCInitialize();
  1653  0C92  120A  158A  24D9   	fcall	_ADCInitialize
              120A  158A         
  1654                           	line	59
  1655                           	
  1656  0C97                     l4319:	
  1657                           ;main.c: 59: LCDInitialize();
  1658  0C97  120A  158A  257C   	fcall	_LCDInitialize
              120A  158A         
  1659                           	line	60
  1660                           	
  1661  0C9C                     l1237:	
  1662  0C9C  0008               	return
  1663                           	opt stack 0
  1664                           GLOBAL	__end_of_MainSystemInitialize
  1665  0C9D                     	__end_of_MainSystemInitialize:
  1666 ;; =============== function _MainSystemInitialize ends ============
  1667                           
  1668                           	signat	_MainSystemInitialize,88
  1669                           	global	_LCDWriteFloat
  1670                           psect	text511,local,class=CODE,delta=2
  1671                           global __ptext511
  1672  0684                     __ptext511:
  1673                           
  1674 ;; *************** function _LCDWriteFloat *****************
  1675 ;; Defined at:
  1676 ;;		line 90 in file "C:\Users\X4ROY\Desktop\URE\LCD Interfacing\LCD.c"
  1677 ;; Parameters:    Size  Location     Type
  1678 ;;  FloatNumber     3   32[BANK0 ] float 
  1679 ;; Auto vars:     Size  Location     Type
  1680 ;;  c               6   36[BANK0 ] unsigned char [6]
  1681 ;;  n               2   48[BANK0 ] int 
  1682 ;;  Temp            2   45[BANK0 ] int 
  1683 ;;  i               1   47[BANK0 ] unsigned char 
  1684 ;; Return value:  Size  Location     Type
  1685 ;;		None               void
  1686 ;; Registers used:
  1687 ;;		wreg, fsr0l, fsr0h, status,2, status,0, btemp+1, pclath, cstack
  1688 ;; Tracked objects:
  1689 ;;		On entry : 0/0
  1690 ;;		On exit  : 0/0
  1691 ;;		Unchanged: 0/0
  1692 ;; Data sizes:     COMMON   BANK0   BANK1   BANK3   BANK2
  1693 ;;      Params:         0       3       0       0       0
  1694 ;;      Locals:         0      14       0       0       0
  1695 ;;      Temps:          0       1       0       0       0
  1696 ;;      Totals:         0      18       0       0       0
  1697 ;;Total ram usage:       18 bytes
  1698 ;; Hardware stack levels used:    1
  1699 ;; Hardware stack levels required when called:    5
  1700 ;; This function calls:
  1701 ;;		___ftge
  1702 ;;		_LCDWriteData
  1703 ;;		___ftneg
  1704 ;;		___fttol
  1705 ;;		_LCDWriteInteger
  1706 ;;		___awtoft
  1707 ;;		___ftadd
  1708 ;;		___ftmul
  1709 ;;		___awmod
  1710 ;;		___awdiv
  1711 ;;		_LCDWriteCommand
  1712 ;;		_LCDWriteString
  1713 ;; This function is called by:
  1714 ;;		_main
  1715 ;; This function uses a non-reentrant model
  1716 ;;
  1717                           psect	text511
  1718                           	file	"C:\Users\X4ROY\Desktop\URE\LCD Interfacing\LCD.c"
  1719                           	line	90
  1720                           	global	__size_of_LCDWriteFloat
  1721  017C                     	__size_of_LCDWriteFloat	equ	__end_of_LCDWriteFloat-_LCDWriteFloat
  1722                           	
  1723  0684                     _LCDWriteFloat:	
  1724                           	opt	stack 2
  1725                           ; Regs used in _LCDWriteFloat: [wreg-fsr0h+status,2+status,0+btemp+1+pclath+cstack]
  1726                           	line	92
  1727                           	
  1728  0684                     l4267:	
  1729                           ;LCD.c: 91: unsigned char c[6];
  1730                           ;LCD.c: 92: unsigned char i = 0;
  1731  0684  1003               	clrc
  1732  0685  3000               	movlw	0
  1733  0686  1803               	btfsc	status,0
  1734  0687  3001               	movlw	1
  1735  0688  1283               	bcf	status, 5	;RP0=0, select bank0
  1736  0689  1303               	bcf	status, 6	;RP1=0, select bank0
  1737  068A  00CF               	movwf	(LCDWriteFloat@i)
  1738                           	line	94
  1739                           	
  1740  068B                     l4269:	
  1741                           ;LCD.c: 93: int n, Temp;
  1742                           ;LCD.c: 94: if(FloatNumber < 0)
  1743  068B  0840               	movf	(LCDWriteFloat@FloatNumber),w
  1744  068C  00F0               	movwf	(?___ftge)
  1745  068D  0841               	movf	(LCDWriteFloat@FloatNumber+1),w
  1746  068E  00F1               	movwf	(?___ftge+1)
  1747  068F  0842               	movf	(LCDWriteFloat@FloatNumber+2),w
  1748  0690  00F2               	movwf	(?___ftge+2)
  1749  0691  3000               	movlw	0x0
  1750  0692  00F3               	movwf	0+(?___ftge)+03h
  1751  0693  3000               	movlw	0x0
  1752  0694  00F4               	movwf	1+(?___ftge)+03h
  1753  0695  3000               	movlw	0x0
  1754  0696  00F5               	movwf	2+(?___ftge)+03h
  1755  0697  120A  158A  271B   	fcall	___ftge
              120A  118A         
  1756  069C  1803               	btfsc	status,0
  1757  069D  2E9F               	goto	u3571
  1758  069E  2EA0               	goto	u3570
  1759  069F                     u3571:
  1760  069F  2EBC               	goto	l4275
  1761  06A0                     u3570:
  1762                           	line	96
  1763                           	
  1764  06A0                     l4271:	
  1765                           ;LCD.c: 95: {
  1766                           ;LCD.c: 96: LCDWriteData('-');
  1767  06A0  302D               	movlw	(02Dh)
  1768  06A1  120A  158A  2487   	fcall	_LCDWriteData
              120A  118A         
  1769                           	line	97
  1770                           	
  1771  06A6                     l4273:	
  1772                           ;LCD.c: 97: FloatNumber = -(FloatNumber);
  1773  06A6  1283               	bcf	status, 5	;RP0=0, select bank0
  1774  06A7  1303               	bcf	status, 6	;RP1=0, select bank0
  1775  06A8  0840               	movf	(LCDWriteFloat@FloatNumber),w
  1776  06A9  00F8               	movwf	(?___ftneg)
  1777  06AA  0841               	movf	(LCDWriteFloat@FloatNumber+1),w
  1778  06AB  00F9               	movwf	(?___ftneg+1)
  1779  06AC  0842               	movf	(LCDWriteFloat@FloatNumber+2),w
  1780  06AD  00FA               	movwf	(?___ftneg+2)
  1781  06AE  120A  158A  249D   	fcall	___ftneg
              120A  118A         
  1782  06B3  0878               	movf	(0+(?___ftneg)),w
  1783  06B4  1283               	bcf	status, 5	;RP0=0, select bank0
  1784  06B5  1303               	bcf	status, 6	;RP1=0, select bank0
  1785  06B6  00C0               	movwf	(LCDWriteFloat@FloatNumber)
  1786  06B7  0879               	movf	(1+(?___ftneg)),w
  1787  06B8  00C1               	movwf	(LCDWriteFloat@FloatNumber+1)
  1788  06B9  087A               	movf	(2+(?___ftneg)),w
  1789  06BA  00C2               	movwf	(LCDWriteFloat@FloatNumber+2)
  1790  06BB  2EBC               	goto	l4275
  1791                           	line	98
  1792                           	
  1793  06BC                     l614:	
  1794                           	line	99
  1795                           	
  1796  06BC                     l4275:	
  1797                           ;LCD.c: 98: }
  1798                           ;LCD.c: 99: n = FloatNumber;
  1799  06BC  1283               	bcf	status, 5	;RP0=0, select bank0
  1800  06BD  1303               	bcf	status, 6	;RP1=0, select bank0
  1801  06BE  0840               	movf	(LCDWriteFloat@FloatNumber),w
  1802  06BF  00F0               	movwf	(?___fttol)
  1803  06C0  0841               	movf	(LCDWriteFloat@FloatNumber+1),w
  1804  06C1  00F1               	movwf	(?___fttol+1)
  1805  06C2  0842               	movf	(LCDWriteFloat@FloatNumber+2),w
  1806  06C3  00F2               	movwf	(?___fttol+2)
  1807  06C4  120A  118A  214E   	fcall	___fttol
              120A  118A         
  1808  06C9  0871               	movf	1+(((0+(?___fttol)))),w
  1809  06CA  1283               	bcf	status, 5	;RP0=0, select bank0
  1810  06CB  1303               	bcf	status, 6	;RP1=0, select bank0
  1811  06CC  01D1               	clrf	(LCDWriteFloat@n+1)
  1812  06CD  07D1               	addwf	(LCDWriteFloat@n+1)
  1813  06CE  0870               	movf	0+(((0+(?___fttol)))),w
  1814  06CF  01D0               	clrf	(LCDWriteFloat@n)
  1815  06D0  07D0               	addwf	(LCDWriteFloat@n)
  1816                           
  1817                           	line	100
  1818                           	
  1819  06D1                     l4277:	
  1820                           ;LCD.c: 100: Temp = n;
  1821  06D1  0851               	movf	(LCDWriteFloat@n+1),w
  1822  06D2  01CE               	clrf	(LCDWriteFloat@Temp+1)
  1823  06D3  07CE               	addwf	(LCDWriteFloat@Temp+1)
  1824  06D4  0850               	movf	(LCDWriteFloat@n),w
  1825  06D5  01CD               	clrf	(LCDWriteFloat@Temp)
  1826  06D6  07CD               	addwf	(LCDWriteFloat@Temp)
  1827                           
  1828                           	line	101
  1829                           	
  1830  06D7                     l4279:	
  1831                           ;LCD.c: 101: LCDWriteInteger(n);
  1832  06D7  0851               	movf	(LCDWriteFloat@n+1),w
  1833  06D8  01FA               	clrf	(?_LCDWriteInteger+1)
  1834  06D9  07FA               	addwf	(?_LCDWriteInteger+1)
  1835  06DA  0850               	movf	(LCDWriteFloat@n),w
  1836  06DB  01F9               	clrf	(?_LCDWriteInteger)
  1837  06DC  07F9               	addwf	(?_LCDWriteInteger)
  1838                           
  1839  06DD  120A  118A  20CD   	fcall	_LCDWriteInteger
              120A  118A         
  1840                           	line	102
  1841                           	
  1842  06E2                     l4281:	
  1843                           ;LCD.c: 102: LCDWriteData('.');
  1844  06E2  302E               	movlw	(02Eh)
  1845  06E3  120A  158A  2487   	fcall	_LCDWriteData
              120A  118A         
  1846                           	line	103
  1847                           	
  1848  06E8                     l4283:	
  1849                           ;LCD.c: 103: FloatNumber = ((FloatNumber - n) + 1) * 1000;
  1850  06E8  1283               	bcf	status, 5	;RP0=0, select bank0
  1851  06E9  1303               	bcf	status, 6	;RP1=0, select bank0
  1852  06EA  0840               	movf	(LCDWriteFloat@FloatNumber),w
  1853  06EB  00A3               	movwf	(?___ftadd)
  1854  06EC  0841               	movf	(LCDWriteFloat@FloatNumber+1),w
  1855  06ED  00A4               	movwf	(?___ftadd+1)
  1856  06EE  0842               	movf	(LCDWriteFloat@FloatNumber+2),w
  1857  06EF  00A5               	movwf	(?___ftadd+2)
  1858  06F0  0851               	movf	(LCDWriteFloat@n+1),w
  1859  06F1  01FC               	clrf	(?___awtoft+1)
  1860  06F2  07FC               	addwf	(?___awtoft+1)
  1861  06F3  0850               	movf	(LCDWriteFloat@n),w
  1862  06F4  01FB               	clrf	(?___awtoft)
  1863  06F5  07FB               	addwf	(?___awtoft)
  1864                           
  1865  06F6  120A  158A  25FF   	fcall	___awtoft
              120A  118A         
  1866  06FB  087B               	movf	(0+(?___awtoft)),w
  1867  06FC  00F8               	movwf	(?___ftneg)
  1868  06FD  087C               	movf	(1+(?___awtoft)),w
  1869  06FE  00F9               	movwf	(?___ftneg+1)
  1870  06FF  087D               	movf	(2+(?___awtoft)),w
  1871  0700  00FA               	movwf	(?___ftneg+2)
  1872  0701  120A  158A  249D   	fcall	___ftneg
              120A  118A         
  1873  0706  0878               	movf	(0+(?___ftneg)),w
  1874  0707  1283               	bcf	status, 5	;RP0=0, select bank0
  1875  0708  1303               	bcf	status, 6	;RP1=0, select bank0
  1876  0709  00A6               	movwf	0+(?___ftadd)+03h
  1877  070A  0879               	movf	(1+(?___ftneg)),w
  1878  070B  00A7               	movwf	1+(?___ftadd)+03h
  1879  070C  087A               	movf	(2+(?___ftneg)),w
  1880  070D  00A8               	movwf	2+(?___ftadd)+03h
  1881  070E  120A  118A  253A   	fcall	___ftadd
              120A  118A         
  1882  0713  1283               	bcf	status, 5	;RP0=0, select bank0
  1883  0714  1303               	bcf	status, 6	;RP1=0, select bank0
  1884  0715  0823               	movf	(0+(?___ftadd)),w
  1885  0716  00CA               	movwf	(_LCDWriteFloat$1282)
  1886  0717  0824               	movf	(1+(?___ftadd)),w
  1887  0718  00CB               	movwf	(_LCDWriteFloat$1282+1)
  1888  0719  0825               	movf	(2+(?___ftadd)),w
  1889  071A  00CC               	movwf	(_LCDWriteFloat$1282+2)
  1890                           	
  1891  071B                     l4285:	
  1892                           ;LCD.c: 103: FloatNumber = ((FloatNumber - n) + 1) * 1000;
  1893  071B  3000               	movlw	0x0
  1894  071C  00B0               	movwf	(?___ftmul)
  1895  071D  307A               	movlw	0x7a
  1896  071E  00B1               	movwf	(?___ftmul+1)
  1897  071F  3044               	movlw	0x44
  1898  0720  00B2               	movwf	(?___ftmul+2)
  1899  0721  3000               	movlw	0x0
  1900  0722  00A3               	movwf	(?___ftadd)
  1901  0723  3080               	movlw	0x80
  1902  0724  00A4               	movwf	(?___ftadd+1)
  1903  0725  303F               	movlw	0x3f
  1904  0726  00A5               	movwf	(?___ftadd+2)
  1905  0727  084A               	movf	(_LCDWriteFloat$1282),w
  1906  0728  00A6               	movwf	0+(?___ftadd)+03h
  1907  0729  084B               	movf	(_LCDWriteFloat$1282+1),w
  1908  072A  00A7               	movwf	1+(?___ftadd)+03h
  1909  072B  084C               	movf	(_LCDWriteFloat$1282+2),w
  1910  072C  00A8               	movwf	2+(?___ftadd)+03h
  1911  072D  120A  118A  253A   	fcall	___ftadd
              120A  118A         
  1912  0732  1283               	bcf	status, 5	;RP0=0, select bank0
  1913  0733  1303               	bcf	status, 6	;RP1=0, select bank0
  1914  0734  0823               	movf	(0+(?___ftadd)),w
  1915  0735  00B3               	movwf	0+(?___ftmul)+03h
  1916  0736  0824               	movf	(1+(?___ftadd)),w
  1917  0737  00B4               	movwf	1+(?___ftmul)+03h
  1918  0738  0825               	movf	(2+(?___ftadd)),w
  1919  0739  00B5               	movwf	2+(?___ftmul)+03h
  1920  073A  120A  118A  244C   	fcall	___ftmul
              120A  118A         
  1921  073F  1283               	bcf	status, 5	;RP0=0, select bank0
  1922  0740  1303               	bcf	status, 6	;RP1=0, select bank0
  1923  0741  0830               	movf	(0+(?___ftmul)),w
  1924  0742  00C0               	movwf	(LCDWriteFloat@FloatNumber)
  1925  0743  0831               	movf	(1+(?___ftmul)),w
  1926  0744  00C1               	movwf	(LCDWriteFloat@FloatNumber+1)
  1927  0745  0832               	movf	(2+(?___ftmul)),w
  1928  0746  00C2               	movwf	(LCDWriteFloat@FloatNumber+2)
  1929                           	line	104
  1930                           	
  1931  0747                     l4287:	
  1932                           ;LCD.c: 104: n = FloatNumber;
  1933  0747  0840               	movf	(LCDWriteFloat@FloatNumber),w
  1934  0748  00F0               	movwf	(?___fttol)
  1935  0749  0841               	movf	(LCDWriteFloat@FloatNumber+1),w
  1936  074A  00F1               	movwf	(?___fttol+1)
  1937  074B  0842               	movf	(LCDWriteFloat@FloatNumber+2),w
  1938  074C  00F2               	movwf	(?___fttol+2)
  1939  074D  120A  118A  214E   	fcall	___fttol
              120A  118A         
  1940  0752  0871               	movf	1+(((0+(?___fttol)))),w
  1941  0753  1283               	bcf	status, 5	;RP0=0, select bank0
  1942  0754  1303               	bcf	status, 6	;RP1=0, select bank0
  1943  0755  01D1               	clrf	(LCDWriteFloat@n+1)
  1944  0756  07D1               	addwf	(LCDWriteFloat@n+1)
  1945  0757  0870               	movf	0+(((0+(?___fttol)))),w
  1946  0758  01D0               	clrf	(LCDWriteFloat@n)
  1947  0759  07D0               	addwf	(LCDWriteFloat@n)
  1948                           
  1949                           	line	106
  1950                           ;LCD.c: 106: while(n > 0)
  1951  075A  2F93               	goto	l4295
  1952                           	
  1953  075B                     l616:	
  1954                           	line	108
  1955                           	
  1956  075B                     l4289:	
  1957                           ;LCD.c: 107: {
  1958                           ;LCD.c: 108: c[i++] = (n % 10) + 48;
  1959  075B  300A               	movlw	low(0Ah)
  1960  075C  00F0               	movwf	(?___awmod)
  1961  075D  3000               	movlw	high(0Ah)
  1962  075E  00F1               	movwf	((?___awmod))+1
  1963  075F  1283               	bcf	status, 5	;RP0=0, select bank0
  1964  0760  1303               	bcf	status, 6	;RP1=0, select bank0
  1965  0761  0851               	movf	(LCDWriteFloat@n+1),w
  1966  0762  01F3               	clrf	1+(?___awmod)+02h
  1967  0763  07F3               	addwf	1+(?___awmod)+02h
  1968  0764  0850               	movf	(LCDWriteFloat@n),w
  1969  0765  01F2               	clrf	0+(?___awmod)+02h
  1970  0766  07F2               	addwf	0+(?___awmod)+02h
  1971                           
  1972  0767  120A  158A  26B1   	fcall	___awmod
              120A  118A         
  1973  076C  0870               	movf	(0+(?___awmod)),w
  1974  076D  3E30               	addlw	030h
  1975  076E  1283               	bcf	status, 5	;RP0=0, select bank0
  1976  076F  1303               	bcf	status, 6	;RP1=0, select bank0
  1977  0770  00C3               	movwf	(??_LCDWriteFloat+0)+0
  1978  0771  084F               	movf	(LCDWriteFloat@i),w
  1979  0772  3E44               	addlw	LCDWriteFloat@c&0ffh
  1980  0773  0084               	movwf	fsr0
  1981  0774  0843               	movf	(??_LCDWriteFloat+0)+0,w
  1982  0775  1383               	bcf	status, 7	;select IRP bank0
  1983  0776  0080               	movwf	indf
  1984                           	
  1985  0777                     l4291:	
  1986  0777  3001               	movlw	(01h)
  1987  0778  00C3               	movwf	(??_LCDWriteFloat+0)+0
  1988  0779  0843               	movf	(??_LCDWriteFloat+0)+0,w
  1989  077A  07CF               	addwf	(LCDWriteFloat@i),f
  1990                           	line	109
  1991                           	
  1992  077B                     l4293:	
  1993                           ;LCD.c: 109: n /= 10;
  1994  077B  300A               	movlw	low(0Ah)
  1995  077C  00F0               	movwf	(?___awdiv)
  1996  077D  3000               	movlw	high(0Ah)
  1997  077E  00F1               	movwf	((?___awdiv))+1
  1998  077F  0851               	movf	(LCDWriteFloat@n+1),w
  1999  0780  01F3               	clrf	1+(?___awdiv)+02h
  2000  0781  07F3               	addwf	1+(?___awdiv)+02h
  2001  0782  0850               	movf	(LCDWriteFloat@n),w
  2002  0783  01F2               	clrf	0+(?___awdiv)+02h
  2003  0784  07F2               	addwf	0+(?___awdiv)+02h
  2004                           
  2005  0785  120A  158A  2787   	fcall	___awdiv
              120A  118A         
  2006  078A  0871               	movf	(1+(?___awdiv)),w
  2007  078B  1283               	bcf	status, 5	;RP0=0, select bank0
  2008  078C  1303               	bcf	status, 6	;RP1=0, select bank0
  2009  078D  01D1               	clrf	(LCDWriteFloat@n+1)
  2010  078E  07D1               	addwf	(LCDWriteFloat@n+1)
  2011  078F  0870               	movf	(0+(?___awdiv)),w
  2012  0790  01D0               	clrf	(LCDWriteFloat@n)
  2013  0791  07D0               	addwf	(LCDWriteFloat@n)
  2014                           
  2015  0792  2F93               	goto	l4295
  2016                           	line	110
  2017                           	
  2018  0793                     l615:	
  2019                           	line	106
  2020                           	
  2021  0793                     l4295:	
  2022  0793  0851               	movf	(LCDWriteFloat@n+1),w
  2023  0794  3A80               	xorlw	80h
  2024  0795  00FF               	movwf	btemp+1
  2025  0796  3080               	movlw	(high(01h))^80h
  2026  0797  027F               	subwf	btemp+1,w
  2027  0798  1D03               	skipz
  2028  0799  2F9C               	goto	u3585
  2029  079A  3001               	movlw	low(01h)
  2030  079B  0250               	subwf	(LCDWriteFloat@n),w
  2031  079C                     u3585:
  2032                           
  2033  079C  1803               	skipnc
  2034  079D  2F9F               	goto	u3581
  2035  079E  2FA0               	goto	u3580
  2036  079F                     u3581:
  2037  079F  2F5B               	goto	l4289
  2038  07A0                     u3580:
  2039  07A0  2FA1               	goto	l4297
  2040                           	
  2041  07A1                     l617:	
  2042                           	line	111
  2043                           	
  2044  07A1                     l4297:	
  2045                           ;LCD.c: 110: }
  2046                           ;LCD.c: 111: i -= 1;
  2047  07A1  3001               	movlw	low(01h)
  2048  07A2  1283               	bcf	status, 5	;RP0=0, select bank0
  2049  07A3  1303               	bcf	status, 6	;RP1=0, select bank0
  2050  07A4  02CF               	subwf	(LCDWriteFloat@i),f
  2051                           	line	112
  2052                           ;LCD.c: 112: while(i-- > 1)
  2053  07A5  2FB1               	goto	l4301
  2054                           	
  2055  07A6                     l619:	
  2056                           	line	113
  2057                           	
  2058  07A6                     l4299:	
  2059                           ;LCD.c: 113: LCDWriteData(c[i]);
  2060  07A6  084F               	movf	(LCDWriteFloat@i),w
  2061  07A7  3E44               	addlw	LCDWriteFloat@c&0ffh
  2062  07A8  0084               	movwf	fsr0
  2063  07A9  1383               	bcf	status, 7	;select IRP bank0
  2064  07AA  0800               	movf	indf,w
  2065  07AB  120A  158A  2487   	fcall	_LCDWriteData
              120A  118A         
  2066  07B0  2FB1               	goto	l4301
  2067                           	
  2068  07B1                     l618:	
  2069                           	line	112
  2070                           	
  2071  07B1                     l4301:	
  2072  07B1  3001               	movlw	low(01h)
  2073  07B2  1283               	bcf	status, 5	;RP0=0, select bank0
  2074  07B3  1303               	bcf	status, 6	;RP1=0, select bank0
  2075  07B4  02CF               	subwf	(LCDWriteFloat@i),f
  2076  07B5  1D03               	btfss	status,2
  2077  07B6  2FB8               	goto	u3591
  2078  07B7  2FB9               	goto	u3590
  2079  07B8                     u3591:
  2080  07B8  2FA6               	goto	l4299
  2081  07B9                     u3590:
  2082  07B9  2FBA               	goto	l4303
  2083                           	
  2084  07BA                     l620:	
  2085                           	line	115
  2086                           	
  2087  07BA                     l4303:	
  2088                           ;LCD.c: 115: if(Temp < 10)
  2089  07BA  084E               	movf	(LCDWriteFloat@Temp+1),w
  2090  07BB  3A80               	xorlw	80h
  2091  07BC  00FF               	movwf	btemp+1
  2092  07BD  3080               	movlw	(high(0Ah))^80h
  2093  07BE  027F               	subwf	btemp+1,w
  2094  07BF  1D03               	skipz
  2095  07C0  2FC3               	goto	u3605
  2096  07C1  300A               	movlw	low(0Ah)
  2097  07C2  024D               	subwf	(LCDWriteFloat@Temp),w
  2098  07C3                     u3605:
  2099                           
  2100  07C3  1803               	skipnc
  2101  07C4  2FC6               	goto	u3601
  2102  07C5  2FC7               	goto	u3600
  2103  07C6                     u3601:
  2104  07C6  2FD4               	goto	l4309
  2105  07C7                     u3600:
  2106                           	line	117
  2107                           	
  2108  07C7                     l4305:	
  2109                           ;LCD.c: 116: {
  2110                           ;LCD.c: 117: LCDWriteCommand(0xcc);
  2111  07C7  30CC               	movlw	(0CCh)
  2112  07C8  120A  158A  247C   	fcall	_LCDWriteCommand
              120A  118A         
  2113                           	line	118
  2114                           	
  2115  07CD                     l4307:	
  2116                           ;LCD.c: 118: LCDWriteString("  ");
  2117  07CD  3032               	movlw	((STR_2-__stringbase))&0ffh
  2118  07CE  120A  158A  2538   	fcall	_LCDWriteString
              120A  118A         
  2119  07D3  2FD4               	goto	l4309
  2120                           	line	120
  2121                           	
  2122  07D4                     l621:	
  2123                           	line	121
  2124                           	
  2125  07D4                     l4309:	
  2126                           ;LCD.c: 120: }
  2127                           ;LCD.c: 121: if(Temp >= 10 && Temp < 100)
  2128  07D4  1283               	bcf	status, 5	;RP0=0, select bank0
  2129  07D5  1303               	bcf	status, 6	;RP1=0, select bank0
  2130  07D6  084E               	movf	(LCDWriteFloat@Temp+1),w
  2131  07D7  3A80               	xorlw	80h
  2132  07D8  00FF               	movwf	btemp+1
  2133  07D9  3080               	movlw	(high(0Ah))^80h
  2134  07DA  027F               	subwf	btemp+1,w
  2135  07DB  1D03               	skipz
  2136  07DC  2FDF               	goto	u3615
  2137  07DD  300A               	movlw	low(0Ah)
  2138  07DE  024D               	subwf	(LCDWriteFloat@Temp),w
  2139  07DF                     u3615:
  2140                           
  2141  07DF  1C03               	skipc
  2142  07E0  2FE2               	goto	u3611
  2143  07E1  2FE3               	goto	u3610
  2144  07E2                     u3611:
  2145  07E2  2FFF               	goto	l623
  2146  07E3                     u3610:
  2147                           	
  2148  07E3                     l4311:	
  2149  07E3  1283               	bcf	status, 5	;RP0=0, select bank0
  2150  07E4  1303               	bcf	status, 6	;RP1=0, select bank0
  2151  07E5  084E               	movf	(LCDWriteFloat@Temp+1),w
  2152  07E6  3A80               	xorlw	80h
  2153  07E7  00FF               	movwf	btemp+1
  2154  07E8  3080               	movlw	(high(064h))^80h
  2155  07E9  027F               	subwf	btemp+1,w
  2156  07EA  1D03               	skipz
  2157  07EB  2FEE               	goto	u3625
  2158  07EC  3064               	movlw	low(064h)
  2159  07ED  024D               	subwf	(LCDWriteFloat@Temp),w
  2160  07EE                     u3625:
  2161                           
  2162  07EE  1803               	skipnc
  2163  07EF  2FF1               	goto	u3621
  2164  07F0  2FF2               	goto	u3620
  2165  07F1                     u3621:
  2166  07F1  2FFF               	goto	l623
  2167  07F2                     u3620:
  2168                           	line	123
  2169                           	
  2170  07F2                     l4313:	
  2171                           ;LCD.c: 122: {
  2172                           ;LCD.c: 123: LCDWriteCommand(0xcd);
  2173  07F2  30CD               	movlw	(0CDh)
  2174  07F3  120A  158A  247C   	fcall	_LCDWriteCommand
              120A  118A         
  2175                           	line	124
  2176                           	
  2177  07F8                     l4315:	
  2178                           ;LCD.c: 124: LCDWriteString(" ");
  2179  07F8  3033               	movlw	((STR_3-__stringbase))&0ffh
  2180  07F9  120A  158A  2538   	fcall	_LCDWriteString
              120A  118A         
  2181  07FE  2FFF               	goto	l623
  2182                           	line	126
  2183                           	
  2184  07FF                     l622:	
  2185                           	line	127
  2186                           	
  2187  07FF                     l623:	
  2188  07FF  0008               	return
  2189                           	opt stack 0
  2190                           GLOBAL	__end_of_LCDWriteFloat
  2191  0800                     	__end_of_LCDWriteFloat:
  2192 ;; =============== function _LCDWriteFloat ends ============
  2193                           
  2194                           	signat	_LCDWriteFloat,4216
  2195                           	global	_LCDInitialize
  2196                           psect	text512,local,class=CODE,delta=2
  2197                           global __ptext512
  2198  0D7C                     __ptext512:
  2199                           
  2200 ;; *************** function _LCDInitialize *****************
  2201 ;; Defined at:
  2202 ;;		line 32 in file "C:\Users\X4ROY\Desktop\URE\LCD Interfacing\LCD.c"
  2203 ;; Parameters:    Size  Location     Type
  2204 ;;		None
  2205 ;; Auto vars:     Size  Location     Type
  2206 ;;		None
  2207 ;; Return value:  Size  Location     Type
  2208 ;;		None               void
  2209 ;; Registers used:
  2210 ;;		wreg, status,2, status,0, pclath, cstack
  2211 ;; Tracked objects:
  2212 ;;		On entry : 0/0
  2213 ;;		On exit  : 0/0
  2214 ;;		Unchanged: 0/0
  2215 ;; Data sizes:     COMMON   BANK0   BANK1   BANK3   BANK2
  2216 ;;      Params:         0       0       0       0       0
  2217 ;;      Locals:         0       0       0       0       0
  2218 ;;      Temps:          1       0       0       0       0
  2219 ;;      Totals:         1       0       0       0       0
  2220 ;;Total ram usage:        1 bytes
  2221 ;; Hardware stack levels used:    1
  2222 ;; Hardware stack levels required when called:    5
  2223 ;; This function calls:
  2224 ;;		_LCDReset
  2225 ;;		_LCDWriteCommand
  2226 ;; This function is called by:
  2227 ;;		_MainSystemInitialize
  2228 ;; This function uses a non-reentrant model
  2229 ;;
  2230                           psect	text512
  2231                           	file	"C:\Users\X4ROY\Desktop\URE\LCD Interfacing\LCD.c"
  2232                           	line	32
  2233                           	global	__size_of_LCDInitialize
  2234  002B                     	__size_of_LCDInitialize	equ	__end_of_LCDInitialize-_LCDInitialize
  2235                           	
  2236  0D7C                     _LCDInitialize:	
  2237                           	opt	stack 1
  2238                           ; Regs used in _LCDInitialize: [wreg+status,2+status,0+pclath+cstack]
  2239                           	line	33
  2240                           	
  2241  0D7C                     l4249:	
  2242                           ;LCD.c: 33: TRISD = TRISD & 0x03;
  2243  0D7C  1683               	bsf	status, 5	;RP0=1, select bank1
  2244  0D7D  1303               	bcf	status, 6	;RP1=0, select bank1
  2245  0D7E  0808               	movf	(136)^080h,w
  2246  0D7F  3903               	andlw	03h
  2247  0D80  0088               	movwf	(136)^080h	;volatile
  2248                           	line	34
  2249                           	
  2250  0D81                     l4251:	
  2251                           ;LCD.c: 34: RD3 = 0;
  2252  0D81  1283               	bcf	status, 5	;RP0=0, select bank0
  2253  0D82  1303               	bcf	status, 6	;RP1=0, select bank0
  2254  0D83  1188               	bcf	(67/8),(67)&7
  2255                           	line	35
  2256                           	
  2257  0D84                     l4253:	
  2258                           ;LCD.c: 35: RD2 = 0;
  2259  0D84  1108               	bcf	(66/8),(66)&7
  2260                           	line	36
  2261                           	
  2262  0D85                     l4255:	
  2263                           ;LCD.c: 36: PORTD &= 0x0f;
  2264  0D85  300F               	movlw	(0Fh)
  2265  0D86  00F7               	movwf	(??_LCDInitialize+0)+0
  2266  0D87  0877               	movf	(??_LCDInitialize+0)+0,w
  2267  0D88  0588               	andwf	(8),f	;volatile
  2268                           	line	37
  2269                           	
  2270  0D89                     l4257:	
  2271                           ;LCD.c: 37: LCDReset();
  2272  0D89  120A  158A  24EB   	fcall	_LCDReset
              120A  158A         
  2273                           	line	38
  2274                           	
  2275  0D8E                     l4259:	
  2276                           ;LCD.c: 38: LCDWriteCommand(0x28);
  2277  0D8E  3028               	movlw	(028h)
  2278  0D8F  120A  158A  247C   	fcall	_LCDWriteCommand
              120A  158A         
  2279                           	line	39
  2280                           	
  2281  0D94                     l4261:	
  2282                           ;LCD.c: 39: LCDWriteCommand(0x0C);
  2283  0D94  300C               	movlw	(0Ch)
  2284  0D95  120A  158A  247C   	fcall	_LCDWriteCommand
              120A  158A         
  2285                           	line	40
  2286                           	
  2287  0D9A                     l4263:	
  2288                           ;LCD.c: 40: LCDWriteCommand(0x06);
  2289  0D9A  3006               	movlw	(06h)
  2290  0D9B  120A  158A  247C   	fcall	_LCDWriteCommand
              120A  158A         
  2291                           	line	41
  2292                           	
  2293  0DA0                     l4265:	
  2294                           ;LCD.c: 41: LCDWriteCommand(0x01);
  2295  0DA0  3001               	movlw	(01h)
  2296  0DA1  120A  158A  247C   	fcall	_LCDWriteCommand
              120A  158A         
  2297                           	line	43
  2298                           	
  2299  0DA6                     l591:	
  2300  0DA6  0008               	return
  2301                           	opt stack 0
  2302                           GLOBAL	__end_of_LCDInitialize
  2303  0DA7                     	__end_of_LCDInitialize:
  2304 ;; =============== function _LCDInitialize ends ============
  2305                           
  2306                           	signat	_LCDInitialize,88
  2307                           	global	_LCDWriteInteger
  2308                           psect	text513,local,class=CODE,delta=2
  2309                           global __ptext513
  2310  00CD                     __ptext513:
  2311                           
  2312 ;; *************** function _LCDWriteInteger *****************
  2313 ;; Defined at:
  2314 ;;		line 129 in file "C:\Users\X4ROY\Desktop\URE\LCD Interfacing\LCD.c"
  2315 ;; Parameters:    Size  Location     Type
  2316 ;;  IntegerNumbe    2    9[COMMON] int 
  2317 ;; Auto vars:     Size  Location     Type
  2318 ;;  c               6    0[BANK0 ] unsigned char [6]
  2319 ;;  i               1    6[BANK0 ] unsigned char 
  2320 ;; Return value:  Size  Location     Type
  2321 ;;		None               void
  2322 ;; Registers used:
  2323 ;;		wreg, fsr0l, fsr0h, status,2, status,0, btemp+1, pclath, cstack
  2324 ;; Tracked objects:
  2325 ;;		On entry : 0/0
  2326 ;;		On exit  : 0/0
  2327 ;;		Unchanged: 0/0
  2328 ;; Data sizes:     COMMON   BANK0   BANK1   BANK3   BANK2
  2329 ;;      Params:         2       0       0       0       0
  2330 ;;      Locals:         0       7       0       0       0
  2331 ;;      Temps:          1       0       0       0       0
  2332 ;;      Totals:         3       7       0       0       0
  2333 ;;Total ram usage:       10 bytes
  2334 ;; Hardware stack levels used:    1
  2335 ;; Hardware stack levels required when called:    4
  2336 ;; This function calls:
  2337 ;;		_LCDWriteData
  2338 ;;		___awmod
  2339 ;;		___awdiv
  2340 ;; This function is called by:
  2341 ;;		_LCDWriteFloat
  2342 ;; This function uses a non-reentrant model
  2343 ;;
  2344                           psect	text513
  2345                           	file	"C:\Users\X4ROY\Desktop\URE\LCD Interfacing\LCD.c"
  2346                           	line	129
  2347                           	global	__size_of_LCDWriteInteger
  2348  0081                     	__size_of_LCDWriteInteger	equ	__end_of_LCDWriteInteger-_LCDWriteInteger
  2349                           	
  2350  00CD                     _LCDWriteInteger:	
  2351                           	opt	stack 2
  2352                           ; Regs used in _LCDWriteInteger: [wreg-fsr0h+status,2+status,0+btemp+1+pclath+cstack]
  2353                           	line	131
  2354                           	
  2355  00CD                     l4225:	
  2356                           ;LCD.c: 130: unsigned char c[6];
  2357                           ;LCD.c: 131: unsigned char i = 0;
  2358  00CD  1003               	clrc
  2359  00CE  3000               	movlw	0
  2360  00CF  1803               	btfsc	status,0
  2361  00D0  3001               	movlw	1
  2362  00D1  1283               	bcf	status, 5	;RP0=0, select bank0
  2363  00D2  1303               	bcf	status, 6	;RP1=0, select bank0
  2364  00D3  00A6               	movwf	(LCDWriteInteger@i)
  2365                           	line	133
  2366                           	
  2367  00D4                     l4227:	
  2368                           ;LCD.c: 133: if(IntegerNumber < 0)
  2369  00D4  1FFA               	btfss	(LCDWriteInteger@IntegerNumber+1),7
  2370  00D5  28D7               	goto	u3531
  2371  00D6  28D8               	goto	u3530
  2372  00D7                     u3531:
  2373  00D7  28E4               	goto	l4233
  2374  00D8                     u3530:
  2375                           	line	135
  2376                           	
  2377  00D8                     l4229:	
  2378                           ;LCD.c: 134: {
  2379                           ;LCD.c: 135: LCDWriteData('-');
  2380  00D8  302D               	movlw	(02Dh)
  2381  00D9  120A  158A  2487   	fcall	_LCDWriteData
              120A  118A         
  2382                           	line	136
  2383                           	
  2384  00DE                     l4231:	
  2385                           ;LCD.c: 136: IntegerNumber = - (IntegerNumber);
  2386  00DE  09F9               	comf	(LCDWriteInteger@IntegerNumber),f
  2387  00DF  09FA               	comf	(LCDWriteInteger@IntegerNumber+1),f
  2388  00E0  0AF9               	incf	(LCDWriteInteger@IntegerNumber),f
  2389  00E1  1903               	skipnz
  2390  00E2  0AFA               	incf	(LCDWriteInteger@IntegerNumber+1),f
  2391  00E3  28E4               	goto	l4233
  2392                           	line	137
  2393                           	
  2394  00E4                     l626:	
  2395                           	line	139
  2396                           	
  2397  00E4                     l4233:	
  2398                           ;LCD.c: 137: }
  2399                           ;LCD.c: 139: if(IntegerNumber == 0)
  2400  00E4  087A               	movf	((LCDWriteInteger@IntegerNumber+1)),w
  2401  00E5  0479               	iorwf	((LCDWriteInteger@IntegerNumber)),w
  2402  00E6  1D03               	skipz
  2403  00E7  28E9               	goto	u3541
  2404  00E8  28EA               	goto	u3540
  2405  00E9                     u3541:
  2406  00E9  2926               	goto	l4243
  2407  00EA                     u3540:
  2408                           	line	140
  2409                           	
  2410  00EA                     l4235:	
  2411                           ;LCD.c: 140: LCDWriteData(0x30);
  2412  00EA  3030               	movlw	(030h)
  2413  00EB  120A  158A  2487   	fcall	_LCDWriteData
              120A  118A         
  2414  00F0  2926               	goto	l4243
  2415                           	
  2416  00F1                     l627:	
  2417                           	line	142
  2418                           ;LCD.c: 142: while( IntegerNumber > 0)
  2419  00F1  2926               	goto	l4243
  2420                           	
  2421  00F2                     l629:	
  2422                           	line	144
  2423                           	
  2424  00F2                     l4237:	
  2425                           ;LCD.c: 143: {
  2426                           ;LCD.c: 144: c[i++] = ((IntegerNumber % 10) | 0x30);
  2427  00F2  300A               	movlw	low(0Ah)
  2428  00F3  00F0               	movwf	(?___awmod)
  2429  00F4  3000               	movlw	high(0Ah)
  2430  00F5  00F1               	movwf	((?___awmod))+1
  2431  00F6  087A               	movf	(LCDWriteInteger@IntegerNumber+1),w
  2432  00F7  01F3               	clrf	1+(?___awmod)+02h
  2433  00F8  07F3               	addwf	1+(?___awmod)+02h
  2434  00F9  0879               	movf	(LCDWriteInteger@IntegerNumber),w
  2435  00FA  01F2               	clrf	0+(?___awmod)+02h
  2436  00FB  07F2               	addwf	0+(?___awmod)+02h
  2437                           
  2438  00FC  120A  158A  26B1   	fcall	___awmod
              120A  118A         
  2439  0101  0870               	movf	(0+(?___awmod)),w
  2440  0102  3830               	iorlw	030h
  2441  0103  00FB               	movwf	(??_LCDWriteInteger+0)+0
  2442  0104  1283               	bcf	status, 5	;RP0=0, select bank0
  2443  0105  1303               	bcf	status, 6	;RP1=0, select bank0
  2444  0106  0826               	movf	(LCDWriteInteger@i),w
  2445  0107  3E20               	addlw	LCDWriteInteger@c&0ffh
  2446  0108  0084               	movwf	fsr0
  2447  0109  087B               	movf	(??_LCDWriteInteger+0)+0,w
  2448  010A  1383               	bcf	status, 7	;select IRP bank0
  2449  010B  0080               	movwf	indf
  2450                           	
  2451  010C                     l4239:	
  2452  010C  3001               	movlw	(01h)
  2453  010D  00FB               	movwf	(??_LCDWriteInteger+0)+0
  2454  010E  087B               	movf	(??_LCDWriteInteger+0)+0,w
  2455  010F  07A6               	addwf	(LCDWriteInteger@i),f
  2456                           	line	145
  2457                           	
  2458  0110                     l4241:	
  2459                           ;LCD.c: 145: IntegerNumber /= 10;
  2460  0110  300A               	movlw	low(0Ah)
  2461  0111  00F0               	movwf	(?___awdiv)
  2462  0112  3000               	movlw	high(0Ah)
  2463  0113  00F1               	movwf	((?___awdiv))+1
  2464  0114  087A               	movf	(LCDWriteInteger@IntegerNumber+1),w
  2465  0115  01F3               	clrf	1+(?___awdiv)+02h
  2466  0116  07F3               	addwf	1+(?___awdiv)+02h
  2467  0117  0879               	movf	(LCDWriteInteger@IntegerNumber),w
  2468  0118  01F2               	clrf	0+(?___awdiv)+02h
  2469  0119  07F2               	addwf	0+(?___awdiv)+02h
  2470                           
  2471  011A  120A  158A  2787   	fcall	___awdiv
              120A  118A         
  2472  011F  0871               	movf	(1+(?___awdiv)),w
  2473  0120  01FA               	clrf	(LCDWriteInteger@IntegerNumber+1)
  2474  0121  07FA               	addwf	(LCDWriteInteger@IntegerNumber+1)
  2475  0122  0870               	movf	(0+(?___awdiv)),w
  2476  0123  01F9               	clrf	(LCDWriteInteger@IntegerNumber)
  2477  0124  07F9               	addwf	(LCDWriteInteger@IntegerNumber)
  2478                           
  2479  0125  2926               	goto	l4243
  2480                           	line	146
  2481                           	
  2482  0126                     l628:	
  2483                           	line	142
  2484                           	
  2485  0126                     l4243:	
  2486  0126  087A               	movf	(LCDWriteInteger@IntegerNumber+1),w
  2487  0127  3A80               	xorlw	80h
  2488  0128  00FF               	movwf	btemp+1
  2489  0129  3080               	movlw	(high(01h))^80h
  2490  012A  027F               	subwf	btemp+1,w
  2491  012B  1D03               	skipz
  2492  012C  292F               	goto	u3555
  2493  012D  3001               	movlw	low(01h)
  2494  012E  0279               	subwf	(LCDWriteInteger@IntegerNumber),w
  2495  012F                     u3555:
  2496                           
  2497  012F  1803               	skipnc
  2498  0130  2932               	goto	u3551
  2499  0131  2933               	goto	u3550
  2500  0132                     u3551:
  2501  0132  28F2               	goto	l4237
  2502  0133                     u3550:
  2503  0133  2942               	goto	l4247
  2504                           	
  2505  0134                     l630:	
  2506                           	line	148
  2507                           ;LCD.c: 146: }
  2508                           ;LCD.c: 148: while(i-- > 0)
  2509  0134  2942               	goto	l4247
  2510                           	
  2511  0135                     l632:	
  2512                           	line	149
  2513                           	
  2514  0135                     l4245:	
  2515                           ;LCD.c: 149: LCDWriteData(c[i]);
  2516  0135  1283               	bcf	status, 5	;RP0=0, select bank0
  2517  0136  1303               	bcf	status, 6	;RP1=0, select bank0
  2518  0137  0826               	movf	(LCDWriteInteger@i),w
  2519  0138  3E20               	addlw	LCDWriteInteger@c&0ffh
  2520  0139  0084               	movwf	fsr0
  2521  013A  1383               	bcf	status, 7	;select IRP bank0
  2522  013B  0800               	movf	indf,w
  2523  013C  120A  158A  2487   	fcall	_LCDWriteData
              120A  118A         
  2524  0141  2942               	goto	l4247
  2525                           	
  2526  0142                     l631:	
  2527                           	line	148
  2528                           	
  2529  0142                     l4247:	
  2530  0142  3001               	movlw	low(01h)
  2531  0143  1283               	bcf	status, 5	;RP0=0, select bank0
  2532  0144  1303               	bcf	status, 6	;RP1=0, select bank0
  2533  0145  02A6               	subwf	(LCDWriteInteger@i),f
  2534  0146  0826               	movf	((LCDWriteInteger@i)),w
  2535  0147  3AFF               	xorlw	0FFh
  2536  0148  1D03               	skipz
  2537  0149  294B               	goto	u3561
  2538  014A  294C               	goto	u3560
  2539  014B                     u3561:
  2540  014B  2935               	goto	l4245
  2541  014C                     u3560:
  2542  014C  294D               	goto	l634
  2543                           	
  2544  014D                     l633:	
  2545                           	line	152
  2546                           	
  2547  014D                     l634:	
  2548  014D  0008               	return
  2549                           	opt stack 0
  2550                           GLOBAL	__end_of_LCDWriteInteger
  2551  014E                     	__end_of_LCDWriteInteger:
  2552 ;; =============== function _LCDWriteInteger ends ============
  2553                           
  2554                           	signat	_LCDWriteInteger,4216
  2555                           	global	_LCDReset
  2556                           psect	text514,local,class=CODE,delta=2
  2557                           global __ptext514
  2558  0CEB                     __ptext514:
  2559                           
  2560 ;; *************** function _LCDReset *****************
  2561 ;; Defined at:
  2562 ;;		line 45 in file "C:\Users\X4ROY\Desktop\URE\LCD Interfacing\LCD.c"
  2563 ;; Parameters:    Size  Location     Type
  2564 ;;		None
  2565 ;; Auto vars:     Size  Location     Type
  2566 ;;		None
  2567 ;; Return value:  Size  Location     Type
  2568 ;;		None               void
  2569 ;; Registers used:
  2570 ;;		wreg, status,2, status,0, pclath, cstack
  2571 ;; Tracked objects:
  2572 ;;		On entry : 0/0
  2573 ;;		On exit  : 0/0
  2574 ;;		Unchanged: 0/0
  2575 ;; Data sizes:     COMMON   BANK0   BANK1   BANK3   BANK2
  2576 ;;      Params:         0       0       0       0       0
  2577 ;;      Locals:         0       0       0       0       0
  2578 ;;      Temps:          0       0       0       0       0
  2579 ;;      Totals:         0       0       0       0       0
  2580 ;;Total ram usage:        0 bytes
  2581 ;; Hardware stack levels used:    1
  2582 ;; Hardware stack levels required when called:    4
  2583 ;; This function calls:
  2584 ;;		_LCDWriteCommand
  2585 ;; This function is called by:
  2586 ;;		_LCDInitialize
  2587 ;; This function uses a non-reentrant model
  2588 ;;
  2589                           psect	text514
  2590                           	file	"C:\Users\X4ROY\Desktop\URE\LCD Interfacing\LCD.c"
  2591                           	line	45
  2592                           	global	__size_of_LCDReset
  2593  0013                     	__size_of_LCDReset	equ	__end_of_LCDReset-_LCDReset
  2594                           	
  2595  0CEB                     _LCDReset:	
  2596                           	opt	stack 1
  2597                           ; Regs used in _LCDReset: [wreg+status,2+status,0+pclath+cstack]
  2598                           	line	46
  2599                           	
  2600  0CEB                     l4223:	
  2601                           ;LCD.c: 46: LCDWriteCommand(0x33);
  2602  0CEB  3033               	movlw	(033h)
  2603  0CEC  120A  158A  247C   	fcall	_LCDWriteCommand
              120A  158A         
  2604                           	line	47
  2605                           ;LCD.c: 47: LCDWriteCommand(0x33);
  2606  0CF1  3033               	movlw	(033h)
  2607  0CF2  120A  158A  247C   	fcall	_LCDWriteCommand
              120A  158A         
  2608                           	line	48
  2609                           ;LCD.c: 48: LCDWriteCommand(0x32);
  2610  0CF7  3032               	movlw	(032h)
  2611  0CF8  120A  158A  247C   	fcall	_LCDWriteCommand
              120A  158A         
  2612                           	line	49
  2613                           	
  2614  0CFD                     l594:	
  2615  0CFD  0008               	return
  2616                           	opt stack 0
  2617                           GLOBAL	__end_of_LCDReset
  2618  0CFE                     	__end_of_LCDReset:
  2619 ;; =============== function _LCDReset ends ============
  2620                           
  2621                           	signat	_LCDReset,88
  2622                           	global	_LCDWriteString
  2623                           psect	text515,local,class=CODE,delta=2
  2624                           global __ptext515
  2625  0D38                     __ptext515:
  2626                           
  2627 ;; *************** function _LCDWriteString *****************
  2628 ;; Defined at:
  2629 ;;		line 24 in file "C:\Users\X4ROY\Desktop\URE\LCD Interfacing\LCD.c"
  2630 ;; Parameters:    Size  Location     Type
  2631 ;;  lcd_string      1    wreg     PTR const unsigned char 
  2632 ;;		 -> STR_7(9), STR_6(9), STR_5(7), STR_4(7), 
  2633 ;;		 -> STR_3(2), STR_2(3), STR_1(17), 
  2634 ;; Auto vars:     Size  Location     Type
  2635 ;;  lcd_string      1    8[COMMON] PTR const unsigned char 
  2636 ;;		 -> STR_7(9), STR_6(9), STR_5(7), STR_4(7), 
  2637 ;;		 -> STR_3(2), STR_2(3), STR_1(17), 
  2638 ;; Return value:  Size  Location     Type
  2639 ;;		None               void
  2640 ;; Registers used:
  2641 ;;		wreg, fsr0l, fsr0h, status,2, status,0, pclath, cstack
  2642 ;; Tracked objects:
  2643 ;;		On entry : 0/0
  2644 ;;		On exit  : 0/0
  2645 ;;		Unchanged: 0/0
  2646 ;; Data sizes:     COMMON   BANK0   BANK1   BANK3   BANK2
  2647 ;;      Params:         0       0       0       0       0
  2648 ;;      Locals:         1       0       0       0       0
  2649 ;;      Temps:          1       0       0       0       0
  2650 ;;      Totals:         2       0       0       0       0
  2651 ;;Total ram usage:        2 bytes
  2652 ;; Hardware stack levels used:    1
  2653 ;; Hardware stack levels required when called:    4
  2654 ;; This function calls:
  2655 ;;		_LCDWriteData
  2656 ;; This function is called by:
  2657 ;;		_LCDWriteFloat
  2658 ;;		_main
  2659 ;;		_LCDDisplayInitializing
  2660 ;; This function uses a non-reentrant model
  2661 ;;
  2662                           psect	text515
  2663                           	file	"C:\Users\X4ROY\Desktop\URE\LCD Interfacing\LCD.c"
  2664                           	line	24
  2665                           	global	__size_of_LCDWriteString
  2666  0021                     	__size_of_LCDWriteString	equ	__end_of_LCDWriteString-_LCDWriteString
  2667                           	
  2668  0D38                     _LCDWriteString:	
  2669                           	opt	stack 3
  2670                           ; Regs used in _LCDWriteString: [wreg-fsr0h+status,2+status,0+pclath+cstack]
  2671                           ;LCDWriteString@lcd_string stored from wreg
  2672  0D38  00F8               	movwf	(LCDWriteString@lcd_string)
  2673                           	line	25
  2674                           	
  2675  0D39                     l4215:	
  2676                           ;LCD.c: 25: while(*lcd_string)
  2677  0D39  2D4B               	goto	l4221
  2678                           	
  2679  0D3A                     l586:	
  2680                           	line	27
  2681                           	
  2682  0D3A                     l4217:	
  2683                           ;LCD.c: 26: {
  2684                           ;LCD.c: 27: LCDWriteData(*lcd_string++);
  2685  0D3A  0878               	movf	(LCDWriteString@lcd_string),w
  2686  0D3B  0084               	movwf	fsr0
  2687  0D3C  120A  158A  2000   	fcall	stringdir
              120A  158A         
  2688  0D41  120A  158A  2487   	fcall	_LCDWriteData
              120A  158A         
  2689                           	
  2690  0D46                     l4219:	
  2691  0D46  3001               	movlw	(01h)
  2692  0D47  00F7               	movwf	(??_LCDWriteString+0)+0
  2693  0D48  0877               	movf	(??_LCDWriteString+0)+0,w
  2694  0D49  07F8               	addwf	(LCDWriteString@lcd_string),f
  2695  0D4A  2D4B               	goto	l4221
  2696                           	line	28
  2697                           	
  2698  0D4B                     l585:	
  2699                           	line	25
  2700                           	
  2701  0D4B                     l4221:	
  2702  0D4B  0878               	movf	(LCDWriteString@lcd_string),w
  2703  0D4C  0084               	movwf	fsr0
  2704  0D4D  120A  158A  2000   	fcall	stringdir
              120A  158A         
  2705  0D52  3800               	iorlw	0
  2706  0D53  1D03               	skipz
  2707  0D54  2D56               	goto	u3521
  2708  0D55  2D57               	goto	u3520
  2709  0D56                     u3521:
  2710  0D56  2D3A               	goto	l4217
  2711  0D57                     u3520:
  2712  0D57  2D58               	goto	l588
  2713                           	
  2714  0D58                     l587:	
  2715                           	line	29
  2716                           	
  2717  0D58                     l588:	
  2718  0D58  0008               	return
  2719                           	opt stack 0
  2720                           GLOBAL	__end_of_LCDWriteString
  2721  0D59                     	__end_of_LCDWriteString:
  2722 ;; =============== function _LCDWriteString ends ============
  2723                           
  2724                           	signat	_LCDWriteString,4216
  2725                           	global	_LCDWriteData
  2726                           psect	text516,local,class=CODE,delta=2
  2727                           global __ptext516
  2728  0C87                     __ptext516:
  2729                           
  2730 ;; *************** function _LCDWriteData *****************
  2731 ;; Defined at:
  2732 ;;		line 18 in file "C:\Users\X4ROY\Desktop\URE\LCD Interfacing\LCD.c"
  2733 ;; Parameters:    Size  Location     Type
  2734 ;;  LCDData         1    wreg     unsigned char 
  2735 ;; Auto vars:     Size  Location     Type
  2736 ;;  LCDData         1    6[COMMON] unsigned char 
  2737 ;; Return value:  Size  Location     Type
  2738 ;;		None               void
  2739 ;; Registers used:
  2740 ;;		wreg, status,2, status,0, pclath, cstack
  2741 ;; Tracked objects:
  2742 ;;		On entry : 0/0
  2743 ;;		On exit  : 0/0
  2744 ;;		Unchanged: 0/0
  2745 ;; Data sizes:     COMMON   BANK0   BANK1   BANK3   BANK2
  2746 ;;      Params:         0       0       0       0       0
  2747 ;;      Locals:         1       0       0       0       0
  2748 ;;      Temps:          0       0       0       0       0
  2749 ;;      Totals:         1       0       0       0       0
  2750 ;;Total ram usage:        1 bytes
  2751 ;; Hardware stack levels used:    1
  2752 ;; Hardware stack levels required when called:    3
  2753 ;; This function calls:
  2754 ;;		_LCDWriteByte
  2755 ;; This function is called by:
  2756 ;;		_LCDWriteString
  2757 ;;		_LCDWriteFloat
  2758 ;;		_LCDWriteInteger
  2759 ;;		_LCDDisplayInitializing
  2760 ;;		_LCDDisplayByte
  2761 ;; This function uses a non-reentrant model
  2762 ;;
  2763                           psect	text516
  2764                           	file	"C:\Users\X4ROY\Desktop\URE\LCD Interfacing\LCD.c"
  2765                           	line	18
  2766                           	global	__size_of_LCDWriteData
  2767  000B                     	__size_of_LCDWriteData	equ	__end_of_LCDWriteData-_LCDWriteData
  2768                           	
  2769  0C87                     _LCDWriteData:	
  2770                           	opt	stack 3
  2771                           ; Regs used in _LCDWriteData: [wreg+status,2+status,0+pclath+cstack]
  2772                           ;LCDWriteData@LCDData stored from wreg
  2773  0C87  00F6               	movwf	(LCDWriteData@LCDData)
  2774                           	line	19
  2775                           	
  2776  0C88                     l4211:	
  2777                           ;LCD.c: 19: RD2 = 1;
  2778  0C88  1283               	bcf	status, 5	;RP0=0, select bank0
  2779  0C89  1303               	bcf	status, 6	;RP1=0, select bank0
  2780  0C8A  1508               	bsf	(66/8),(66)&7
  2781                           	line	20
  2782                           	
  2783  0C8B                     l4213:	
  2784                           ;LCD.c: 20: LCDWriteByte(LCDData);
  2785  0C8B  0876               	movf	(LCDWriteData@LCDData),w
  2786  0C8C  120A  158A  25D3   	fcall	_LCDWriteByte
              120A  158A         
  2787                           	line	21
  2788                           	
  2789  0C91                     l582:	
  2790  0C91  0008               	return
  2791                           	opt stack 0
  2792                           GLOBAL	__end_of_LCDWriteData
  2793  0C92                     	__end_of_LCDWriteData:
  2794 ;; =============== function _LCDWriteData ends ============
  2795                           
  2796                           	signat	_LCDWriteData,4216
  2797                           	global	_LCDWriteCommand
  2798                           psect	text517,local,class=CODE,delta=2
  2799                           global __ptext517
  2800  0C7C                     __ptext517:
  2801                           
  2802 ;; *************** function _LCDWriteCommand *****************
  2803 ;; Defined at:
  2804 ;;		line 12 in file "C:\Users\X4ROY\Desktop\URE\LCD Interfacing\LCD.c"
  2805 ;; Parameters:    Size  Location     Type
  2806 ;;  LCDData         1    wreg     unsigned char 
  2807 ;; Auto vars:     Size  Location     Type
  2808 ;;  LCDData         1    6[COMMON] unsigned char 
  2809 ;; Return value:  Size  Location     Type
  2810 ;;		None               void
  2811 ;; Registers used:
  2812 ;;		wreg, status,2, status,0, pclath, cstack
  2813 ;; Tracked objects:
  2814 ;;		On entry : 0/0
  2815 ;;		On exit  : 0/0
  2816 ;;		Unchanged: 0/0
  2817 ;; Data sizes:     COMMON   BANK0   BANK1   BANK3   BANK2
  2818 ;;      Params:         0       0       0       0       0
  2819 ;;      Locals:         1       0       0       0       0
  2820 ;;      Temps:          0       0       0       0       0
  2821 ;;      Totals:         1       0       0       0       0
  2822 ;;Total ram usage:        1 bytes
  2823 ;; Hardware stack levels used:    1
  2824 ;; Hardware stack levels required when called:    3
  2825 ;; This function calls:
  2826 ;;		_LCDWriteByte
  2827 ;; This function is called by:
  2828 ;;		_LCDInitialize
  2829 ;;		_LCDReset
  2830 ;;		_LCDWriteFloat
  2831 ;;		_main
  2832 ;;		_LCDDisplayInitializing
  2833 ;;		_LCDDisplayByte
  2834 ;; This function uses a non-reentrant model
  2835 ;;
  2836                           psect	text517
  2837                           	file	"C:\Users\X4ROY\Desktop\URE\LCD Interfacing\LCD.c"
  2838                           	line	12
  2839                           	global	__size_of_LCDWriteCommand
  2840  000B                     	__size_of_LCDWriteCommand	equ	__end_of_LCDWriteCommand-_LCDWriteCommand
  2841                           	
  2842  0C7C                     _LCDWriteCommand:	
  2843                           	opt	stack 3
  2844                           ; Regs used in _LCDWriteCommand: [wreg+status,2+status,0+pclath+cstack]
  2845                           ;LCDWriteCommand@LCDData stored from wreg
  2846  0C7C  00F6               	movwf	(LCDWriteCommand@LCDData)
  2847                           	line	13
  2848                           	
  2849  0C7D                     l4207:	
  2850                           ;LCD.c: 13: RD2 = 0;
  2851  0C7D  1283               	bcf	status, 5	;RP0=0, select bank0
  2852  0C7E  1303               	bcf	status, 6	;RP1=0, select bank0
  2853  0C7F  1108               	bcf	(66/8),(66)&7
  2854                           	line	14
  2855                           	
  2856  0C80                     l4209:	
  2857                           ;LCD.c: 14: LCDWriteByte(LCDData);
  2858  0C80  0876               	movf	(LCDWriteCommand@LCDData),w
  2859  0C81  120A  158A  25D3   	fcall	_LCDWriteByte
              120A  158A         
  2860                           	line	15
  2861                           	
  2862  0C86                     l579:	
  2863  0C86  0008               	return
  2864                           	opt stack 0
  2865                           GLOBAL	__end_of_LCDWriteCommand
  2866  0C87                     	__end_of_LCDWriteCommand:
  2867 ;; =============== function _LCDWriteCommand ends ============
  2868                           
  2869                           	signat	_LCDWriteCommand,4216
  2870                           	global	_ADCReadData
  2871                           psect	text518,local,class=CODE,delta=2
  2872                           global __ptext518
  2873  01F2                     __ptext518:
  2874                           
  2875 ;; *************** function _ADCReadData *****************
  2876 ;; Defined at:
  2877 ;;		line 13 in file "C:\Users\X4ROY\Desktop\URE\LCD Interfacing\adc.c"
  2878 ;; Parameters:    Size  Location     Type
  2879 ;;  ChannelNumbe    1    wreg     unsigned char 
  2880 ;; Auto vars:     Size  Location     Type
  2881 ;;  ChannelNumbe    1   48[BANK0 ] unsigned char 
  2882 ;;  p               3   49[BANK0 ] float 
  2883 ;;  f               3   37[BANK0 ] float 
  2884 ;;  z               2   46[BANK0 ] unsigned int 
  2885 ;;  c               2   44[BANK0 ] unsigned int 
  2886 ;;  y               2   42[BANK0 ] unsigned int 
  2887 ;;  x               2   40[BANK0 ] unsigned int 
  2888 ;;  count           1    0        unsigned char 
  2889 ;; Return value:  Size  Location     Type
  2890 ;;                  3   32[BANK0 ] float 
  2891 ;; Registers used:
  2892 ;;		wreg, status,2, status,0, pclath, cstack
  2893 ;; Tracked objects:
  2894 ;;		On entry : 0/0
  2895 ;;		On exit  : 0/0
  2896 ;;		Unchanged: 0/0
  2897 ;; Data sizes:     COMMON   BANK0   BANK1   BANK3   BANK2
  2898 ;;      Params:         0       3       0       0       0
  2899 ;;      Locals:         0      15       0       0       0
  2900 ;;      Temps:          0       2       0       0       0
  2901 ;;      Totals:         0      20       0       0       0
  2902 ;;Total ram usage:       20 bytes
  2903 ;; Hardware stack levels used:    1
  2904 ;; Hardware stack levels required when called:    2
  2905 ;; This function calls:
  2906 ;;		_Delay
  2907 ;;		___wmul
  2908 ;;		___lwtoft
  2909 ;;		___ftmul
  2910 ;;		___ftdiv
  2911 ;; This function is called by:
  2912 ;;		_main
  2913 ;; This function uses a non-reentrant model
  2914 ;;
  2915                           psect	text518
  2916                           	file	"C:\Users\X4ROY\Desktop\URE\LCD Interfacing\adc.c"
  2917                           	line	13
  2918                           	global	__size_of_ADCReadData
  2919  00AD                     	__size_of_ADCReadData	equ	__end_of_ADCReadData-_ADCReadData
  2920                           	
  2921  01F2                     _ADCReadData:	
  2922                           	opt	stack 5
  2923                           ; Regs used in _ADCReadData: [wreg+status,2+status,0+pclath+cstack]
  2924                           ;ADCReadData@ChannelNumber stored from wreg
  2925                           	line	15
  2926  01F2  1283               	bcf	status, 5	;RP0=0, select bank0
  2927  01F3  1303               	bcf	status, 6	;RP1=0, select bank0
  2928  01F4  00D0               	movwf	(ADCReadData@ChannelNumber)
  2929                           	
  2930  01F5                     l4179:	
  2931                           ;adc.c: 14: unsigned char count;
  2932                           ;adc.c: 15: unsigned x,y,c=0xff,z;
  2933  01F5  30FF               	movlw	low(0FFh)
  2934  01F6  00CC               	movwf	(ADCReadData@c)
  2935  01F7  3000               	movlw	high(0FFh)
  2936  01F8  00CD               	movwf	((ADCReadData@c))+1
  2937                           	line	16
  2938                           ;adc.c: 16: float p=0,f;
  2939  01F9  3000               	movlw	0x0
  2940  01FA  00D1               	movwf	(ADCReadData@p)
  2941  01FB  3000               	movlw	0x0
  2942  01FC  00D2               	movwf	(ADCReadData@p+1)
  2943  01FD  3000               	movlw	0x0
  2944  01FE  00D3               	movwf	(ADCReadData@p+2)
  2945                           	line	18
  2946                           	
  2947  01FF                     l4181:	
  2948                           ;adc.c: 18: ADCON0 = ((ADCON0 & 0xc7) | (ChannelNumber));
  2949  01FF  081F               	movf	(31),w
  2950  0200  39C7               	andlw	0C7h
  2951  0201  0450               	iorwf	(ADCReadData@ChannelNumber),w
  2952  0202  009F               	movwf	(31)	;volatile
  2953                           	line	19
  2954                           	
  2955  0203                     l4183:	
  2956                           ;adc.c: 19: Delay(1);
  2957  0203  3001               	movlw	low(01h)
  2958  0204  00F0               	movwf	(?_Delay)
  2959  0205  3000               	movlw	high(01h)
  2960  0206  00F1               	movwf	((?_Delay))+1
  2961  0207  120A  158A  2519   	fcall	_Delay
              120A  118A         
  2962                           	line	21
  2963                           	
  2964  020C                     l4185:	
  2965                           ;adc.c: 21: ADON = 1;
  2966  020C  1283               	bcf	status, 5	;RP0=0, select bank0
  2967  020D  1303               	bcf	status, 6	;RP1=0, select bank0
  2968  020E  141F               	bsf	(248/8),(248)&7
  2969                           	line	22
  2970                           	
  2971  020F                     l4187:	
  2972                           ;adc.c: 22: ADCON0 |= 0x04;
  2973  020F  151F               	bsf	(31)+(2/8),(2)&7	;volatile
  2974                           	line	23
  2975                           ;adc.c: 23: while( (ADCON0 & 0x02) == 1);
  2976  0210  2A12               	goto	l4189
  2977                           	
  2978  0211                     l1802:	
  2979  0211  2A12               	goto	l4189
  2980                           	
  2981  0212                     l1801:	
  2982                           	
  2983  0212                     l4189:	
  2984  0212  081F               	movf	(31),w
  2985  0213  3902               	andlw	02h
  2986  0214  3A01               	xorlw	01h
  2987  0215  1903               	skipnz
  2988  0216  2A18               	goto	u3511
  2989  0217  2A19               	goto	u3510
  2990  0218                     u3511:
  2991  0218  2A12               	goto	l4189
  2992  0219                     u3510:
  2993  0219  2A1A               	goto	l4191
  2994                           	
  2995  021A                     l1803:	
  2996                           	line	25
  2997                           	
  2998  021A                     l4191:	
  2999                           ;adc.c: 25: x=ADRESH;
  3000  021A  081E               	movf	(30),w	;volatile
  3001  021B  00C3               	movwf	(??_ADCReadData+0)+0
  3002  021C  01C4               	clrf	(??_ADCReadData+0)+0+1
  3003  021D  0843               	movf	0+(??_ADCReadData+0)+0,w
  3004  021E  00C8               	movwf	(ADCReadData@x)
  3005  021F  0844               	movf	1+(??_ADCReadData+0)+0,w
  3006  0220  00C9               	movwf	(ADCReadData@x+1)
  3007                           	line	26
  3008                           ;adc.c: 26: y=ADRESL;
  3009  0221  1683               	bsf	status, 5	;RP0=1, select bank1
  3010  0222  1303               	bcf	status, 6	;RP1=0, select bank1
  3011  0223  081E               	movf	(158)^080h,w	;volatile
  3012  0224  1283               	bcf	status, 5	;RP0=0, select bank0
  3013  0225  1303               	bcf	status, 6	;RP1=0, select bank0
  3014  0226  00C3               	movwf	(??_ADCReadData+0)+0
  3015  0227  01C4               	clrf	(??_ADCReadData+0)+0+1
  3016  0228  0843               	movf	0+(??_ADCReadData+0)+0,w
  3017  0229  00CA               	movwf	(ADCReadData@y)
  3018  022A  0844               	movf	1+(??_ADCReadData+0)+0,w
  3019  022B  00CB               	movwf	(ADCReadData@y+1)
  3020                           	line	28
  3021                           	
  3022  022C                     l4193:	
  3023                           ;adc.c: 28: z=(x*c)+y;
  3024  022C  0849               	movf	(ADCReadData@x+1),w
  3025  022D  01F1               	clrf	(?___wmul+1)
  3026  022E  07F1               	addwf	(?___wmul+1)
  3027  022F  0848               	movf	(ADCReadData@x),w
  3028  0230  01F0               	clrf	(?___wmul)
  3029  0231  07F0               	addwf	(?___wmul)
  3030                           
  3031  0232  084D               	movf	(ADCReadData@c+1),w
  3032  0233  01F3               	clrf	1+(?___wmul)+02h
  3033  0234  07F3               	addwf	1+(?___wmul)+02h
  3034  0235  084C               	movf	(ADCReadData@c),w
  3035  0236  01F2               	clrf	0+(?___wmul)+02h
  3036  0237  07F2               	addwf	0+(?___wmul)+02h
  3037                           
  3038  0238  120A  158A  25A7   	fcall	___wmul
              120A  118A         
  3039  023D  1283               	bcf	status, 5	;RP0=0, select bank0
  3040  023E  1303               	bcf	status, 6	;RP1=0, select bank0
  3041  023F  084A               	movf	(ADCReadData@y),w
  3042  0240  0770               	addwf	(0+(?___wmul)),w
  3043  0241  00CE               	movwf	(ADCReadData@z)
  3044  0242  084B               	movf	(ADCReadData@y+1),w
  3045  0243  1803               	skipnc
  3046  0244  0A4B               	incf	(ADCReadData@y+1),w
  3047  0245  0771               	addwf	(1+(?___wmul)),w
  3048  0246  00CF               	movwf	1+(ADCReadData@z)
  3049                           	line	29
  3050                           	
  3051  0247                     l4195:	
  3052                           ;adc.c: 29: f=z;
  3053  0247  084F               	movf	(ADCReadData@z+1),w
  3054  0248  01F9               	clrf	(?___lwtoft+1)
  3055  0249  07F9               	addwf	(?___lwtoft+1)
  3056  024A  084E               	movf	(ADCReadData@z),w
  3057  024B  01F8               	clrf	(?___lwtoft)
  3058  024C  07F8               	addwf	(?___lwtoft)
  3059                           
  3060  024D  120A  158A  24FE   	fcall	___lwtoft
              120A  118A         
  3061  0252  0878               	movf	(0+(?___lwtoft)),w
  3062  0253  1283               	bcf	status, 5	;RP0=0, select bank0
  3063  0254  1303               	bcf	status, 6	;RP1=0, select bank0
  3064  0255  00C5               	movwf	(ADCReadData@f)
  3065  0256  0879               	movf	(1+(?___lwtoft)),w
  3066  0257  00C6               	movwf	(ADCReadData@f+1)
  3067  0258  087A               	movf	(2+(?___lwtoft)),w
  3068  0259  00C7               	movwf	(ADCReadData@f+2)
  3069                           	line	30
  3070                           	
  3071  025A                     l4197:	
  3072                           ;adc.c: 30: p =(f*5)/1023;
  3073  025A  3000               	movlw	0x0
  3074  025B  00B0               	movwf	(?___ftmul)
  3075  025C  30A0               	movlw	0xa0
  3076  025D  00B1               	movwf	(?___ftmul+1)
  3077  025E  3040               	movlw	0x40
  3078  025F  00B2               	movwf	(?___ftmul+2)
  3079  0260  0845               	movf	(ADCReadData@f),w
  3080  0261  00B3               	movwf	0+(?___ftmul)+03h
  3081  0262  0846               	movf	(ADCReadData@f+1),w
  3082  0263  00B4               	movwf	1+(?___ftmul)+03h
  3083  0264  0847               	movf	(ADCReadData@f+2),w
  3084  0265  00B5               	movwf	2+(?___ftmul)+03h
  3085  0266  120A  118A  244C   	fcall	___ftmul
              120A  118A         
  3086  026B  1283               	bcf	status, 5	;RP0=0, select bank0
  3087  026C  1303               	bcf	status, 6	;RP1=0, select bank0
  3088  026D  0830               	movf	(0+(?___ftmul)),w
  3089  026E  00D1               	movwf	(ADCReadData@p)
  3090  026F  0831               	movf	(1+(?___ftmul)),w
  3091  0270  00D2               	movwf	(ADCReadData@p+1)
  3092  0271  0832               	movf	(2+(?___ftmul)),w
  3093  0272  00D3               	movwf	(ADCReadData@p+2)
  3094                           	
  3095  0273                     l4199:	
  3096  0273  30C0               	movlw	0xc0
  3097  0274  00F8               	movwf	(?___ftdiv)
  3098  0275  307F               	movlw	0x7f
  3099  0276  00F9               	movwf	(?___ftdiv+1)
  3100  0277  3044               	movlw	0x44
  3101  0278  00FA               	movwf	(?___ftdiv+2)
  3102  0279  0851               	movf	(ADCReadData@p),w
  3103  027A  00FB               	movwf	0+(?___ftdiv)+03h
  3104  027B  0852               	movf	(ADCReadData@p+1),w
  3105  027C  00FC               	movwf	1+(?___ftdiv)+03h
  3106  027D  0853               	movf	(ADCReadData@p+2),w
  3107  027E  00FD               	movwf	2+(?___ftdiv)+03h
  3108  027F  120A  118A  229F   	fcall	___ftdiv
              120A  118A         
  3109  0284  0878               	movf	(0+(?___ftdiv)),w
  3110  0285  1283               	bcf	status, 5	;RP0=0, select bank0
  3111  0286  1303               	bcf	status, 6	;RP1=0, select bank0
  3112  0287  00D1               	movwf	(ADCReadData@p)
  3113  0288  0879               	movf	(1+(?___ftdiv)),w
  3114  0289  00D2               	movwf	(ADCReadData@p+1)
  3115  028A  087A               	movf	(2+(?___ftdiv)),w
  3116  028B  00D3               	movwf	(ADCReadData@p+2)
  3117                           	line	32
  3118                           	
  3119  028C                     l4201:	
  3120                           ;adc.c: 32: Delay(1);
  3121  028C  3001               	movlw	low(01h)
  3122  028D  00F0               	movwf	(?_Delay)
  3123  028E  3000               	movlw	high(01h)
  3124  028F  00F1               	movwf	((?_Delay))+1
  3125  0290  120A  158A  2519   	fcall	_Delay
              120A  118A         
  3126                           	line	33
  3127                           	
  3128  0295                     l4203:	
  3129                           ;adc.c: 33: return p;
  3130  0295  1283               	bcf	status, 5	;RP0=0, select bank0
  3131  0296  1303               	bcf	status, 6	;RP1=0, select bank0
  3132  0297  0851               	movf	(ADCReadData@p),w
  3133  0298  00C0               	movwf	(?_ADCReadData)
  3134  0299  0852               	movf	(ADCReadData@p+1),w
  3135  029A  00C1               	movwf	(?_ADCReadData+1)
  3136  029B  0853               	movf	(ADCReadData@p+2),w
  3137  029C  00C2               	movwf	(?_ADCReadData+2)
  3138  029D  2A9E               	goto	l1804
  3139                           	
  3140  029E                     l4205:	
  3141                           	line	35
  3142                           	
  3143  029E                     l1804:	
  3144  029E  0008               	return
  3145                           	opt stack 0
  3146                           GLOBAL	__end_of_ADCReadData
  3147  029F                     	__end_of_ADCReadData:
  3148 ;; =============== function _ADCReadData ends ============
  3149                           
  3150                           	signat	_ADCReadData,4219
  3151                           	global	_LCDWriteByte
  3152                           psect	text519,local,class=CODE,delta=2
  3153                           global __ptext519
  3154  0DD3                     __ptext519:
  3155                           
  3156 ;; *************** function _LCDWriteByte *****************
  3157 ;; Defined at:
  3158 ;;		line 64 in file "C:\Users\X4ROY\Desktop\URE\LCD Interfacing\LCD.c"
  3159 ;; Parameters:    Size  Location     Type
  3160 ;;  LCDData         1    wreg     unsigned char 
  3161 ;; Auto vars:     Size  Location     Type
  3162 ;;  LCDData         1    5[COMMON] unsigned char 
  3163 ;; Return value:  Size  Location     Type
  3164 ;;		None               void
  3165 ;; Registers used:
  3166 ;;		wreg, status,2, status,0, pclath, cstack
  3167 ;; Tracked objects:
  3168 ;;		On entry : 0/0
  3169 ;;		On exit  : 0/0
  3170 ;;		Unchanged: 0/0
  3171 ;; Data sizes:     COMMON   BANK0   BANK1   BANK3   BANK2
  3172 ;;      Params:         0       0       0       0       0
  3173 ;;      Locals:         1       0       0       0       0
  3174 ;;      Temps:          1       0       0       0       0
  3175 ;;      Totals:         2       0       0       0       0
  3176 ;;Total ram usage:        2 bytes
  3177 ;; Hardware stack levels used:    1
  3178 ;; Hardware stack levels required when called:    2
  3179 ;; This function calls:
  3180 ;;		_LCDEnable
  3181 ;;		_Delay
  3182 ;; This function is called by:
  3183 ;;		_LCDWriteCommand
  3184 ;;		_LCDWriteData
  3185 ;; This function uses a non-reentrant model
  3186 ;;
  3187                           psect	text519
  3188                           	file	"C:\Users\X4ROY\Desktop\URE\LCD Interfacing\LCD.c"
  3189                           	line	64
  3190                           	global	__size_of_LCDWriteByte
  3191  002C                     	__size_of_LCDWriteByte	equ	__end_of_LCDWriteByte-_LCDWriteByte
  3192                           	
  3193  0DD3                     _LCDWriteByte:	
  3194                           	opt	stack 3
  3195                           ; Regs used in _LCDWriteByte: [wreg+status,2+status,0+pclath+cstack]
  3196                           ;LCDWriteByte@LCDData stored from wreg
  3197  0DD3  00F5               	movwf	(LCDWriteByte@LCDData)
  3198                           	line	65
  3199                           	
  3200  0DD4                     l4173:	
  3201                           ;LCD.c: 65: PORTD = (PORTD & 0x0F)|(LCDData & 0xF0);
  3202  0DD4  30F0               	movlw	(0F0h)
  3203  0DD5  0575               	andwf	(LCDWriteByte@LCDData),w
  3204  0DD6  00F4               	movwf	(??_LCDWriteByte+0)+0
  3205  0DD7  1283               	bcf	status, 5	;RP0=0, select bank0
  3206  0DD8  1303               	bcf	status, 6	;RP1=0, select bank0
  3207  0DD9  0808               	movf	(8),w
  3208  0DDA  390F               	andlw	0Fh
  3209  0DDB  0474               	iorwf	0+(??_LCDWriteByte+0)+0,w
  3210  0DDC  0088               	movwf	(8)	;volatile
  3211                           	line	66
  3212                           	
  3213  0DDD                     l4175:	
  3214                           ;LCD.c: 66: LCDEnable();
  3215  0DDD  120A  158A  24B8   	fcall	_LCDEnable
              120A  158A         
  3216                           	line	67
  3217                           	
  3218  0DE2                     l4177:	
  3219                           ;LCD.c: 67: PORTD = (PORTD & 0x0F)|(LCDData << 4);
  3220  0DE2  0875               	movf	(LCDWriteByte@LCDData),w
  3221  0DE3  00F4               	movwf	(??_LCDWriteByte+0)+0
  3222  0DE4  3004               	movlw	04h
  3223  0DE5                     u3505:
  3224  0DE5  1003               	clrc
  3225  0DE6  0DF4               	rlf	(??_LCDWriteByte+0)+0,f
  3226  0DE7  3EFF               	addlw	-1
  3227  0DE8  1D03               	skipz
  3228  0DE9  2DE5               	goto	u3505
  3229  0DEA  1283               	bcf	status, 5	;RP0=0, select bank0
  3230  0DEB  1303               	bcf	status, 6	;RP1=0, select bank0
  3231  0DEC  0808               	movf	(8),w
  3232  0DED  390F               	andlw	0Fh
  3233  0DEE  0474               	iorwf	0+(??_LCDWriteByte+0)+0,w
  3234  0DEF  0088               	movwf	(8)	;volatile
  3235                           	line	68
  3236                           ;LCD.c: 68: LCDEnable();
  3237  0DF0  120A  158A  24B8   	fcall	_LCDEnable
              120A  158A         
  3238                           	line	69
  3239                           ;LCD.c: 69: Delay(2);
  3240  0DF5  3002               	movlw	low(02h)
  3241  0DF6  00F0               	movwf	(?_Delay)
  3242  0DF7  3000               	movlw	high(02h)
  3243  0DF8  00F1               	movwf	((?_Delay))+1
  3244  0DF9  120A  158A  2519   	fcall	_Delay
              120A  158A         
  3245                           	line	70
  3246                           	
  3247  0DFE                     l602:	
  3248  0DFE  0008               	return
  3249                           	opt stack 0
  3250                           GLOBAL	__end_of_LCDWriteByte
  3251  0DFF                     	__end_of_LCDWriteByte:
  3252 ;; =============== function _LCDWriteByte ends ============
  3253                           
  3254                           	signat	_LCDWriteByte,4216
  3255                           	global	___lwtoft
  3256                           psect	text520,local,class=CODE,delta=2
  3257                           global __ptext520
  3258  0CFE                     __ptext520:
  3259                           
  3260 ;; *************** function ___lwtoft *****************
  3261 ;; Defined at:
  3262 ;;		line 29 in file "C:\Program Files (x86)\HI-TECH Software\PICC\9.80\sources\lwtoft.c"
  3263 ;; Parameters:    Size  Location     Type
  3264 ;;  c               2    8[COMMON] unsigned int 
  3265 ;; Auto vars:     Size  Location     Type
  3266 ;;		None
  3267 ;; Return value:  Size  Location     Type
  3268 ;;                  3    8[COMMON] float 
  3269 ;; Registers used:
  3270 ;;		wreg, status,2, status,0, pclath, cstack
  3271 ;; Tracked objects:
  3272 ;;		On entry : 0/0
  3273 ;;		On exit  : 0/0
  3274 ;;		Unchanged: 0/0
  3275 ;; Data sizes:     COMMON   BANK0   BANK1   BANK3   BANK2
  3276 ;;      Params:         3       0       0       0       0
  3277 ;;      Locals:         0       0       0       0       0
  3278 ;;      Temps:          1       0       0       0       0
  3279 ;;      Totals:         4       0       0       0       0
  3280 ;;Total ram usage:        4 bytes
  3281 ;; Hardware stack levels used:    1
  3282 ;; Hardware stack levels required when called:    1
  3283 ;; This function calls:
  3284 ;;		___ftpack
  3285 ;; This function is called by:
  3286 ;;		_ADCReadData
  3287 ;; This function uses a non-reentrant model
  3288 ;;
  3289                           psect	text520
  3290                           	file	"C:\Program Files (x86)\HI-TECH Software\PICC\9.80\sources\lwtoft.c"
  3291                           	line	29
  3292                           	global	__size_of___lwtoft
  3293  001B                     	__size_of___lwtoft	equ	__end_of___lwtoft-___lwtoft
  3294                           	
  3295  0CFE                     ___lwtoft:	
  3296                           	opt	stack 5
  3297                           ; Regs used in ___lwtoft: [wreg+status,2+status,0+pclath+cstack]
  3298                           	line	30
  3299                           	
  3300  0CFE                     l4169:	
  3301  0CFE  0878               	movf	(___lwtoft@c),w
  3302  0CFF  00F0               	movwf	(?___ftpack)
  3303  0D00  0879               	movf	(___lwtoft@c+1),w
  3304  0D01  00F1               	movwf	(?___ftpack+1)
  3305  0D02  01F2               	clrf	(?___ftpack+2)
  3306  0D03  308E               	movlw	(08Eh)
  3307  0D04  00FB               	movwf	(??___lwtoft+0)+0
  3308  0D05  087B               	movf	(??___lwtoft+0)+0,w
  3309  0D06  00F3               	movwf	0+(?___ftpack)+03h
  3310  0D07  1003               	clrc
  3311  0D08  3000               	movlw	0
  3312  0D09  1803               	btfsc	status,0
  3313  0D0A  3001               	movlw	1
  3314  0D0B  00F4               	movwf	0+(?___ftpack)+04h
  3315  0D0C  120A  118A  2052   	fcall	___ftpack
              120A  158A         
  3316  0D11  0870               	movf	(0+(?___ftpack)),w
  3317  0D12  00F8               	movwf	(?___lwtoft)
  3318  0D13  0871               	movf	(1+(?___ftpack)),w
  3319  0D14  00F9               	movwf	(?___lwtoft+1)
  3320  0D15  0872               	movf	(2+(?___ftpack)),w
  3321  0D16  00FA               	movwf	(?___lwtoft+2)
  3322  0D17  2D18               	goto	l2036
  3323                           	
  3324  0D18                     l4171:	
  3325                           	line	31
  3326                           	
  3327  0D18                     l2036:	
  3328  0D18  0008               	return
  3329                           	opt stack 0
  3330                           GLOBAL	__end_of___lwtoft
  3331  0D19                     	__end_of___lwtoft:
  3332 ;; =============== function ___lwtoft ends ============
  3333                           
  3334                           	signat	___lwtoft,4219
  3335                           	global	___awtoft
  3336                           psect	text521,local,class=CODE,delta=2
  3337                           global __ptext521
  3338  0DFF                     __ptext521:
  3339                           
  3340 ;; *************** function ___awtoft *****************
  3341 ;; Defined at:
  3342 ;;		line 33 in file "C:\Program Files (x86)\HI-TECH Software\PICC\9.80\sources\awtoft.c"
  3343 ;; Parameters:    Size  Location     Type
  3344 ;;  c               2   11[COMMON] int 
  3345 ;; Auto vars:     Size  Location     Type
  3346 ;;  sign            1    2[BANK0 ] unsigned char 
  3347 ;; Return value:  Size  Location     Type
  3348 ;;                  3   11[COMMON] float 
  3349 ;; Registers used:
  3350 ;;		wreg, status,2, status,0, pclath, cstack
  3351 ;; Tracked objects:
  3352 ;;		On entry : 0/0
  3353 ;;		On exit  : 0/0
  3354 ;;		Unchanged: 0/0
  3355 ;; Data sizes:     COMMON   BANK0   BANK1   BANK3   BANK2
  3356 ;;      Params:         3       0       0       0       0
  3357 ;;      Locals:         0       1       0       0       0
  3358 ;;      Temps:          0       2       0       0       0
  3359 ;;      Totals:         3       3       0       0       0
  3360 ;;Total ram usage:        6 bytes
  3361 ;; Hardware stack levels used:    1
  3362 ;; Hardware stack levels required when called:    1
  3363 ;; This function calls:
  3364 ;;		___ftpack
  3365 ;; This function is called by:
  3366 ;;		_LCDWriteFloat
  3367 ;; This function uses a non-reentrant model
  3368 ;;
  3369                           psect	text521
  3370                           	file	"C:\Program Files (x86)\HI-TECH Software\PICC\9.80\sources\awtoft.c"
  3371                           	line	33
  3372                           	global	__size_of___awtoft
  3373  002E                     	__size_of___awtoft	equ	__end_of___awtoft-___awtoft
  3374                           	
  3375  0DFF                     ___awtoft:	
  3376                           	opt	stack 5
  3377                           ; Regs used in ___awtoft: [wreg+status,2+status,0+pclath+cstack]
  3378                           	line	36
  3379                           	
  3380  0DFF                     l4159:	
  3381  0DFF  1003               	clrc
  3382  0E00  3000               	movlw	0
  3383  0E01  1803               	btfsc	status,0
  3384  0E02  3001               	movlw	1
  3385  0E03  1283               	bcf	status, 5	;RP0=0, select bank0
  3386  0E04  1303               	bcf	status, 6	;RP1=0, select bank0
  3387  0E05  00A2               	movwf	(___awtoft@sign)
  3388                           	line	37
  3389                           	
  3390  0E06                     l4161:	
  3391  0E06  1FFC               	btfss	(___awtoft@c+1),7
  3392  0E07  2E09               	goto	u3491
  3393  0E08  2E0A               	goto	u3490
  3394  0E09                     u3491:
  3395  0E09  2E13               	goto	l4165
  3396  0E0A                     u3490:
  3397                           	line	38
  3398                           	
  3399  0E0A                     l4163:	
  3400  0E0A  09FB               	comf	(___awtoft@c),f
  3401  0E0B  09FC               	comf	(___awtoft@c+1),f
  3402  0E0C  0AFB               	incf	(___awtoft@c),f
  3403  0E0D  1903               	skipnz
  3404  0E0E  0AFC               	incf	(___awtoft@c+1),f
  3405                           	line	39
  3406  0E0F  01A2               	clrf	(___awtoft@sign)
  3407  0E10  1403               	bsf	status,0
  3408  0E11  0DA2               	rlf	(___awtoft@sign),f
  3409  0E12  2E13               	goto	l4165
  3410                           	line	40
  3411                           	
  3412  0E13                     l1949:	
  3413                           	line	41
  3414                           	
  3415  0E13                     l4165:	
  3416  0E13  087B               	movf	(___awtoft@c),w
  3417  0E14  00F0               	movwf	(?___ftpack)
  3418  0E15  087C               	movf	(___awtoft@c+1),w
  3419  0E16  00F1               	movwf	(?___ftpack+1)
  3420  0E17  01F2               	clrf	(?___ftpack+2)
  3421  0E18  308E               	movlw	(08Eh)
  3422  0E19  00A0               	movwf	(??___awtoft+0)+0
  3423  0E1A  0820               	movf	(??___awtoft+0)+0,w
  3424  0E1B  00F3               	movwf	0+(?___ftpack)+03h
  3425  0E1C  0822               	movf	(___awtoft@sign),w
  3426  0E1D  00A1               	movwf	(??___awtoft+1)+0
  3427  0E1E  0821               	movf	(??___awtoft+1)+0,w
  3428  0E1F  00F4               	movwf	0+(?___ftpack)+04h
  3429  0E20  120A  118A  2052   	fcall	___ftpack
              120A  158A         
  3430  0E25  0870               	movf	(0+(?___ftpack)),w
  3431  0E26  00FB               	movwf	(?___awtoft)
  3432  0E27  0871               	movf	(1+(?___ftpack)),w
  3433  0E28  00FC               	movwf	(?___awtoft+1)
  3434  0E29  0872               	movf	(2+(?___ftpack)),w
  3435  0E2A  00FD               	movwf	(?___awtoft+2)
  3436  0E2B  2E2C               	goto	l1950
  3437                           	
  3438  0E2C                     l4167:	
  3439                           	line	42
  3440                           	
  3441  0E2C                     l1950:	
  3442  0E2C  0008               	return
  3443                           	opt stack 0
  3444                           GLOBAL	__end_of___awtoft
  3445  0E2D                     	__end_of___awtoft:
  3446 ;; =============== function ___awtoft ends ============
  3447                           
  3448                           	signat	___awtoft,4219
  3449                           	global	___ftmul
  3450                           psect	text522,local,class=CODE,delta=2
  3451                           global __ptext522
  3452  044C                     __ptext522:
  3453                           
  3454 ;; *************** function ___ftmul *****************
  3455 ;; Defined at:
  3456 ;;		line 52 in file "C:\Program Files (x86)\HI-TECH Software\PICC\9.80\sources\ftmul.c"
  3457 ;; Parameters:    Size  Location     Type
  3458 ;;  f1              3   16[BANK0 ] float 
  3459 ;;  f2              3   19[BANK0 ] float 
  3460 ;; Auto vars:     Size  Location     Type
  3461 ;;  f3_as_produc    3   27[BANK0 ] unsigned um
  3462 ;;  sign            1   31[BANK0 ] unsigned char 
  3463 ;;  cntr            1   30[BANK0 ] unsigned char 
  3464 ;;  exp             1   26[BANK0 ] unsigned char 
  3465 ;; Return value:  Size  Location     Type
  3466 ;;                  3   16[BANK0 ] float 
  3467 ;; Registers used:
  3468 ;;		wreg, status,2, status,0, pclath, cstack
  3469 ;; Tracked objects:
  3470 ;;		On entry : 0/0
  3471 ;;		On exit  : 0/0
  3472 ;;		Unchanged: 0/0
  3473 ;; Data sizes:     COMMON   BANK0   BANK1   BANK3   BANK2
  3474 ;;      Params:         0       6       0       0       0
  3475 ;;      Locals:         0       6       0       0       0
  3476 ;;      Temps:          0       4       0       0       0
  3477 ;;      Totals:         0      16       0       0       0
  3478 ;;Total ram usage:       16 bytes
  3479 ;; Hardware stack levels used:    1
  3480 ;; Hardware stack levels required when called:    1
  3481 ;; This function calls:
  3482 ;;		___ftpack
  3483 ;; This function is called by:
  3484 ;;		_LCDWriteFloat
  3485 ;;		_ADCReadData
  3486 ;; This function uses a non-reentrant model
  3487 ;;
  3488                           psect	text522
  3489                           	file	"C:\Program Files (x86)\HI-TECH Software\PICC\9.80\sources\ftmul.c"
  3490                           	line	52
  3491                           	global	__size_of___ftmul
  3492  00EE                     	__size_of___ftmul	equ	__end_of___ftmul-___ftmul
  3493                           	
  3494  044C                     ___ftmul:	
  3495                           	opt	stack 5
  3496                           ; Regs used in ___ftmul: [wreg+status,2+status,0+pclath+cstack]
  3497                           	line	56
  3498                           	
  3499  044C                     l4109:	
  3500  044C  1283               	bcf	status, 5	;RP0=0, select bank0
  3501  044D  1303               	bcf	status, 6	;RP1=0, select bank0
  3502  044E  0830               	movf	(___ftmul@f1),w
  3503  044F  00B6               	movwf	((??___ftmul+0)+0)
  3504  0450  0831               	movf	(___ftmul@f1+1),w
  3505  0451  00B7               	movwf	((??___ftmul+0)+0+1)
  3506  0452  0832               	movf	(___ftmul@f1+2),w
  3507  0453  00B8               	movwf	((??___ftmul+0)+0+2)
  3508  0454  1003               	clrc
  3509  0455  0D37               	rlf	(??___ftmul+0)+1,w
  3510  0456  0D38               	rlf	(??___ftmul+0)+2,w
  3511  0457  00B9               	movwf	(??___ftmul+3)+0
  3512  0458  0839               	movf	(??___ftmul+3)+0,w
  3513  0459  00BA               	movwf	(___ftmul@exp)
  3514  045A  08BA               	movf	((___ftmul@exp)),f
  3515  045B  1D03               	skipz
  3516  045C  2C5E               	goto	u3351
  3517  045D  2C5F               	goto	u3350
  3518  045E                     u3351:
  3519  045E  2C67               	goto	l4115
  3520  045F                     u3350:
  3521                           	line	57
  3522                           	
  3523  045F                     l4111:	
  3524  045F  3000               	movlw	0x0
  3525  0460  00B0               	movwf	(?___ftmul)
  3526  0461  3000               	movlw	0x0
  3527  0462  00B1               	movwf	(?___ftmul+1)
  3528  0463  3000               	movlw	0x0
  3529  0464  00B2               	movwf	(?___ftmul+2)
  3530  0465  2D39               	goto	l1912
  3531                           	
  3532  0466                     l4113:	
  3533  0466  2D39               	goto	l1912
  3534                           	
  3535  0467                     l1911:	
  3536                           	line	58
  3537                           	
  3538  0467                     l4115:	
  3539  0467  0833               	movf	(___ftmul@f2),w
  3540  0468  00B6               	movwf	((??___ftmul+0)+0)
  3541  0469  0834               	movf	(___ftmul@f2+1),w
  3542  046A  00B7               	movwf	((??___ftmul+0)+0+1)
  3543  046B  0835               	movf	(___ftmul@f2+2),w
  3544  046C  00B8               	movwf	((??___ftmul+0)+0+2)
  3545  046D  1003               	clrc
  3546  046E  0D37               	rlf	(??___ftmul+0)+1,w
  3547  046F  0D38               	rlf	(??___ftmul+0)+2,w
  3548  0470  00B9               	movwf	(??___ftmul+3)+0
  3549  0471  0839               	movf	(??___ftmul+3)+0,w
  3550  0472  00BF               	movwf	(___ftmul@sign)
  3551  0473  08BF               	movf	((___ftmul@sign)),f
  3552  0474  1D03               	skipz
  3553  0475  2C77               	goto	u3361
  3554  0476  2C78               	goto	u3360
  3555  0477                     u3361:
  3556  0477  2C80               	goto	l4121
  3557  0478                     u3360:
  3558                           	line	59
  3559                           	
  3560  0478                     l4117:	
  3561  0478  3000               	movlw	0x0
  3562  0479  00B0               	movwf	(?___ftmul)
  3563  047A  3000               	movlw	0x0
  3564  047B  00B1               	movwf	(?___ftmul+1)
  3565  047C  3000               	movlw	0x0
  3566  047D  00B2               	movwf	(?___ftmul+2)
  3567  047E  2D39               	goto	l1912
  3568                           	
  3569  047F                     l4119:	
  3570  047F  2D39               	goto	l1912
  3571                           	
  3572  0480                     l1913:	
  3573                           	line	60
  3574                           	
  3575  0480                     l4121:	
  3576  0480  083F               	movf	(___ftmul@sign),w
  3577  0481  3E7B               	addlw	07Bh
  3578  0482  00B6               	movwf	(??___ftmul+0)+0
  3579  0483  0836               	movf	(??___ftmul+0)+0,w
  3580  0484  07BA               	addwf	(___ftmul@exp),f
  3581                           	line	61
  3582  0485  0830               	movf	(___ftmul@f1),w
  3583  0486  00B6               	movwf	((??___ftmul+0)+0)
  3584  0487  0831               	movf	(___ftmul@f1+1),w
  3585  0488  00B7               	movwf	((??___ftmul+0)+0+1)
  3586  0489  0832               	movf	(___ftmul@f1+2),w
  3587  048A  00B8               	movwf	((??___ftmul+0)+0+2)
  3588  048B  3010               	movlw	010h
  3589  048C                     u3375:
  3590  048C  1003               	clrc
  3591  048D  0CB8               	rrf	(??___ftmul+0)+2,f
  3592  048E  0CB7               	rrf	(??___ftmul+0)+1,f
  3593  048F  0CB6               	rrf	(??___ftmul+0)+0,f
  3594  0490                     u3370:
  3595  0490  3EFF               	addlw	-1
  3596  0491  1D03               	skipz
  3597  0492  2C8C               	goto	u3375
  3598  0493  0836               	movf	0+(??___ftmul+0)+0,w
  3599  0494  00B9               	movwf	(??___ftmul+3)+0
  3600  0495  0839               	movf	(??___ftmul+3)+0,w
  3601  0496  00BF               	movwf	(___ftmul@sign)
  3602                           	line	62
  3603  0497  0833               	movf	(___ftmul@f2),w
  3604  0498  00B6               	movwf	((??___ftmul+0)+0)
  3605  0499  0834               	movf	(___ftmul@f2+1),w
  3606  049A  00B7               	movwf	((??___ftmul+0)+0+1)
  3607  049B  0835               	movf	(___ftmul@f2+2),w
  3608  049C  00B8               	movwf	((??___ftmul+0)+0+2)
  3609  049D  3010               	movlw	010h
  3610  049E                     u3385:
  3611  049E  1003               	clrc
  3612  049F  0CB8               	rrf	(??___ftmul+0)+2,f
  3613  04A0  0CB7               	rrf	(??___ftmul+0)+1,f
  3614  04A1  0CB6               	rrf	(??___ftmul+0)+0,f
  3615  04A2                     u3380:
  3616  04A2  3EFF               	addlw	-1
  3617  04A3  1D03               	skipz
  3618  04A4  2C9E               	goto	u3385
  3619  04A5  0836               	movf	0+(??___ftmul+0)+0,w
  3620  04A6  00B9               	movwf	(??___ftmul+3)+0
  3621  04A7  0839               	movf	(??___ftmul+3)+0,w
  3622  04A8  06BF               	xorwf	(___ftmul@sign),f
  3623                           	line	63
  3624  04A9  3080               	movlw	(080h)
  3625  04AA  00B6               	movwf	(??___ftmul+0)+0
  3626  04AB  0836               	movf	(??___ftmul+0)+0,w
  3627  04AC  05BF               	andwf	(___ftmul@sign),f
  3628                           	line	64
  3629                           	
  3630  04AD                     l4123:	
  3631  04AD  17B1               	bsf	(___ftmul@f1)+(15/8),(15)&7
  3632                           	line	66
  3633                           	
  3634  04AE                     l4125:	
  3635  04AE  17B4               	bsf	(___ftmul@f2)+(15/8),(15)&7
  3636                           	line	67
  3637                           	
  3638  04AF                     l4127:	
  3639  04AF  30FF               	movlw	0FFh
  3640  04B0  05B3               	andwf	(___ftmul@f2),f
  3641  04B1  30FF               	movlw	0FFh
  3642  04B2  05B4               	andwf	(___ftmul@f2+1),f
  3643  04B3  3000               	movlw	0
  3644  04B4  05B5               	andwf	(___ftmul@f2+2),f
  3645                           	line	68
  3646                           	
  3647  04B5                     l4129:	
  3648  04B5  3000               	movlw	0
  3649  04B6  00BB               	movwf	(___ftmul@f3_as_product)
  3650  04B7  3000               	movlw	0
  3651  04B8  00BC               	movwf	(___ftmul@f3_as_product+1)
  3652  04B9  3000               	movlw	0
  3653  04BA  00BD               	movwf	(___ftmul@f3_as_product+2)
  3654                           	line	69
  3655                           	
  3656  04BB                     l4131:	
  3657  04BB  3007               	movlw	(07h)
  3658  04BC  00B6               	movwf	(??___ftmul+0)+0
  3659  04BD  0836               	movf	(??___ftmul+0)+0,w
  3660  04BE  00BE               	movwf	(___ftmul@cntr)
  3661  04BF  2CC0               	goto	l4133
  3662                           	line	70
  3663                           	
  3664  04C0                     l1914:	
  3665                           	line	71
  3666                           	
  3667  04C0                     l4133:	
  3668  04C0  1C30               	btfss	(___ftmul@f1),(0)&7
  3669  04C1  2CC3               	goto	u3391
  3670  04C2  2CC4               	goto	u3390
  3671  04C3                     u3391:
  3672  04C3  2CD5               	goto	l4137
  3673  04C4                     u3390:
  3674                           	line	72
  3675                           	
  3676  04C4                     l4135:	
  3677  04C4  0833               	movf	(___ftmul@f2),w
  3678  04C5  07BB               	addwf	(___ftmul@f3_as_product),f
  3679  04C6  0834               	movf	(___ftmul@f2+1),w
  3680  04C7  1103               	clrz
  3681  04C8  1803               	skipnc
  3682  04C9  0A34               	incf	(___ftmul@f2+1),w
  3683  04CA  1903               	skipnz
  3684  04CB  2CCD               	goto	u3401
  3685  04CC  07BC               	addwf	(___ftmul@f3_as_product+1),f
  3686  04CD                     u3401:
  3687  04CD  0835               	movf	(___ftmul@f2+2),w
  3688  04CE  1103               	clrz
  3689  04CF  1803               	skipnc
  3690  04D0  0A35               	incf	(___ftmul@f2+2),w
  3691  04D1  1903               	skipnz
  3692  04D2  2CD4               	goto	u3402
  3693  04D3  07BD               	addwf	(___ftmul@f3_as_product+2),f
  3694  04D4                     u3402:
  3695                           
  3696  04D4  2CD5               	goto	l4137
  3697                           	
  3698  04D5                     l1915:	
  3699                           	line	73
  3700                           	
  3701  04D5                     l4137:	
  3702  04D5  3001               	movlw	01h
  3703  04D6                     u3415:
  3704  04D6  1003               	clrc
  3705  04D7  0CB2               	rrf	(___ftmul@f1+2),f
  3706  04D8  0CB1               	rrf	(___ftmul@f1+1),f
  3707  04D9  0CB0               	rrf	(___ftmul@f1),f
  3708  04DA  3EFF               	addlw	-1
  3709  04DB  1D03               	skipz
  3710  04DC  2CD6               	goto	u3415
  3711                           
  3712                           	line	74
  3713                           	
  3714  04DD                     l4139:	
  3715  04DD  3001               	movlw	01h
  3716  04DE                     u3425:
  3717  04DE  1003               	clrc
  3718  04DF  0DB3               	rlf	(___ftmul@f2),f
  3719  04E0  0DB4               	rlf	(___ftmul@f2+1),f
  3720  04E1  0DB5               	rlf	(___ftmul@f2+2),f
  3721  04E2  3EFF               	addlw	-1
  3722  04E3  1D03               	skipz
  3723  04E4  2CDE               	goto	u3425
  3724                           	line	75
  3725                           	
  3726  04E5                     l4141:	
  3727  04E5  3001               	movlw	low(01h)
  3728  04E6  02BE               	subwf	(___ftmul@cntr),f
  3729  04E7  1D03               	btfss	status,2
  3730  04E8  2CEA               	goto	u3431
  3731  04E9  2CEB               	goto	u3430
  3732  04EA                     u3431:
  3733  04EA  2CC0               	goto	l4133
  3734  04EB                     u3430:
  3735  04EB  2CEC               	goto	l4143
  3736                           	
  3737  04EC                     l1916:	
  3738                           	line	76
  3739                           	
  3740  04EC                     l4143:	
  3741  04EC  3009               	movlw	(09h)
  3742  04ED  00B6               	movwf	(??___ftmul+0)+0
  3743  04EE  0836               	movf	(??___ftmul+0)+0,w
  3744  04EF  00BE               	movwf	(___ftmul@cntr)
  3745  04F0  2CF1               	goto	l4145
  3746                           	line	77
  3747                           	
  3748  04F1                     l1917:	
  3749                           	line	78
  3750                           	
  3751  04F1                     l4145:	
  3752  04F1  1C30               	btfss	(___ftmul@f1),(0)&7
  3753  04F2  2CF4               	goto	u3441
  3754  04F3  2CF5               	goto	u3440
  3755  04F4                     u3441:
  3756  04F4  2D06               	goto	l4149
  3757  04F5                     u3440:
  3758                           	line	79
  3759                           	
  3760  04F5                     l4147:	
  3761  04F5  0833               	movf	(___ftmul@f2),w
  3762  04F6  07BB               	addwf	(___ftmul@f3_as_product),f
  3763  04F7  0834               	movf	(___ftmul@f2+1),w
  3764  04F8  1103               	clrz
  3765  04F9  1803               	skipnc
  3766  04FA  0A34               	incf	(___ftmul@f2+1),w
  3767  04FB  1903               	skipnz
  3768  04FC  2CFE               	goto	u3451
  3769  04FD  07BC               	addwf	(___ftmul@f3_as_product+1),f
  3770  04FE                     u3451:
  3771  04FE  0835               	movf	(___ftmul@f2+2),w
  3772  04FF  1103               	clrz
  3773  0500  1803               	skipnc
  3774  0501  0A35               	incf	(___ftmul@f2+2),w
  3775  0502  1903               	skipnz
  3776  0503  2D05               	goto	u3452
  3777  0504  07BD               	addwf	(___ftmul@f3_as_product+2),f
  3778  0505                     u3452:
  3779                           
  3780  0505  2D06               	goto	l4149
  3781                           	
  3782  0506                     l1918:	
  3783                           	line	80
  3784                           	
  3785  0506                     l4149:	
  3786  0506  3001               	movlw	01h
  3787  0507                     u3465:
  3788  0507  1003               	clrc
  3789  0508  0CB2               	rrf	(___ftmul@f1+2),f
  3790  0509  0CB1               	rrf	(___ftmul@f1+1),f
  3791  050A  0CB0               	rrf	(___ftmul@f1),f
  3792  050B  3EFF               	addlw	-1
  3793  050C  1D03               	skipz
  3794  050D  2D07               	goto	u3465
  3795                           
  3796                           	line	81
  3797                           	
  3798  050E                     l4151:	
  3799  050E  3001               	movlw	01h
  3800  050F                     u3475:
  3801  050F  1003               	clrc
  3802  0510  0CBD               	rrf	(___ftmul@f3_as_product+2),f
  3803  0511  0CBC               	rrf	(___ftmul@f3_as_product+1),f
  3804  0512  0CBB               	rrf	(___ftmul@f3_as_product),f
  3805  0513  3EFF               	addlw	-1
  3806  0514  1D03               	skipz
  3807  0515  2D0F               	goto	u3475
  3808                           
  3809                           	line	82
  3810                           	
  3811  0516                     l4153:	
  3812  0516  3001               	movlw	low(01h)
  3813  0517  02BE               	subwf	(___ftmul@cntr),f
  3814  0518  1D03               	btfss	status,2
  3815  0519  2D1B               	goto	u3481
  3816  051A  2D1C               	goto	u3480
  3817  051B                     u3481:
  3818  051B  2CF1               	goto	l4145
  3819  051C                     u3480:
  3820  051C  2D1D               	goto	l4155
  3821                           	
  3822  051D                     l1919:	
  3823                           	line	83
  3824                           	
  3825  051D                     l4155:	
  3826  051D  083B               	movf	(___ftmul@f3_as_product),w
  3827  051E  00F0               	movwf	(?___ftpack)
  3828  051F  083C               	movf	(___ftmul@f3_as_product+1),w
  3829  0520  00F1               	movwf	(?___ftpack+1)
  3830  0521  083D               	movf	(___ftmul@f3_as_product+2),w
  3831  0522  00F2               	movwf	(?___ftpack+2)
  3832  0523  083A               	movf	(___ftmul@exp),w
  3833  0524  00B6               	movwf	(??___ftmul+0)+0
  3834  0525  0836               	movf	(??___ftmul+0)+0,w
  3835  0526  00F3               	movwf	0+(?___ftpack)+03h
  3836  0527  083F               	movf	(___ftmul@sign),w
  3837  0528  00B7               	movwf	(??___ftmul+1)+0
  3838  0529  0837               	movf	(??___ftmul+1)+0,w
  3839  052A  00F4               	movwf	0+(?___ftpack)+04h
  3840  052B  120A  118A  2052   	fcall	___ftpack
              120A  118A         
  3841  0530  0870               	movf	(0+(?___ftpack)),w
  3842  0531  1283               	bcf	status, 5	;RP0=0, select bank0
  3843  0532  1303               	bcf	status, 6	;RP1=0, select bank0
  3844  0533  00B0               	movwf	(?___ftmul)
  3845  0534  0871               	movf	(1+(?___ftpack)),w
  3846  0535  00B1               	movwf	(?___ftmul+1)
  3847  0536  0872               	movf	(2+(?___ftpack)),w
  3848  0537  00B2               	movwf	(?___ftmul+2)
  3849  0538  2D39               	goto	l1912
  3850                           	
  3851  0539                     l4157:	
  3852                           	line	84
  3853                           	
  3854  0539                     l1912:	
  3855  0539  0008               	return
  3856                           	opt stack 0
  3857                           GLOBAL	__end_of___ftmul
  3858  053A                     	__end_of___ftmul:
  3859 ;; =============== function ___ftmul ends ============
  3860                           
  3861                           	signat	___ftmul,8315
  3862                           	global	___ftdiv
  3863                           psect	text523,local,class=CODE,delta=2
  3864                           global __ptext523
  3865  029F                     __ptext523:
  3866                           
  3867 ;; *************** function ___ftdiv *****************
  3868 ;; Defined at:
  3869 ;;		line 50 in file "C:\Program Files (x86)\HI-TECH Software\PICC\9.80\sources\ftdiv.c"
  3870 ;; Parameters:    Size  Location     Type
  3871 ;;  f2              3    8[COMMON] float 
  3872 ;;  f1              3   11[COMMON] float 
  3873 ;; Auto vars:     Size  Location     Type
  3874 ;;  f3              3    5[BANK0 ] float 
  3875 ;;  sign            1    9[BANK0 ] unsigned char 
  3876 ;;  exp             1    8[BANK0 ] unsigned char 
  3877 ;;  cntr            1    4[BANK0 ] unsigned char 
  3878 ;; Return value:  Size  Location     Type
  3879 ;;                  3    8[COMMON] float 
  3880 ;; Registers used:
  3881 ;;		wreg, status,2, status,0, pclath, cstack
  3882 ;; Tracked objects:
  3883 ;;		On entry : 0/0
  3884 ;;		On exit  : 0/0
  3885 ;;		Unchanged: 0/0
  3886 ;; Data sizes:     COMMON   BANK0   BANK1   BANK3   BANK2
  3887 ;;      Params:         6       0       0       0       0
  3888 ;;      Locals:         0       6       0       0       0
  3889 ;;      Temps:          0       4       0       0       0
  3890 ;;      Totals:         6      10       0       0       0
  3891 ;;Total ram usage:       16 bytes
  3892 ;; Hardware stack levels used:    1
  3893 ;; Hardware stack levels required when called:    1
  3894 ;; This function calls:
  3895 ;;		___ftpack
  3896 ;; This function is called by:
  3897 ;;		_ADCReadData
  3898 ;; This function uses a non-reentrant model
  3899 ;;
  3900                           psect	text523
  3901                           	file	"C:\Program Files (x86)\HI-TECH Software\PICC\9.80\sources\ftdiv.c"
  3902                           	line	50
  3903                           	global	__size_of___ftdiv
  3904  00C6                     	__size_of___ftdiv	equ	__end_of___ftdiv-___ftdiv
  3905                           	
  3906  029F                     ___ftdiv:	
  3907                           	opt	stack 5
  3908                           ; Regs used in ___ftdiv: [wreg+status,2+status,0+pclath+cstack]
  3909                           	line	55
  3910                           	
  3911  029F                     l4067:	
  3912  029F  087B               	movf	(___ftdiv@f1),w
  3913  02A0  1283               	bcf	status, 5	;RP0=0, select bank0
  3914  02A1  1303               	bcf	status, 6	;RP1=0, select bank0
  3915  02A2  00A0               	movwf	((??___ftdiv+0)+0)
  3916  02A3  087C               	movf	(___ftdiv@f1+1),w
  3917  02A4  00A1               	movwf	((??___ftdiv+0)+0+1)
  3918  02A5  087D               	movf	(___ftdiv@f1+2),w
  3919  02A6  00A2               	movwf	((??___ftdiv+0)+0+2)
  3920  02A7  1003               	clrc
  3921  02A8  0D21               	rlf	(??___ftdiv+0)+1,w
  3922  02A9  0D22               	rlf	(??___ftdiv+0)+2,w
  3923  02AA  00A3               	movwf	(??___ftdiv+3)+0
  3924  02AB  0823               	movf	(??___ftdiv+3)+0,w
  3925  02AC  00A8               	movwf	(___ftdiv@exp)
  3926  02AD  08A8               	movf	((___ftdiv@exp)),f
  3927  02AE  1D03               	skipz
  3928  02AF  2AB1               	goto	u3271
  3929  02B0  2AB2               	goto	u3270
  3930  02B1                     u3271:
  3931  02B1  2ABA               	goto	l4073
  3932  02B2                     u3270:
  3933                           	line	56
  3934                           	
  3935  02B2                     l4069:	
  3936  02B2  3000               	movlw	0x0
  3937  02B3  00F8               	movwf	(?___ftdiv)
  3938  02B4  3000               	movlw	0x0
  3939  02B5  00F9               	movwf	(?___ftdiv+1)
  3940  02B6  3000               	movlw	0x0
  3941  02B7  00FA               	movwf	(?___ftdiv+2)
  3942  02B8  2B64               	goto	l1902
  3943                           	
  3944  02B9                     l4071:	
  3945  02B9  2B64               	goto	l1902
  3946                           	
  3947  02BA                     l1901:	
  3948                           	line	57
  3949                           	
  3950  02BA                     l4073:	
  3951  02BA  0878               	movf	(___ftdiv@f2),w
  3952  02BB  00A0               	movwf	((??___ftdiv+0)+0)
  3953  02BC  0879               	movf	(___ftdiv@f2+1),w
  3954  02BD  00A1               	movwf	((??___ftdiv+0)+0+1)
  3955  02BE  087A               	movf	(___ftdiv@f2+2),w
  3956  02BF  00A2               	movwf	((??___ftdiv+0)+0+2)
  3957  02C0  1003               	clrc
  3958  02C1  0D21               	rlf	(??___ftdiv+0)+1,w
  3959  02C2  0D22               	rlf	(??___ftdiv+0)+2,w
  3960  02C3  00A3               	movwf	(??___ftdiv+3)+0
  3961  02C4  0823               	movf	(??___ftdiv+3)+0,w
  3962  02C5  00A9               	movwf	(___ftdiv@sign)
  3963  02C6  08A9               	movf	((___ftdiv@sign)),f
  3964  02C7  1D03               	skipz
  3965  02C8  2ACA               	goto	u3281
  3966  02C9  2ACB               	goto	u3280
  3967  02CA                     u3281:
  3968  02CA  2AD3               	goto	l4079
  3969  02CB                     u3280:
  3970                           	line	58
  3971                           	
  3972  02CB                     l4075:	
  3973  02CB  3000               	movlw	0x0
  3974  02CC  00F8               	movwf	(?___ftdiv)
  3975  02CD  3000               	movlw	0x0
  3976  02CE  00F9               	movwf	(?___ftdiv+1)
  3977  02CF  3000               	movlw	0x0
  3978  02D0  00FA               	movwf	(?___ftdiv+2)
  3979  02D1  2B64               	goto	l1902
  3980                           	
  3981  02D2                     l4077:	
  3982  02D2  2B64               	goto	l1902
  3983                           	
  3984  02D3                     l1903:	
  3985                           	line	59
  3986                           	
  3987  02D3                     l4079:	
  3988  02D3  3000               	movlw	0
  3989  02D4  00A5               	movwf	(___ftdiv@f3)
  3990  02D5  3000               	movlw	0
  3991  02D6  00A6               	movwf	(___ftdiv@f3+1)
  3992  02D7  3000               	movlw	0
  3993  02D8  00A7               	movwf	(___ftdiv@f3+2)
  3994                           	line	60
  3995                           	
  3996  02D9                     l4081:	
  3997  02D9  3089               	movlw	(089h)
  3998  02DA  0729               	addwf	(___ftdiv@sign),w
  3999  02DB  00A0               	movwf	(??___ftdiv+0)+0
  4000  02DC  0820               	movf	0+(??___ftdiv+0)+0,w
  4001  02DD  02A8               	subwf	(___ftdiv@exp),f
  4002                           	line	61
  4003                           	
  4004  02DE                     l4083:	
  4005  02DE  087B               	movf	(___ftdiv@f1),w
  4006  02DF  00A0               	movwf	((??___ftdiv+0)+0)
  4007  02E0  087C               	movf	(___ftdiv@f1+1),w
  4008  02E1  00A1               	movwf	((??___ftdiv+0)+0+1)
  4009  02E2  087D               	movf	(___ftdiv@f1+2),w
  4010  02E3  00A2               	movwf	((??___ftdiv+0)+0+2)
  4011  02E4  3010               	movlw	010h
  4012  02E5                     u3295:
  4013  02E5  1003               	clrc
  4014  02E6  0CA2               	rrf	(??___ftdiv+0)+2,f
  4015  02E7  0CA1               	rrf	(??___ftdiv+0)+1,f
  4016  02E8  0CA0               	rrf	(??___ftdiv+0)+0,f
  4017  02E9                     u3290:
  4018  02E9  3EFF               	addlw	-1
  4019  02EA  1D03               	skipz
  4020  02EB  2AE5               	goto	u3295
  4021  02EC  0820               	movf	0+(??___ftdiv+0)+0,w
  4022  02ED  00A3               	movwf	(??___ftdiv+3)+0
  4023  02EE  0823               	movf	(??___ftdiv+3)+0,w
  4024  02EF  00A9               	movwf	(___ftdiv@sign)
  4025                           	line	62
  4026                           	
  4027  02F0                     l4085:	
  4028  02F0  0878               	movf	(___ftdiv@f2),w
  4029  02F1  00A0               	movwf	((??___ftdiv+0)+0)
  4030  02F2  0879               	movf	(___ftdiv@f2+1),w
  4031  02F3  00A1               	movwf	((??___ftdiv+0)+0+1)
  4032  02F4  087A               	movf	(___ftdiv@f2+2),w
  4033  02F5  00A2               	movwf	((??___ftdiv+0)+0+2)
  4034  02F6  3010               	movlw	010h
  4035  02F7                     u3305:
  4036  02F7  1003               	clrc
  4037  02F8  0CA2               	rrf	(??___ftdiv+0)+2,f
  4038  02F9  0CA1               	rrf	(??___ftdiv+0)+1,f
  4039  02FA  0CA0               	rrf	(??___ftdiv+0)+0,f
  4040  02FB                     u3300:
  4041  02FB  3EFF               	addlw	-1
  4042  02FC  1D03               	skipz
  4043  02FD  2AF7               	goto	u3305
  4044  02FE  0820               	movf	0+(??___ftdiv+0)+0,w
  4045  02FF  00A3               	movwf	(??___ftdiv+3)+0
  4046  0300  0823               	movf	(??___ftdiv+3)+0,w
  4047  0301  06A9               	xorwf	(___ftdiv@sign),f
  4048                           	line	63
  4049                           	
  4050  0302                     l4087:	
  4051  0302  3080               	movlw	(080h)
  4052  0303  00A0               	movwf	(??___ftdiv+0)+0
  4053  0304  0820               	movf	(??___ftdiv+0)+0,w
  4054  0305  05A9               	andwf	(___ftdiv@sign),f
  4055                           	line	64
  4056                           	
  4057  0306                     l4089:	
  4058  0306  17FC               	bsf	(___ftdiv@f1)+(15/8),(15)&7
  4059                           	line	65
  4060  0307  30FF               	movlw	0FFh
  4061  0308  05FB               	andwf	(___ftdiv@f1),f
  4062  0309  30FF               	movlw	0FFh
  4063  030A  05FC               	andwf	(___ftdiv@f1+1),f
  4064  030B  3000               	movlw	0
  4065  030C  05FD               	andwf	(___ftdiv@f1+2),f
  4066                           	line	66
  4067                           	
  4068  030D                     l4091:	
  4069  030D  17F9               	bsf	(___ftdiv@f2)+(15/8),(15)&7
  4070                           	line	67
  4071  030E  30FF               	movlw	0FFh
  4072  030F  05F8               	andwf	(___ftdiv@f2),f
  4073  0310  30FF               	movlw	0FFh
  4074  0311  05F9               	andwf	(___ftdiv@f2+1),f
  4075  0312  3000               	movlw	0
  4076  0313  05FA               	andwf	(___ftdiv@f2+2),f
  4077                           	line	68
  4078  0314  3018               	movlw	(018h)
  4079  0315  00A0               	movwf	(??___ftdiv+0)+0
  4080  0316  0820               	movf	(??___ftdiv+0)+0,w
  4081  0317  00A4               	movwf	(___ftdiv@cntr)
  4082  0318  2B19               	goto	l4093
  4083                           	line	69
  4084                           	
  4085  0319                     l1904:	
  4086                           	line	70
  4087                           	
  4088  0319                     l4093:	
  4089  0319  3001               	movlw	01h
  4090  031A                     u3315:
  4091  031A  1003               	clrc
  4092  031B  0DA5               	rlf	(___ftdiv@f3),f
  4093  031C  0DA6               	rlf	(___ftdiv@f3+1),f
  4094  031D  0DA7               	rlf	(___ftdiv@f3+2),f
  4095  031E  3EFF               	addlw	-1
  4096  031F  1D03               	skipz
  4097  0320  2B1A               	goto	u3315
  4098                           	line	71
  4099                           	
  4100  0321                     l4095:	
  4101  0321  087A               	movf	(___ftdiv@f2+2),w
  4102  0322  027D               	subwf	(___ftdiv@f1+2),w
  4103  0323  1D03               	skipz
  4104  0324  2B2B               	goto	u3325
  4105  0325  0879               	movf	(___ftdiv@f2+1),w
  4106  0326  027C               	subwf	(___ftdiv@f1+1),w
  4107  0327  1D03               	skipz
  4108  0328  2B2B               	goto	u3325
  4109  0329  0878               	movf	(___ftdiv@f2),w
  4110  032A  027B               	subwf	(___ftdiv@f1),w
  4111  032B                     u3325:
  4112  032B  1C03               	skipc
  4113  032C  2B2E               	goto	u3321
  4114  032D  2B2F               	goto	u3320
  4115  032E                     u3321:
  4116  032E  2B3B               	goto	l4101
  4117  032F                     u3320:
  4118                           	line	72
  4119                           	
  4120  032F                     l4097:	
  4121  032F  0878               	movf	(___ftdiv@f2),w
  4122  0330  02FB               	subwf	(___ftdiv@f1),f
  4123  0331  0879               	movf	(___ftdiv@f2+1),w
  4124  0332  1C03               	skipc
  4125  0333  0F79               	incfsz	(___ftdiv@f2+1),w
  4126  0334  02FC               	subwf	(___ftdiv@f1+1),f
  4127  0335  087A               	movf	(___ftdiv@f2+2),w
  4128  0336  1C03               	skipc
  4129  0337  0A7A               	incf	(___ftdiv@f2+2),w
  4130  0338  02FD               	subwf	(___ftdiv@f1+2),f
  4131                           	line	73
  4132                           	
  4133  0339                     l4099:	
  4134  0339  1425               	bsf	(___ftdiv@f3)+(0/8),(0)&7
  4135  033A  2B3B               	goto	l4101
  4136                           	line	74
  4137                           	
  4138  033B                     l1905:	
  4139                           	line	75
  4140                           	
  4141  033B                     l4101:	
  4142  033B  3001               	movlw	01h
  4143  033C                     u3335:
  4144  033C  1003               	clrc
  4145  033D  0DFB               	rlf	(___ftdiv@f1),f
  4146  033E  0DFC               	rlf	(___ftdiv@f1+1),f
  4147  033F  0DFD               	rlf	(___ftdiv@f1+2),f
  4148  0340  3EFF               	addlw	-1
  4149  0341  1D03               	skipz
  4150  0342  2B3C               	goto	u3335
  4151                           	line	76
  4152                           	
  4153  0343                     l4103:	
  4154  0343  3001               	movlw	low(01h)
  4155  0344  02A4               	subwf	(___ftdiv@cntr),f
  4156  0345  1D03               	btfss	status,2
  4157  0346  2B48               	goto	u3341
  4158  0347  2B49               	goto	u3340
  4159  0348                     u3341:
  4160  0348  2B19               	goto	l4093
  4161  0349                     u3340:
  4162  0349  2B4A               	goto	l4105
  4163                           	
  4164  034A                     l1906:	
  4165                           	line	77
  4166                           	
  4167  034A                     l4105:	
  4168  034A  0825               	movf	(___ftdiv@f3),w
  4169  034B  00F0               	movwf	(?___ftpack)
  4170  034C  0826               	movf	(___ftdiv@f3+1),w
  4171  034D  00F1               	movwf	(?___ftpack+1)
  4172  034E  0827               	movf	(___ftdiv@f3+2),w
  4173  034F  00F2               	movwf	(?___ftpack+2)
  4174  0350  0828               	movf	(___ftdiv@exp),w
  4175  0351  00A0               	movwf	(??___ftdiv+0)+0
  4176  0352  0820               	movf	(??___ftdiv+0)+0,w
  4177  0353  00F3               	movwf	0+(?___ftpack)+03h
  4178  0354  0829               	movf	(___ftdiv@sign),w
  4179  0355  00A1               	movwf	(??___ftdiv+1)+0
  4180  0356  0821               	movf	(??___ftdiv+1)+0,w
  4181  0357  00F4               	movwf	0+(?___ftpack)+04h
  4182  0358  120A  118A  2052   	fcall	___ftpack
              120A  118A         
  4183  035D  0870               	movf	(0+(?___ftpack)),w
  4184  035E  00F8               	movwf	(?___ftdiv)
  4185  035F  0871               	movf	(1+(?___ftpack)),w
  4186  0360  00F9               	movwf	(?___ftdiv+1)
  4187  0361  0872               	movf	(2+(?___ftpack)),w
  4188  0362  00FA               	movwf	(?___ftdiv+2)
  4189  0363  2B64               	goto	l1902
  4190                           	
  4191  0364                     l4107:	
  4192                           	line	78
  4193                           	
  4194  0364                     l1902:	
  4195  0364  0008               	return
  4196                           	opt stack 0
  4197                           GLOBAL	__end_of___ftdiv
  4198  0365                     	__end_of___ftdiv:
  4199 ;; =============== function ___ftdiv ends ============
  4200                           
  4201                           	signat	___ftdiv,8315
  4202                           	global	___ftadd
  4203                           psect	text524,local,class=CODE,delta=2
  4204                           global __ptext524
  4205  053A                     __ptext524:
  4206                           
  4207 ;; *************** function ___ftadd *****************
  4208 ;; Defined at:
  4209 ;;		line 87 in file "C:\Program Files (x86)\HI-TECH Software\PICC\9.80\sources\ftadd.c"
  4210 ;; Parameters:    Size  Location     Type
  4211 ;;  f1              3    3[BANK0 ] float 
  4212 ;;  f2              3    6[BANK0 ] float 
  4213 ;; Auto vars:     Size  Location     Type
  4214 ;;  exp1            1   15[BANK0 ] unsigned char 
  4215 ;;  exp2            1   14[BANK0 ] unsigned char 
  4216 ;;  sign            1   13[BANK0 ] unsigned char 
  4217 ;; Return value:  Size  Location     Type
  4218 ;;                  3    3[BANK0 ] float 
  4219 ;; Registers used:
  4220 ;;		wreg, status,2, status,0, pclath, cstack
  4221 ;; Tracked objects:
  4222 ;;		On entry : 0/0
  4223 ;;		On exit  : 0/0
  4224 ;;		Unchanged: 0/0
  4225 ;; Data sizes:     COMMON   BANK0   BANK1   BANK3   BANK2
  4226 ;;      Params:         0       6       0       0       0
  4227 ;;      Locals:         0       3       0       0       0
  4228 ;;      Temps:          0       4       0       0       0
  4229 ;;      Totals:         0      13       0       0       0
  4230 ;;Total ram usage:       13 bytes
  4231 ;; Hardware stack levels used:    1
  4232 ;; Hardware stack levels required when called:    1
  4233 ;; This function calls:
  4234 ;;		___ftpack
  4235 ;; This function is called by:
  4236 ;;		_LCDWriteFloat
  4237 ;;		___ftsub
  4238 ;; This function uses a non-reentrant model
  4239 ;;
  4240                           psect	text524
  4241                           	file	"C:\Program Files (x86)\HI-TECH Software\PICC\9.80\sources\ftadd.c"
  4242                           	line	87
  4243                           	global	__size_of___ftadd
  4244  014A                     	__size_of___ftadd	equ	__end_of___ftadd-___ftadd
  4245                           	
  4246  053A                     ___ftadd:	
  4247                           	opt	stack 5
  4248                           ; Regs used in ___ftadd: [wreg+status,2+status,0+pclath+cstack]
  4249                           	line	90
  4250                           	
  4251  053A                     l3995:	
  4252  053A  1283               	bcf	status, 5	;RP0=0, select bank0
  4253  053B  1303               	bcf	status, 6	;RP1=0, select bank0
  4254  053C  0823               	movf	(___ftadd@f1),w
  4255  053D  00A9               	movwf	((??___ftadd+0)+0)
  4256  053E  0824               	movf	(___ftadd@f1+1),w
  4257  053F  00AA               	movwf	((??___ftadd+0)+0+1)
  4258  0540  0825               	movf	(___ftadd@f1+2),w
  4259  0541  00AB               	movwf	((??___ftadd+0)+0+2)
  4260  0542  1003               	clrc
  4261  0543  0D2A               	rlf	(??___ftadd+0)+1,w
  4262  0544  0D2B               	rlf	(??___ftadd+0)+2,w
  4263  0545  00AC               	movwf	(??___ftadd+3)+0
  4264  0546  082C               	movf	(??___ftadd+3)+0,w
  4265  0547  00AF               	movwf	(___ftadd@exp1)
  4266                           	line	91
  4267  0548  0826               	movf	(___ftadd@f2),w
  4268  0549  00A9               	movwf	((??___ftadd+0)+0)
  4269  054A  0827               	movf	(___ftadd@f2+1),w
  4270  054B  00AA               	movwf	((??___ftadd+0)+0+1)
  4271  054C  0828               	movf	(___ftadd@f2+2),w
  4272  054D  00AB               	movwf	((??___ftadd+0)+0+2)
  4273  054E  1003               	clrc
  4274  054F  0D2A               	rlf	(??___ftadd+0)+1,w
  4275  0550  0D2B               	rlf	(??___ftadd+0)+2,w
  4276  0551  00AC               	movwf	(??___ftadd+3)+0
  4277  0552  082C               	movf	(??___ftadd+3)+0,w
  4278  0553  00AE               	movwf	(___ftadd@exp2)
  4279                           	line	92
  4280                           	
  4281  0554                     l3997:	
  4282  0554  082F               	movf	(___ftadd@exp1),w
  4283  0555  1D03               	skipz
  4284  0556  2D58               	goto	u3030
  4285  0557  2D69               	goto	l4003
  4286  0558                     u3030:
  4287                           	
  4288  0558                     l3999:	
  4289  0558  082E               	movf	(___ftadd@exp2),w
  4290  0559  022F               	subwf	(___ftadd@exp1),w
  4291  055A  1803               	skipnc
  4292  055B  2D5D               	goto	u3041
  4293  055C  2D5E               	goto	u3040
  4294  055D                     u3041:
  4295  055D  2D71               	goto	l4007
  4296  055E                     u3040:
  4297                           	
  4298  055E                     l4001:	
  4299  055E  032F               	decf	(___ftadd@exp1),w
  4300  055F  3AFF               	xorlw	0ffh
  4301  0560  072E               	addwf	(___ftadd@exp2),w
  4302  0561  00A9               	movwf	(??___ftadd+0)+0
  4303  0562  3019               	movlw	(019h)
  4304  0563  0229               	subwf	0+(??___ftadd+0)+0,w
  4305  0564  1C03               	skipc
  4306  0565  2D67               	goto	u3051
  4307  0566  2D68               	goto	u3050
  4308  0567                     u3051:
  4309  0567  2D71               	goto	l4007
  4310  0568                     u3050:
  4311  0568  2D69               	goto	l4003
  4312                           	
  4313  0569                     l1859:	
  4314                           	line	93
  4315                           	
  4316  0569                     l4003:	
  4317  0569  0826               	movf	(___ftadd@f2),w
  4318  056A  00A3               	movwf	(?___ftadd)
  4319  056B  0827               	movf	(___ftadd@f2+1),w
  4320  056C  00A4               	movwf	(?___ftadd+1)
  4321  056D  0828               	movf	(___ftadd@f2+2),w
  4322  056E  00A5               	movwf	(?___ftadd+2)
  4323  056F  2E83               	goto	l1860
  4324                           	
  4325  0570                     l4005:	
  4326  0570  2E83               	goto	l1860
  4327                           	
  4328  0571                     l1857:	
  4329                           	line	94
  4330                           	
  4331  0571                     l4007:	
  4332  0571  082E               	movf	(___ftadd@exp2),w
  4333  0572  1D03               	skipz
  4334  0573  2D75               	goto	u3060
  4335  0574  2D85               	goto	l1863
  4336  0575                     u3060:
  4337                           	
  4338  0575                     l4009:	
  4339  0575  082F               	movf	(___ftadd@exp1),w
  4340  0576  022E               	subwf	(___ftadd@exp2),w
  4341  0577  1803               	skipnc
  4342  0578  2D7A               	goto	u3071
  4343  0579  2D7B               	goto	u3070
  4344  057A                     u3071:
  4345  057A  2D86               	goto	l4013
  4346  057B                     u3070:
  4347                           	
  4348  057B                     l4011:	
  4349  057B  032E               	decf	(___ftadd@exp2),w
  4350  057C  3AFF               	xorlw	0ffh
  4351  057D  072F               	addwf	(___ftadd@exp1),w
  4352  057E  00A9               	movwf	(??___ftadd+0)+0
  4353  057F  3019               	movlw	(019h)
  4354  0580  0229               	subwf	0+(??___ftadd+0)+0,w
  4355  0581  1C03               	skipc
  4356  0582  2D84               	goto	u3081
  4357  0583  2D85               	goto	u3080
  4358  0584                     u3081:
  4359  0584  2D86               	goto	l4013
  4360  0585                     u3080:
  4361                           	
  4362  0585                     l1863:	
  4363                           	line	95
  4364  0585  2E83               	goto	l1860
  4365                           	
  4366  0586                     l1861:	
  4367                           	line	96
  4368                           	
  4369  0586                     l4013:	
  4370  0586  3006               	movlw	(06h)
  4371  0587  00A9               	movwf	(??___ftadd+0)+0
  4372  0588  0829               	movf	(??___ftadd+0)+0,w
  4373  0589  00AD               	movwf	(___ftadd@sign)
  4374                           	line	97
  4375                           	
  4376  058A                     l4015:	
  4377  058A  1FA5               	btfss	(___ftadd@f1+2),(23)&7
  4378  058B  2D8D               	goto	u3091
  4379  058C  2D8E               	goto	u3090
  4380  058D                     u3091:
  4381  058D  2D8F               	goto	l1864
  4382  058E                     u3090:
  4383                           	line	98
  4384                           	
  4385  058E                     l4017:	
  4386  058E  17AD               	bsf	(___ftadd@sign)+(7/8),(7)&7
  4387                           	
  4388  058F                     l1864:	
  4389                           	line	99
  4390  058F  1FA8               	btfss	(___ftadd@f2+2),(23)&7
  4391  0590  2D92               	goto	u3101
  4392  0591  2D93               	goto	u3100
  4393  0592                     u3101:
  4394  0592  2D94               	goto	l1865
  4395  0593                     u3100:
  4396                           	line	100
  4397                           	
  4398  0593                     l4019:	
  4399  0593  172D               	bsf	(___ftadd@sign)+(6/8),(6)&7
  4400                           	
  4401  0594                     l1865:	
  4402                           	line	101
  4403  0594  17A4               	bsf	(___ftadd@f1)+(15/8),(15)&7
  4404                           	line	102
  4405                           	
  4406  0595                     l4021:	
  4407  0595  30FF               	movlw	0FFh
  4408  0596  05A3               	andwf	(___ftadd@f1),f
  4409  0597  30FF               	movlw	0FFh
  4410  0598  05A4               	andwf	(___ftadd@f1+1),f
  4411  0599  3000               	movlw	0
  4412  059A  05A5               	andwf	(___ftadd@f1+2),f
  4413                           	line	103
  4414                           	
  4415  059B                     l4023:	
  4416  059B  17A7               	bsf	(___ftadd@f2)+(15/8),(15)&7
  4417                           	line	104
  4418  059C  30FF               	movlw	0FFh
  4419  059D  05A6               	andwf	(___ftadd@f2),f
  4420  059E  30FF               	movlw	0FFh
  4421  059F  05A7               	andwf	(___ftadd@f2+1),f
  4422  05A0  3000               	movlw	0
  4423  05A1  05A8               	andwf	(___ftadd@f2+2),f
  4424                           	line	106
  4425  05A2  082E               	movf	(___ftadd@exp2),w
  4426  05A3  022F               	subwf	(___ftadd@exp1),w
  4427  05A4  1803               	skipnc
  4428  05A5  2DA7               	goto	u3111
  4429  05A6  2DA8               	goto	u3110
  4430  05A7                     u3111:
  4431  05A7  2DD9               	goto	l4035
  4432  05A8                     u3110:
  4433  05A8  2DA9               	goto	l4025
  4434                           	line	109
  4435                           	
  4436  05A9                     l1867:	
  4437                           	line	110
  4438                           	
  4439  05A9                     l4025:	
  4440  05A9  3001               	movlw	01h
  4441  05AA                     u3125:
  4442  05AA  1003               	clrc
  4443  05AB  0DA6               	rlf	(___ftadd@f2),f
  4444  05AC  0DA7               	rlf	(___ftadd@f2+1),f
  4445  05AD  0DA8               	rlf	(___ftadd@f2+2),f
  4446  05AE  3EFF               	addlw	-1
  4447  05AF  1D03               	skipz
  4448  05B0  2DAA               	goto	u3125
  4449                           	line	111
  4450  05B1  3001               	movlw	low(01h)
  4451  05B2  02AE               	subwf	(___ftadd@exp2),f
  4452                           	line	112
  4453                           	
  4454  05B3                     l4027:	
  4455  05B3  082E               	movf	(___ftadd@exp2),w
  4456  05B4  062F               	xorwf	(___ftadd@exp1),w
  4457  05B5  1903               	skipnz
  4458  05B6  2DB8               	goto	u3131
  4459  05B7  2DB9               	goto	u3130
  4460  05B8                     u3131:
  4461  05B8  2DD1               	goto	l4033
  4462  05B9                     u3130:
  4463                           	
  4464  05B9                     l4029:	
  4465  05B9  3001               	movlw	low(01h)
  4466  05BA  02AD               	subwf	(___ftadd@sign),f
  4467  05BB  082D               	movf	((___ftadd@sign)),w
  4468  05BC  3907               	andlw	07h
  4469  05BD  1D03               	btfss	status,2
  4470  05BE  2DC0               	goto	u3141
  4471  05BF  2DC1               	goto	u3140
  4472  05C0                     u3141:
  4473  05C0  2DA9               	goto	l4025
  4474  05C1                     u3140:
  4475  05C1  2DD1               	goto	l4033
  4476                           	
  4477  05C2                     l1869:	
  4478  05C2  2DD1               	goto	l4033
  4479                           	
  4480  05C3                     l1870:	
  4481                           	line	113
  4482  05C3  2DD1               	goto	l4033
  4483                           	
  4484  05C4                     l1872:	
  4485                           	line	114
  4486                           	
  4487  05C4                     l4031:	
  4488  05C4  3001               	movlw	01h
  4489  05C5                     u3155:
  4490  05C5  1003               	clrc
  4491  05C6  0CA5               	rrf	(___ftadd@f1+2),f
  4492  05C7  0CA4               	rrf	(___ftadd@f1+1),f
  4493  05C8  0CA3               	rrf	(___ftadd@f1),f
  4494  05C9  3EFF               	addlw	-1
  4495  05CA  1D03               	skipz
  4496  05CB  2DC5               	goto	u3155
  4497                           
  4498                           	line	115
  4499  05CC  3001               	movlw	(01h)
  4500  05CD  00A9               	movwf	(??___ftadd+0)+0
  4501  05CE  0829               	movf	(??___ftadd+0)+0,w
  4502  05CF  07AF               	addwf	(___ftadd@exp1),f
  4503  05D0  2DD1               	goto	l4033
  4504                           	line	116
  4505                           	
  4506  05D1                     l1871:	
  4507                           	line	113
  4508                           	
  4509  05D1                     l4033:	
  4510  05D1  082F               	movf	(___ftadd@exp1),w
  4511  05D2  062E               	xorwf	(___ftadd@exp2),w
  4512  05D3  1D03               	skipz
  4513  05D4  2DD6               	goto	u3161
  4514  05D5  2DD7               	goto	u3160
  4515  05D6                     u3161:
  4516  05D6  2DC4               	goto	l4031
  4517  05D7                     u3160:
  4518  05D7  2E10               	goto	l1874
  4519                           	
  4520  05D8                     l1873:	
  4521                           	line	117
  4522  05D8  2E10               	goto	l1874
  4523                           	
  4524  05D9                     l1866:	
  4525                           	
  4526  05D9                     l4035:	
  4527  05D9  082F               	movf	(___ftadd@exp1),w
  4528  05DA  022E               	subwf	(___ftadd@exp2),w
  4529  05DB  1803               	skipnc
  4530  05DC  2DDE               	goto	u3171
  4531  05DD  2DDF               	goto	u3170
  4532  05DE                     u3171:
  4533  05DE  2E10               	goto	l1874
  4534  05DF                     u3170:
  4535  05DF  2DE0               	goto	l4037
  4536                           	line	120
  4537                           	
  4538  05E0                     l1876:	
  4539                           	line	121
  4540                           	
  4541  05E0                     l4037:	
  4542  05E0  3001               	movlw	01h
  4543  05E1                     u3185:
  4544  05E1  1003               	clrc
  4545  05E2  0DA3               	rlf	(___ftadd@f1),f
  4546  05E3  0DA4               	rlf	(___ftadd@f1+1),f
  4547  05E4  0DA5               	rlf	(___ftadd@f1+2),f
  4548  05E5  3EFF               	addlw	-1
  4549  05E6  1D03               	skipz
  4550  05E7  2DE1               	goto	u3185
  4551                           	line	122
  4552  05E8  3001               	movlw	low(01h)
  4553  05E9  02AF               	subwf	(___ftadd@exp1),f
  4554                           	line	123
  4555                           	
  4556  05EA                     l4039:	
  4557  05EA  082E               	movf	(___ftadd@exp2),w
  4558  05EB  062F               	xorwf	(___ftadd@exp1),w
  4559  05EC  1903               	skipnz
  4560  05ED  2DEF               	goto	u3191
  4561  05EE  2DF0               	goto	u3190
  4562  05EF                     u3191:
  4563  05EF  2E08               	goto	l4045
  4564  05F0                     u3190:
  4565                           	
  4566  05F0                     l4041:	
  4567  05F0  3001               	movlw	low(01h)
  4568  05F1  02AD               	subwf	(___ftadd@sign),f
  4569  05F2  082D               	movf	((___ftadd@sign)),w
  4570  05F3  3907               	andlw	07h
  4571  05F4  1D03               	btfss	status,2
  4572  05F5  2DF7               	goto	u3201
  4573  05F6  2DF8               	goto	u3200
  4574  05F7                     u3201:
  4575  05F7  2DE0               	goto	l4037
  4576  05F8                     u3200:
  4577  05F8  2E08               	goto	l4045
  4578                           	
  4579  05F9                     l1878:	
  4580  05F9  2E08               	goto	l4045
  4581                           	
  4582  05FA                     l1879:	
  4583                           	line	124
  4584  05FA  2E08               	goto	l4045
  4585                           	
  4586  05FB                     l1881:	
  4587                           	line	125
  4588                           	
  4589  05FB                     l4043:	
  4590  05FB  3001               	movlw	01h
  4591  05FC                     u3215:
  4592  05FC  1003               	clrc
  4593  05FD  0CA8               	rrf	(___ftadd@f2+2),f
  4594  05FE  0CA7               	rrf	(___ftadd@f2+1),f
  4595  05FF  0CA6               	rrf	(___ftadd@f2),f
  4596  0600  3EFF               	addlw	-1
  4597  0601  1D03               	skipz
  4598  0602  2DFC               	goto	u3215
  4599                           
  4600                           	line	126
  4601  0603  3001               	movlw	(01h)
  4602  0604  00A9               	movwf	(??___ftadd+0)+0
  4603  0605  0829               	movf	(??___ftadd+0)+0,w
  4604  0606  07AE               	addwf	(___ftadd@exp2),f
  4605  0607  2E08               	goto	l4045
  4606                           	line	127
  4607                           	
  4608  0608                     l1880:	
  4609                           	line	124
  4610                           	
  4611  0608                     l4045:	
  4612  0608  082F               	movf	(___ftadd@exp1),w
  4613  0609  062E               	xorwf	(___ftadd@exp2),w
  4614  060A  1D03               	skipz
  4615  060B  2E0D               	goto	u3221
  4616  060C  2E0E               	goto	u3220
  4617  060D                     u3221:
  4618  060D  2DFB               	goto	l4043
  4619  060E                     u3220:
  4620  060E  2E10               	goto	l1874
  4621                           	
  4622  060F                     l1882:	
  4623  060F  2E10               	goto	l1874
  4624                           	line	128
  4625                           	
  4626  0610                     l1875:	
  4627                           	line	129
  4628                           	
  4629  0610                     l1874:	
  4630  0610  1FAD               	btfss	(___ftadd@sign),(7)&7
  4631  0611  2E13               	goto	u3231
  4632  0612  2E14               	goto	u3230
  4633  0613                     u3231:
  4634  0613  2E25               	goto	l4049
  4635  0614                     u3230:
  4636                           	line	131
  4637                           	
  4638  0614                     l4047:	
  4639  0614  30FF               	movlw	0FFh
  4640  0615  06A3               	xorwf	(___ftadd@f1),f
  4641  0616  30FF               	movlw	0FFh
  4642  0617  06A4               	xorwf	(___ftadd@f1+1),f
  4643  0618  30FF               	movlw	0FFh
  4644  0619  06A5               	xorwf	(___ftadd@f1+2),f
  4645                           	line	132
  4646  061A  3001               	movlw	01h
  4647  061B  07A3               	addwf	(___ftadd@f1),f
  4648  061C  3000               	movlw	0
  4649  061D  1803               	skipnc
  4650  061E  3001               movlw 1
  4651  061F  07A4               	addwf	(___ftadd@f1+1),f
  4652  0620  3000               	movlw	0
  4653  0621  1803               	skipnc
  4654  0622  3001               movlw 1
  4655  0623  07A5               	addwf	(___ftadd@f1+2),f
  4656  0624  2E25               	goto	l4049
  4657                           	line	133
  4658                           	
  4659  0625                     l1883:	
  4660                           	line	134
  4661                           	
  4662  0625                     l4049:	
  4663  0625  1F2D               	btfss	(___ftadd@sign),(6)&7
  4664  0626  2E28               	goto	u3241
  4665  0627  2E29               	goto	u3240
  4666  0628                     u3241:
  4667  0628  2E3A               	goto	l4053
  4668  0629                     u3240:
  4669                           	line	136
  4670                           	
  4671  0629                     l4051:	
  4672  0629  30FF               	movlw	0FFh
  4673  062A  06A6               	xorwf	(___ftadd@f2),f
  4674  062B  30FF               	movlw	0FFh
  4675  062C  06A7               	xorwf	(___ftadd@f2+1),f
  4676  062D  30FF               	movlw	0FFh
  4677  062E  06A8               	xorwf	(___ftadd@f2+2),f
  4678                           	line	137
  4679  062F  3001               	movlw	01h
  4680  0630  07A6               	addwf	(___ftadd@f2),f
  4681  0631  3000               	movlw	0
  4682  0632  1803               	skipnc
  4683  0633  3001               movlw 1
  4684  0634  07A7               	addwf	(___ftadd@f2+1),f
  4685  0635  3000               	movlw	0
  4686  0636  1803               	skipnc
  4687  0637  3001               movlw 1
  4688  0638  07A8               	addwf	(___ftadd@f2+2),f
  4689  0639  2E3A               	goto	l4053
  4690                           	line	138
  4691                           	
  4692  063A                     l1884:	
  4693                           	line	139
  4694                           	
  4695  063A                     l4053:	
  4696  063A  1003               	clrc
  4697  063B  3000               	movlw	0
  4698  063C  1803               	btfsc	status,0
  4699  063D  3001               	movlw	1
  4700  063E  00AD               	movwf	(___ftadd@sign)
  4701                           	line	140
  4702                           	
  4703  063F                     l4055:	
  4704  063F  0823               	movf	(___ftadd@f1),w
  4705  0640  07A6               	addwf	(___ftadd@f2),f
  4706  0641  0824               	movf	(___ftadd@f1+1),w
  4707  0642  1103               	clrz
  4708  0643  1803               	skipnc
  4709  0644  0A24               	incf	(___ftadd@f1+1),w
  4710  0645  1903               	skipnz
  4711  0646  2E48               	goto	u3251
  4712  0647  07A7               	addwf	(___ftadd@f2+1),f
  4713  0648                     u3251:
  4714  0648  0825               	movf	(___ftadd@f1+2),w
  4715  0649  1103               	clrz
  4716  064A  1803               	skipnc
  4717  064B  0A25               	incf	(___ftadd@f1+2),w
  4718  064C  1903               	skipnz
  4719  064D  2E4F               	goto	u3252
  4720  064E  07A8               	addwf	(___ftadd@f2+2),f
  4721  064F                     u3252:
  4722                           
  4723                           	line	141
  4724                           	
  4725  064F                     l4057:	
  4726  064F  1FA8               	btfss	(___ftadd@f2+2),(23)&7
  4727  0650  2E52               	goto	u3261
  4728  0651  2E53               	goto	u3260
  4729  0652                     u3261:
  4730  0652  2E67               	goto	l4063
  4731  0653                     u3260:
  4732                           	line	142
  4733                           	
  4734  0653                     l4059:	
  4735  0653  30FF               	movlw	0FFh
  4736  0654  06A6               	xorwf	(___ftadd@f2),f
  4737  0655  30FF               	movlw	0FFh
  4738  0656  06A7               	xorwf	(___ftadd@f2+1),f
  4739  0657  30FF               	movlw	0FFh
  4740  0658  06A8               	xorwf	(___ftadd@f2+2),f
  4741                           	line	143
  4742  0659  3001               	movlw	01h
  4743  065A  07A6               	addwf	(___ftadd@f2),f
  4744  065B  3000               	movlw	0
  4745  065C  1803               	skipnc
  4746  065D  3001               movlw 1
  4747  065E  07A7               	addwf	(___ftadd@f2+1),f
  4748  065F  3000               	movlw	0
  4749  0660  1803               	skipnc
  4750  0661  3001               movlw 1
  4751  0662  07A8               	addwf	(___ftadd@f2+2),f
  4752                           	line	144
  4753                           	
  4754  0663                     l4061:	
  4755  0663  01AD               	clrf	(___ftadd@sign)
  4756  0664  1403               	bsf	status,0
  4757  0665  0DAD               	rlf	(___ftadd@sign),f
  4758  0666  2E67               	goto	l4063
  4759                           	line	145
  4760                           	
  4761  0667                     l1885:	
  4762                           	line	146
  4763                           	
  4764  0667                     l4063:	
  4765  0667  0826               	movf	(___ftadd@f2),w
  4766  0668  00F0               	movwf	(?___ftpack)
  4767  0669  0827               	movf	(___ftadd@f2+1),w
  4768  066A  00F1               	movwf	(?___ftpack+1)
  4769  066B  0828               	movf	(___ftadd@f2+2),w
  4770  066C  00F2               	movwf	(?___ftpack+2)
  4771  066D  082F               	movf	(___ftadd@exp1),w
  4772  066E  00A9               	movwf	(??___ftadd+0)+0
  4773  066F  0829               	movf	(??___ftadd+0)+0,w
  4774  0670  00F3               	movwf	0+(?___ftpack)+03h
  4775  0671  082D               	movf	(___ftadd@sign),w
  4776  0672  00AA               	movwf	(??___ftadd+1)+0
  4777  0673  082A               	movf	(??___ftadd+1)+0,w
  4778  0674  00F4               	movwf	0+(?___ftpack)+04h
  4779  0675  120A  118A  2052   	fcall	___ftpack
              120A  118A         
  4780  067A  0870               	movf	(0+(?___ftpack)),w
  4781  067B  1283               	bcf	status, 5	;RP0=0, select bank0
  4782  067C  1303               	bcf	status, 6	;RP1=0, select bank0
  4783  067D  00A3               	movwf	(?___ftadd)
  4784  067E  0871               	movf	(1+(?___ftpack)),w
  4785  067F  00A4               	movwf	(?___ftadd+1)
  4786  0680  0872               	movf	(2+(?___ftpack)),w
  4787  0681  00A5               	movwf	(?___ftadd+2)
  4788  0682  2E83               	goto	l1860
  4789                           	
  4790  0683                     l4065:	
  4791                           	line	148
  4792                           	
  4793  0683                     l1860:	
  4794  0683  0008               	return
  4795                           	opt stack 0
  4796                           GLOBAL	__end_of___ftadd
  4797  0684                     	__end_of___ftadd:
  4798 ;; =============== function ___ftadd ends ============
  4799                           
  4800                           	signat	___ftadd,8315
  4801                           	global	_LCDEnable
  4802                           psect	text525,local,class=CODE,delta=2
  4803                           global __ptext525
  4804  0CB8                     __ptext525:
  4805                           
  4806 ;; *************** function _LCDEnable *****************
  4807 ;; Defined at:
  4808 ;;		line 5 in file "C:\Users\X4ROY\Desktop\URE\LCD Interfacing\LCD.c"
  4809 ;; Parameters:    Size  Location     Type
  4810 ;;		None
  4811 ;; Auto vars:     Size  Location     Type
  4812 ;;		None
  4813 ;; Return value:  Size  Location     Type
  4814 ;;		None               void
  4815 ;; Registers used:
  4816 ;;		wreg, status,2, status,0, pclath, cstack
  4817 ;; Tracked objects:
  4818 ;;		On entry : 0/0
  4819 ;;		On exit  : 0/0
  4820 ;;		Unchanged: 0/0
  4821 ;; Data sizes:     COMMON   BANK0   BANK1   BANK3   BANK2
  4822 ;;      Params:         0       0       0       0       0
  4823 ;;      Locals:         0       0       0       0       0
  4824 ;;      Temps:          0       0       0       0       0
  4825 ;;      Totals:         0       0       0       0       0
  4826 ;;Total ram usage:        0 bytes
  4827 ;; Hardware stack levels used:    1
  4828 ;; Hardware stack levels required when called:    1
  4829 ;; This function calls:
  4830 ;;		_Delay
  4831 ;; This function is called by:
  4832 ;;		_LCDWriteByte
  4833 ;; This function uses a non-reentrant model
  4834 ;;
  4835                           psect	text525
  4836                           	file	"C:\Users\X4ROY\Desktop\URE\LCD Interfacing\LCD.c"
  4837                           	line	5
  4838                           	global	__size_of_LCDEnable
  4839  0010                     	__size_of_LCDEnable	equ	__end_of_LCDEnable-_LCDEnable
  4840                           	
  4841  0CB8                     _LCDEnable:	
  4842                           	opt	stack 3
  4843                           ; Regs used in _LCDEnable: [wreg+status,2+status,0+pclath+cstack]
  4844                           	line	6
  4845                           	
  4846  0CB8                     l3989:	
  4847                           ;LCD.c: 6: RD3 = 1;
  4848  0CB8  1283               	bcf	status, 5	;RP0=0, select bank0
  4849  0CB9  1303               	bcf	status, 6	;RP1=0, select bank0
  4850  0CBA  1588               	bsf	(67/8),(67)&7
  4851                           	line	7
  4852                           	
  4853  0CBB                     l3991:	
  4854                           ;LCD.c: 7: Delay(10);
  4855  0CBB  300A               	movlw	low(0Ah)
  4856  0CBC  00F0               	movwf	(?_Delay)
  4857  0CBD  3000               	movlw	high(0Ah)
  4858  0CBE  00F1               	movwf	((?_Delay))+1
  4859  0CBF  120A  158A  2519   	fcall	_Delay
              120A  158A         
  4860                           	line	8
  4861                           	
  4862  0CC4                     l3993:	
  4863                           ;LCD.c: 8: RD3 = 0;
  4864  0CC4  1283               	bcf	status, 5	;RP0=0, select bank0
  4865  0CC5  1303               	bcf	status, 6	;RP1=0, select bank0
  4866  0CC6  1188               	bcf	(67/8),(67)&7
  4867                           	line	9
  4868                           	
  4869  0CC7                     l576:	
  4870  0CC7  0008               	return
  4871                           	opt stack 0
  4872                           GLOBAL	__end_of_LCDEnable
  4873  0CC8                     	__end_of_LCDEnable:
  4874 ;; =============== function _LCDEnable ends ============
  4875                           
  4876                           	signat	_LCDEnable,88
  4877                           	global	___awmod
  4878                           psect	text526,local,class=CODE,delta=2
  4879                           global __ptext526
  4880  0EB1                     __ptext526:
  4881                           
  4882 ;; *************** function ___awmod *****************
  4883 ;; Defined at:
  4884 ;;		line 5 in file "C:\Program Files (x86)\HI-TECH Software\PICC\9.80\sources\awmod.c"
  4885 ;; Parameters:    Size  Location     Type
  4886 ;;  divisor         2    0[COMMON] int 
  4887 ;;  dividend        2    2[COMMON] int 
  4888 ;; Auto vars:     Size  Location     Type
  4889 ;;  sign            1    6[COMMON] unsigned char 
  4890 ;;  counter         1    5[COMMON] unsigned char 
  4891 ;; Return value:  Size  Location     Type
  4892 ;;                  2    0[COMMON] int 
  4893 ;; Registers used:
  4894 ;;		wreg, status,2, status,0
  4895 ;; Tracked objects:
  4896 ;;		On entry : 0/0
  4897 ;;		On exit  : 0/0
  4898 ;;		Unchanged: 0/0
  4899 ;; Data sizes:     COMMON   BANK0   BANK1   BANK3   BANK2
  4900 ;;      Params:         4       0       0       0       0
  4901 ;;      Locals:         2       0       0       0       0
  4902 ;;      Temps:          1       0       0       0       0
  4903 ;;      Totals:         7       0       0       0       0
  4904 ;;Total ram usage:        7 bytes
  4905 ;; Hardware stack levels used:    1
  4906 ;; This function calls:
  4907 ;;		Nothing
  4908 ;; This function is called by:
  4909 ;;		_LCDWriteFloat
  4910 ;;		_LCDWriteInteger
  4911 ;;		_LCDDisplayByte
  4912 ;; This function uses a non-reentrant model
  4913 ;;
  4914                           psect	text526
  4915                           	file	"C:\Program Files (x86)\HI-TECH Software\PICC\9.80\sources\awmod.c"
  4916                           	line	5
  4917                           	global	__size_of___awmod
  4918  006A                     	__size_of___awmod	equ	__end_of___awmod-___awmod
  4919                           	
  4920  0EB1                     ___awmod:	
  4921                           	opt	stack 6
  4922                           ; Regs used in ___awmod: [wreg+status,2+status,0]
  4923                           	line	8
  4924                           	
  4925  0EB1                     l3909:	
  4926  0EB1  1003               	clrc
  4927  0EB2  3000               	movlw	0
  4928  0EB3  1803               	btfsc	status,0
  4929  0EB4  3001               	movlw	1
  4930  0EB5  00F6               	movwf	(___awmod@sign)
  4931                           	line	9
  4932                           	
  4933  0EB6                     l3911:	
  4934  0EB6  1FF3               	btfss	(___awmod@dividend+1),7
  4935  0EB7  2EB9               	goto	u2881
  4936  0EB8  2EBA               	goto	u2880
  4937  0EB9                     u2881:
  4938  0EB9  2EC3               	goto	l3915
  4939  0EBA                     u2880:
  4940                           	line	10
  4941                           	
  4942  0EBA                     l3913:	
  4943  0EBA  09F2               	comf	(___awmod@dividend),f
  4944  0EBB  09F3               	comf	(___awmod@dividend+1),f
  4945  0EBC  0AF2               	incf	(___awmod@dividend),f
  4946  0EBD  1903               	skipnz
  4947  0EBE  0AF3               	incf	(___awmod@dividend+1),f
  4948                           	line	11
  4949  0EBF  01F6               	clrf	(___awmod@sign)
  4950  0EC0  1403               	bsf	status,0
  4951  0EC1  0DF6               	rlf	(___awmod@sign),f
  4952  0EC2  2EC3               	goto	l3915
  4953                           	line	12
  4954                           	
  4955  0EC3                     l2021:	
  4956                           	line	13
  4957                           	
  4958  0EC3                     l3915:	
  4959  0EC3  1FF1               	btfss	(___awmod@divisor+1),7
  4960  0EC4  2EC6               	goto	u2891
  4961  0EC5  2EC7               	goto	u2890
  4962  0EC6                     u2891:
  4963  0EC6  2ECD               	goto	l3919
  4964  0EC7                     u2890:
  4965                           	line	14
  4966                           	
  4967  0EC7                     l3917:	
  4968  0EC7  09F0               	comf	(___awmod@divisor),f
  4969  0EC8  09F1               	comf	(___awmod@divisor+1),f
  4970  0EC9  0AF0               	incf	(___awmod@divisor),f
  4971  0ECA  1903               	skipnz
  4972  0ECB  0AF1               	incf	(___awmod@divisor+1),f
  4973  0ECC  2ECD               	goto	l3919
  4974                           	
  4975  0ECD                     l2022:	
  4976                           	line	15
  4977                           	
  4978  0ECD                     l3919:	
  4979  0ECD  0871               	movf	(___awmod@divisor+1),w
  4980  0ECE  0470               	iorwf	(___awmod@divisor),w
  4981  0ECF  1903               	skipnz
  4982  0ED0  2ED2               	goto	u2901
  4983  0ED1  2ED3               	goto	u2900
  4984  0ED2                     u2901:
  4985  0ED2  2F09               	goto	l3937
  4986  0ED3                     u2900:
  4987                           	line	16
  4988                           	
  4989  0ED3                     l3921:	
  4990  0ED3  01F5               	clrf	(___awmod@counter)
  4991  0ED4  1403               	bsf	status,0
  4992  0ED5  0DF5               	rlf	(___awmod@counter),f
  4993                           	line	17
  4994  0ED6  2EE3               	goto	l3927
  4995                           	
  4996  0ED7                     l2025:	
  4997                           	line	18
  4998                           	
  4999  0ED7                     l3923:	
  5000  0ED7  3001               	movlw	01h
  5001                           	
  5002  0ED8                     u2915:
  5003  0ED8  1003               	clrc
  5004  0ED9  0DF0               	rlf	(___awmod@divisor),f
  5005  0EDA  0DF1               	rlf	(___awmod@divisor+1),f
  5006  0EDB  3EFF               	addlw	-1
  5007  0EDC  1D03               	skipz
  5008  0EDD  2ED8               	goto	u2915
  5009                           	line	19
  5010                           	
  5011  0EDE                     l3925:	
  5012  0EDE  3001               	movlw	(01h)
  5013  0EDF  00F4               	movwf	(??___awmod+0)+0
  5014  0EE0  0874               	movf	(??___awmod+0)+0,w
  5015  0EE1  07F5               	addwf	(___awmod@counter),f
  5016  0EE2  2EE3               	goto	l3927
  5017                           	line	20
  5018                           	
  5019  0EE3                     l2024:	
  5020                           	line	17
  5021                           	
  5022  0EE3                     l3927:	
  5023  0EE3  1FF1               	btfss	(___awmod@divisor+1),(15)&7
  5024  0EE4  2EE6               	goto	u2921
  5025  0EE5  2EE7               	goto	u2920
  5026  0EE6                     u2921:
  5027  0EE6  2ED7               	goto	l3923
  5028  0EE7                     u2920:
  5029  0EE7  2EE9               	goto	l3929
  5030                           	
  5031  0EE8                     l2026:	
  5032  0EE8  2EE9               	goto	l3929
  5033                           	line	21
  5034                           	
  5035  0EE9                     l2027:	
  5036                           	line	22
  5037                           	
  5038  0EE9                     l3929:	
  5039  0EE9  0871               	movf	(___awmod@divisor+1),w
  5040  0EEA  0273               	subwf	(___awmod@dividend+1),w
  5041  0EEB  1D03               	skipz
  5042  0EEC  2EEF               	goto	u2935
  5043  0EED  0870               	movf	(___awmod@divisor),w
  5044  0EEE  0272               	subwf	(___awmod@dividend),w
  5045  0EEF                     u2935:
  5046  0EEF  1C03               	skipc
  5047  0EF0  2EF2               	goto	u2931
  5048  0EF1  2EF3               	goto	u2930
  5049  0EF2                     u2931:
  5050  0EF2  2EFA               	goto	l3933
  5051  0EF3                     u2930:
  5052                           	line	23
  5053                           	
  5054  0EF3                     l3931:	
  5055  0EF3  0870               	movf	(___awmod@divisor),w
  5056  0EF4  02F2               	subwf	(___awmod@dividend),f
  5057  0EF5  0871               	movf	(___awmod@divisor+1),w
  5058  0EF6  1C03               	skipc
  5059  0EF7  03F3               	decf	(___awmod@dividend+1),f
  5060  0EF8  02F3               	subwf	(___awmod@dividend+1),f
  5061  0EF9  2EFA               	goto	l3933
  5062                           	
  5063  0EFA                     l2028:	
  5064                           	line	24
  5065                           	
  5066  0EFA                     l3933:	
  5067  0EFA  3001               	movlw	01h
  5068                           	
  5069  0EFB                     u2945:
  5070  0EFB  1003               	clrc
  5071  0EFC  0CF1               	rrf	(___awmod@divisor+1),f
  5072  0EFD  0CF0               	rrf	(___awmod@divisor),f
  5073  0EFE  3EFF               	addlw	-1
  5074  0EFF  1D03               	skipz
  5075  0F00  2EFB               	goto	u2945
  5076                           	line	25
  5077                           	
  5078  0F01                     l3935:	
  5079  0F01  3001               	movlw	low(01h)
  5080  0F02  02F5               	subwf	(___awmod@counter),f
  5081  0F03  1D03               	btfss	status,2
  5082  0F04  2F06               	goto	u2951
  5083  0F05  2F07               	goto	u2950
  5084  0F06                     u2951:
  5085  0F06  2EE9               	goto	l3929
  5086  0F07                     u2950:
  5087  0F07  2F09               	goto	l3937
  5088                           	
  5089  0F08                     l2029:	
  5090  0F08  2F09               	goto	l3937
  5091                           	line	26
  5092                           	
  5093  0F09                     l2023:	
  5094                           	line	27
  5095                           	
  5096  0F09                     l3937:	
  5097  0F09  0876               	movf	(___awmod@sign),w
  5098  0F0A  1D03               	skipz
  5099  0F0B  2F0D               	goto	u2960
  5100  0F0C  2F13               	goto	l3941
  5101  0F0D                     u2960:
  5102                           	line	28
  5103                           	
  5104  0F0D                     l3939:	
  5105  0F0D  09F2               	comf	(___awmod@dividend),f
  5106  0F0E  09F3               	comf	(___awmod@dividend+1),f
  5107  0F0F  0AF2               	incf	(___awmod@dividend),f
  5108  0F10  1903               	skipnz
  5109  0F11  0AF3               	incf	(___awmod@dividend+1),f
  5110  0F12  2F13               	goto	l3941
  5111                           	
  5112  0F13                     l2030:	
  5113                           	line	29
  5114                           	
  5115  0F13                     l3941:	
  5116  0F13  0873               	movf	(___awmod@dividend+1),w
  5117  0F14  01F1               	clrf	(?___awmod+1)
  5118  0F15  07F1               	addwf	(?___awmod+1)
  5119  0F16  0872               	movf	(___awmod@dividend),w
  5120  0F17  01F0               	clrf	(?___awmod)
  5121  0F18  07F0               	addwf	(?___awmod)
  5122                           
  5123  0F19  2F1A               	goto	l2031
  5124                           	
  5125  0F1A                     l3943:	
  5126                           	line	30
  5127                           	
  5128  0F1A                     l2031:	
  5129  0F1A  0008               	return
  5130                           	opt stack 0
  5131                           GLOBAL	__end_of___awmod
  5132  0F1B                     	__end_of___awmod:
  5133 ;; =============== function ___awmod ends ============
  5134                           
  5135                           	signat	___awmod,8314
  5136                           	global	___ftge
  5137                           psect	text527,local,class=CODE,delta=2
  5138                           global __ptext527
  5139  0F1B                     __ptext527:
  5140                           
  5141 ;; *************** function ___ftge *****************
  5142 ;; Defined at:
  5143 ;;		line 5 in file "C:\Program Files (x86)\HI-TECH Software\PICC\9.80\sources\ftge.c"
  5144 ;; Parameters:    Size  Location     Type
  5145 ;;  ff1             3    0[COMMON] float 
  5146 ;;  ff2             3    3[COMMON] float 
  5147 ;; Auto vars:     Size  Location     Type
  5148 ;;		None
  5149 ;; Return value:  Size  Location     Type
  5150 ;;		None               void
  5151 ;; Registers used:
  5152 ;;		wreg, status,2, status,0
  5153 ;; Tracked objects:
  5154 ;;		On entry : 0/0
  5155 ;;		On exit  : 0/0
  5156 ;;		Unchanged: 0/0
  5157 ;; Data sizes:     COMMON   BANK0   BANK1   BANK3   BANK2
  5158 ;;      Params:         6       0       0       0       0
  5159 ;;      Locals:         0       0       0       0       0
  5160 ;;      Temps:          6       0       0       0       0
  5161 ;;      Totals:        12       0       0       0       0
  5162 ;;Total ram usage:       12 bytes
  5163 ;; Hardware stack levels used:    1
  5164 ;; This function calls:
  5165 ;;		Nothing
  5166 ;; This function is called by:
  5167 ;;		_LCDWriteFloat
  5168 ;; This function uses a non-reentrant model
  5169 ;;
  5170                           psect	text527
  5171                           	file	"C:\Program Files (x86)\HI-TECH Software\PICC\9.80\sources\ftge.c"
  5172                           	line	5
  5173                           	global	__size_of___ftge
  5174  006C                     	__size_of___ftge	equ	__end_of___ftge-___ftge
  5175                           	
  5176  0F1B                     ___ftge:	
  5177                           	opt	stack 6
  5178                           ; Regs used in ___ftge: [wreg+status,2+status,0]
  5179                           	line	6
  5180                           	
  5181  0F1B                     l3889:	
  5182  0F1B  1FF2               	btfss	(___ftge@ff1+2),(23)&7
  5183  0F1C  2F1E               	goto	u2831
  5184  0F1D  2F1F               	goto	u2830
  5185  0F1E                     u2831:
  5186  0F1E  2F45               	goto	l3893
  5187  0F1F                     u2830:
  5188                           	line	7
  5189                           	
  5190  0F1F                     l3891:	
  5191  0F1F  3000               	movlw	0
  5192  0F20  00F6               	movwf	((??___ftge+0)+0)
  5193  0F21  3000               	movlw	0
  5194  0F22  00F7               	movwf	((??___ftge+0)+0+1)
  5195  0F23  3080               	movlw	080h
  5196  0F24  00F8               	movwf	((??___ftge+0)+0+2)
  5197  0F25  0970               	comf	(___ftge@ff1),w
  5198  0F26  00F9               	movwf	(??___ftge+3)+0
  5199  0F27  0971               	comf	(___ftge@ff1+1),w
  5200  0F28  00FA               	movwf	((??___ftge+3)+0+1)
  5201  0F29  0972               	comf	(___ftge@ff1+2),w
  5202  0F2A  00FB               	movwf	((??___ftge+3)+0+2)
  5203  0F2B  0AF9               	incf	(??___ftge+3)+0,f
  5204  0F2C  1903               	skipnz
  5205  0F2D  0AFA               	incf	((??___ftge+3)+0+1),f
  5206  0F2E  1903               	skipnz
  5207  0F2F  0AFB               	incf	((??___ftge+3)+0+2),f
  5208  0F30  0879               	movf	0+(??___ftge+3)+0,w
  5209  0F31  07F6               	addwf	(??___ftge+0)+0,f
  5210  0F32  087A               	movf	1+(??___ftge+3)+0,w
  5211  0F33  1803               	skipnc
  5212  0F34  0F7A               	incfsz	1+(??___ftge+3)+0,w
  5213  0F35  2F37               	goto	u2841
  5214  0F36  2F38               	goto	u2842
  5215  0F37                     u2841:
  5216  0F37  07F7               	addwf	(??___ftge+0)+1,f
  5217                           	
  5218  0F38                     u2842:
  5219  0F38  087B               	movf	2+(??___ftge+3)+0,w
  5220  0F39  1803               	skipnc
  5221  0F3A  0F7B               	incfsz	2+(??___ftge+3)+0,w
  5222  0F3B  2F3D               	goto	u2843
  5223  0F3C  2F3E               	goto	u2844
  5224  0F3D                     u2843:
  5225  0F3D  07F8               	addwf	(??___ftge+0)+2,f
  5226                           	
  5227  0F3E                     u2844:
  5228  0F3E  0876               	movf	0+(??___ftge+0)+0,w
  5229  0F3F  00F0               	movwf	(___ftge@ff1)
  5230  0F40  0877               	movf	1+(??___ftge+0)+0,w
  5231  0F41  00F1               	movwf	(___ftge@ff1+1)
  5232  0F42  0878               	movf	2+(??___ftge+0)+0,w
  5233  0F43  00F2               	movwf	(___ftge@ff1+2)
  5234  0F44  2F45               	goto	l3893
  5235                           	
  5236  0F45                     l1980:	
  5237                           	line	8
  5238                           	
  5239  0F45                     l3893:	
  5240  0F45  1FF5               	btfss	(___ftge@ff2+2),(23)&7
  5241  0F46  2F48               	goto	u2851
  5242  0F47  2F49               	goto	u2850
  5243  0F48                     u2851:
  5244  0F48  2F6F               	goto	l3897
  5245  0F49                     u2850:
  5246                           	line	9
  5247                           	
  5248  0F49                     l3895:	
  5249  0F49  3000               	movlw	0
  5250  0F4A  00F6               	movwf	((??___ftge+0)+0)
  5251  0F4B  3000               	movlw	0
  5252  0F4C  00F7               	movwf	((??___ftge+0)+0+1)
  5253  0F4D  3080               	movlw	080h
  5254  0F4E  00F8               	movwf	((??___ftge+0)+0+2)
  5255  0F4F  0973               	comf	(___ftge@ff2),w
  5256  0F50  00F9               	movwf	(??___ftge+3)+0
  5257  0F51  0974               	comf	(___ftge@ff2+1),w
  5258  0F52  00FA               	movwf	((??___ftge+3)+0+1)
  5259  0F53  0975               	comf	(___ftge@ff2+2),w
  5260  0F54  00FB               	movwf	((??___ftge+3)+0+2)
  5261  0F55  0AF9               	incf	(??___ftge+3)+0,f
  5262  0F56  1903               	skipnz
  5263  0F57  0AFA               	incf	((??___ftge+3)+0+1),f
  5264  0F58  1903               	skipnz
  5265  0F59  0AFB               	incf	((??___ftge+3)+0+2),f
  5266  0F5A  0879               	movf	0+(??___ftge+3)+0,w
  5267  0F5B  07F6               	addwf	(??___ftge+0)+0,f
  5268  0F5C  087A               	movf	1+(??___ftge+3)+0,w
  5269  0F5D  1803               	skipnc
  5270  0F5E  0F7A               	incfsz	1+(??___ftge+3)+0,w
  5271  0F5F  2F61               	goto	u2861
  5272  0F60  2F62               	goto	u2862
  5273  0F61                     u2861:
  5274  0F61  07F7               	addwf	(??___ftge+0)+1,f
  5275                           	
  5276  0F62                     u2862:
  5277  0F62  087B               	movf	2+(??___ftge+3)+0,w
  5278  0F63  1803               	skipnc
  5279  0F64  0F7B               	incfsz	2+(??___ftge+3)+0,w
  5280  0F65  2F67               	goto	u2863
  5281  0F66  2F68               	goto	u2864
  5282  0F67                     u2863:
  5283  0F67  07F8               	addwf	(??___ftge+0)+2,f
  5284                           	
  5285  0F68                     u2864:
  5286  0F68  0876               	movf	0+(??___ftge+0)+0,w
  5287  0F69  00F3               	movwf	(___ftge@ff2)
  5288  0F6A  0877               	movf	1+(??___ftge+0)+0,w
  5289  0F6B  00F4               	movwf	(___ftge@ff2+1)
  5290  0F6C  0878               	movf	2+(??___ftge+0)+0,w
  5291  0F6D  00F5               	movwf	(___ftge@ff2+2)
  5292  0F6E  2F6F               	goto	l3897
  5293                           	
  5294  0F6F                     l1981:	
  5295                           	line	10
  5296                           	
  5297  0F6F                     l3897:	
  5298  0F6F  3080               	movlw	080h
  5299  0F70  06F2               	xorwf	(___ftge@ff1+2),f
  5300                           	line	11
  5301                           	
  5302  0F71                     l3899:	
  5303  0F71  3080               	movlw	080h
  5304  0F72  06F5               	xorwf	(___ftge@ff2+2),f
  5305                           	line	12
  5306                           	
  5307  0F73                     l3901:	
  5308  0F73  0875               	movf	(___ftge@ff2+2),w
  5309  0F74  0272               	subwf	(___ftge@ff1+2),w
  5310  0F75  1D03               	skipz
  5311  0F76  2F7D               	goto	u2875
  5312  0F77  0874               	movf	(___ftge@ff2+1),w
  5313  0F78  0271               	subwf	(___ftge@ff1+1),w
  5314  0F79  1D03               	skipz
  5315  0F7A  2F7D               	goto	u2875
  5316  0F7B  0873               	movf	(___ftge@ff2),w
  5317  0F7C  0270               	subwf	(___ftge@ff1),w
  5318  0F7D                     u2875:
  5319  0F7D  1803               	skipnc
  5320  0F7E  2F80               	goto	u2871
  5321  0F7F  2F81               	goto	u2870
  5322  0F80                     u2871:
  5323  0F80  2F83               	goto	l3905
  5324  0F81                     u2870:
  5325                           	
  5326  0F81                     l3903:	
  5327  0F81  1003               	clrc
  5328                           	
  5329  0F82  2F86               	goto	l1982
  5330                           	
  5331  0F83                     l3689:	
  5332                           	
  5333  0F83                     l3905:	
  5334  0F83  1403               	setc
  5335                           	
  5336  0F84  2F86               	goto	l1982
  5337                           	
  5338  0F85                     l3691:	
  5339  0F85  2F86               	goto	l1982
  5340                           	
  5341  0F86                     l3907:	
  5342                           	line	13
  5343                           	
  5344  0F86                     l1982:	
  5345  0F86  0008               	return
  5346                           	opt stack 0
  5347                           GLOBAL	__end_of___ftge
  5348  0F87                     	__end_of___ftge:
  5349 ;; =============== function ___ftge ends ============
  5350                           
  5351                           	signat	___ftge,8312
  5352                           	global	___ftneg
  5353                           psect	text528,local,class=CODE,delta=2
  5354                           global __ptext528
  5355  0C9D                     __ptext528:
  5356                           
  5357 ;; *************** function ___ftneg *****************
  5358 ;; Defined at:
  5359 ;;		line 16 in file "C:\Program Files (x86)\HI-TECH Software\PICC\9.80\sources\ftneg.c"
  5360 ;; Parameters:    Size  Location     Type
  5361 ;;  f1              3    8[COMMON] float 
  5362 ;; Auto vars:     Size  Location     Type
  5363 ;;		None
  5364 ;; Return value:  Size  Location     Type
  5365 ;;                  3    8[COMMON] float 
  5366 ;; Registers used:
  5367 ;;		wreg
  5368 ;; Tracked objects:
  5369 ;;		On entry : 0/0
  5370 ;;		On exit  : 0/0
  5371 ;;		Unchanged: 0/0
  5372 ;; Data sizes:     COMMON   BANK0   BANK1   BANK3   BANK2
  5373 ;;      Params:         3       0       0       0       0
  5374 ;;      Locals:         0       0       0       0       0
  5375 ;;      Temps:          0       0       0       0       0
  5376 ;;      Totals:         3       0       0       0       0
  5377 ;;Total ram usage:        3 bytes
  5378 ;; Hardware stack levels used:    1
  5379 ;; This function calls:
  5380 ;;		Nothing
  5381 ;; This function is called by:
  5382 ;;		_LCDWriteFloat
  5383 ;; This function uses a non-reentrant model
  5384 ;;
  5385                           psect	text528
  5386                           	file	"C:\Program Files (x86)\HI-TECH Software\PICC\9.80\sources\ftneg.c"
  5387                           	line	16
  5388                           	global	__size_of___ftneg
  5389  000C                     	__size_of___ftneg	equ	__end_of___ftneg-___ftneg
  5390                           	
  5391  0C9D                     ___ftneg:	
  5392                           	opt	stack 6
  5393                           ; Regs used in ___ftneg: [wreg]
  5394                           	line	17
  5395                           	
  5396  0C9D                     l3881:	
  5397  0C9D  087A               	movf	(___ftneg@f1+2),w
  5398  0C9E  0479               	iorwf	(___ftneg@f1+1),w
  5399  0C9F  0478               	iorwf	(___ftneg@f1),w
  5400  0CA0  1903               	skipnz
  5401  0CA1  2CA3               	goto	u2821
  5402  0CA2  2CA4               	goto	u2820
  5403  0CA3                     u2821:
  5404  0CA3  2CA7               	goto	l3885
  5405  0CA4                     u2820:
  5406                           	line	18
  5407                           	
  5408  0CA4                     l3883:	
  5409  0CA4  3080               	movlw	080h
  5410  0CA5  06FA               	xorwf	(___ftneg@f1+2),f
  5411  0CA6  2CA7               	goto	l3885
  5412                           	
  5413  0CA7                     l1976:	
  5414                           	line	19
  5415                           	
  5416  0CA7                     l3885:	
  5417  0CA7  2CA8               	goto	l1977
  5418                           	
  5419  0CA8                     l3887:	
  5420                           	line	20
  5421                           	
  5422  0CA8                     l1977:	
  5423  0CA8  0008               	return
  5424                           	opt stack 0
  5425                           GLOBAL	__end_of___ftneg
  5426  0CA9                     	__end_of___ftneg:
  5427 ;; =============== function ___ftneg ends ============
  5428                           
  5429                           	signat	___ftneg,4219
  5430                           	global	___awdiv
  5431                           psect	text529,local,class=CODE,delta=2
  5432                           global __ptext529
  5433  0F87                     __ptext529:
  5434                           
  5435 ;; *************** function ___awdiv *****************
  5436 ;; Defined at:
  5437 ;;		line 5 in file "C:\Program Files (x86)\HI-TECH Software\PICC\9.80\sources\awdiv.c"
  5438 ;; Parameters:    Size  Location     Type
  5439 ;;  divisor         2    0[COMMON] int 
  5440 ;;  dividend        2    2[COMMON] int 
  5441 ;; Auto vars:     Size  Location     Type
  5442 ;;  quotient        2    7[COMMON] int 
  5443 ;;  sign            1    6[COMMON] unsigned char 
  5444 ;;  counter         1    5[COMMON] unsigned char 
  5445 ;; Return value:  Size  Location     Type
  5446 ;;                  2    0[COMMON] int 
  5447 ;; Registers used:
  5448 ;;		wreg, status,2, status,0
  5449 ;; Tracked objects:
  5450 ;;		On entry : 0/0
  5451 ;;		On exit  : 0/0
  5452 ;;		Unchanged: 0/0
  5453 ;; Data sizes:     COMMON   BANK0   BANK1   BANK3   BANK2
  5454 ;;      Params:         4       0       0       0       0
  5455 ;;      Locals:         4       0       0       0       0
  5456 ;;      Temps:          1       0       0       0       0
  5457 ;;      Totals:         9       0       0       0       0
  5458 ;;Total ram usage:        9 bytes
  5459 ;; Hardware stack levels used:    1
  5460 ;; This function calls:
  5461 ;;		Nothing
  5462 ;; This function is called by:
  5463 ;;		_LCDWriteFloat
  5464 ;;		_LCDWriteInteger
  5465 ;;		_LCDDisplayByte
  5466 ;; This function uses a non-reentrant model
  5467 ;;
  5468                           psect	text529
  5469                           	file	"C:\Program Files (x86)\HI-TECH Software\PICC\9.80\sources\awdiv.c"
  5470                           	line	5
  5471                           	global	__size_of___awdiv
  5472  0079                     	__size_of___awdiv	equ	__end_of___awdiv-___awdiv
  5473                           	
  5474  0F87                     ___awdiv:	
  5475                           	opt	stack 6
  5476                           ; Regs used in ___awdiv: [wreg+status,2+status,0]
  5477                           	line	9
  5478                           	
  5479  0F87                     l3843:	
  5480  0F87  1003               	clrc
  5481  0F88  3000               	movlw	0
  5482  0F89  1803               	btfsc	status,0
  5483  0F8A  3001               	movlw	1
  5484  0F8B  00F6               	movwf	(___awdiv@sign)
  5485                           	line	10
  5486                           	
  5487  0F8C                     l3845:	
  5488  0F8C  1FF1               	btfss	(___awdiv@divisor+1),7
  5489  0F8D  2F8F               	goto	u2721
  5490  0F8E  2F90               	goto	u2720
  5491  0F8F                     u2721:
  5492  0F8F  2F99               	goto	l3849
  5493  0F90                     u2720:
  5494                           	line	11
  5495                           	
  5496  0F90                     l3847:	
  5497  0F90  09F0               	comf	(___awdiv@divisor),f
  5498  0F91  09F1               	comf	(___awdiv@divisor+1),f
  5499  0F92  0AF0               	incf	(___awdiv@divisor),f
  5500  0F93  1903               	skipnz
  5501  0F94  0AF1               	incf	(___awdiv@divisor+1),f
  5502                           	line	12
  5503  0F95  01F6               	clrf	(___awdiv@sign)
  5504  0F96  1403               	bsf	status,0
  5505  0F97  0DF6               	rlf	(___awdiv@sign),f
  5506  0F98  2F99               	goto	l3849
  5507                           	line	13
  5508                           	
  5509  0F99                     l1953:	
  5510                           	line	14
  5511                           	
  5512  0F99                     l3849:	
  5513  0F99  1FF3               	btfss	(___awdiv@dividend+1),7
  5514  0F9A  2F9C               	goto	u2731
  5515  0F9B  2F9D               	goto	u2730
  5516  0F9C                     u2731:
  5517  0F9C  2FA6               	goto	l1954
  5518  0F9D                     u2730:
  5519                           	line	15
  5520                           	
  5521  0F9D                     l3851:	
  5522  0F9D  09F2               	comf	(___awdiv@dividend),f
  5523  0F9E  09F3               	comf	(___awdiv@dividend+1),f
  5524  0F9F  0AF2               	incf	(___awdiv@dividend),f
  5525  0FA0  1903               	skipnz
  5526  0FA1  0AF3               	incf	(___awdiv@dividend+1),f
  5527                           	line	16
  5528                           	
  5529  0FA2                     l3853:	
  5530  0FA2  3001               	movlw	(01h)
  5531  0FA3  00F4               	movwf	(??___awdiv+0)+0
  5532  0FA4  0874               	movf	(??___awdiv+0)+0,w
  5533  0FA5  06F6               	xorwf	(___awdiv@sign),f
  5534                           	line	17
  5535                           	
  5536  0FA6                     l1954:	
  5537                           	line	18
  5538  0FA6  3000               	movlw	low(0)
  5539  0FA7  00F7               	movwf	(___awdiv@quotient)
  5540  0FA8  3000               	movlw	high(0)
  5541  0FA9  00F8               	movwf	((___awdiv@quotient))+1
  5542                           	line	19
  5543  0FAA  0871               	movf	(___awdiv@divisor+1),w
  5544  0FAB  0470               	iorwf	(___awdiv@divisor),w
  5545  0FAC  1903               	skipnz
  5546  0FAD  2FAF               	goto	u2741
  5547  0FAE  2FB0               	goto	u2740
  5548  0FAF                     u2741:
  5549  0FAF  2FEE               	goto	l3873
  5550  0FB0                     u2740:
  5551                           	line	20
  5552                           	
  5553  0FB0                     l3855:	
  5554  0FB0  01F5               	clrf	(___awdiv@counter)
  5555  0FB1  1403               	bsf	status,0
  5556  0FB2  0DF5               	rlf	(___awdiv@counter),f
  5557                           	line	21
  5558  0FB3  2FC0               	goto	l3861
  5559                           	
  5560  0FB4                     l1957:	
  5561                           	line	22
  5562                           	
  5563  0FB4                     l3857:	
  5564  0FB4  3001               	movlw	01h
  5565                           	
  5566  0FB5                     u2755:
  5567  0FB5  1003               	clrc
  5568  0FB6  0DF0               	rlf	(___awdiv@divisor),f
  5569  0FB7  0DF1               	rlf	(___awdiv@divisor+1),f
  5570  0FB8  3EFF               	addlw	-1
  5571  0FB9  1D03               	skipz
  5572  0FBA  2FB5               	goto	u2755
  5573                           	line	23
  5574                           	
  5575  0FBB                     l3859:	
  5576  0FBB  3001               	movlw	(01h)
  5577  0FBC  00F4               	movwf	(??___awdiv+0)+0
  5578  0FBD  0874               	movf	(??___awdiv+0)+0,w
  5579  0FBE  07F5               	addwf	(___awdiv@counter),f
  5580  0FBF  2FC0               	goto	l3861
  5581                           	line	24
  5582                           	
  5583  0FC0                     l1956:	
  5584                           	line	21
  5585                           	
  5586  0FC0                     l3861:	
  5587  0FC0  1FF1               	btfss	(___awdiv@divisor+1),(15)&7
  5588  0FC1  2FC3               	goto	u2761
  5589  0FC2  2FC4               	goto	u2760
  5590  0FC3                     u2761:
  5591  0FC3  2FB4               	goto	l3857
  5592  0FC4                     u2760:
  5593  0FC4  2FC6               	goto	l3863
  5594                           	
  5595  0FC5                     l1958:	
  5596  0FC5  2FC6               	goto	l3863
  5597                           	line	25
  5598                           	
  5599  0FC6                     l1959:	
  5600                           	line	26
  5601                           	
  5602  0FC6                     l3863:	
  5603  0FC6  3001               	movlw	01h
  5604                           	
  5605  0FC7                     u2775:
  5606  0FC7  1003               	clrc
  5607  0FC8  0DF7               	rlf	(___awdiv@quotient),f
  5608  0FC9  0DF8               	rlf	(___awdiv@quotient+1),f
  5609  0FCA  3EFF               	addlw	-1
  5610  0FCB  1D03               	skipz
  5611  0FCC  2FC7               	goto	u2775
  5612                           	line	27
  5613  0FCD  0871               	movf	(___awdiv@divisor+1),w
  5614  0FCE  0273               	subwf	(___awdiv@dividend+1),w
  5615  0FCF  1D03               	skipz
  5616  0FD0  2FD3               	goto	u2785
  5617  0FD1  0870               	movf	(___awdiv@divisor),w
  5618  0FD2  0272               	subwf	(___awdiv@dividend),w
  5619  0FD3                     u2785:
  5620  0FD3  1C03               	skipc
  5621  0FD4  2FD6               	goto	u2781
  5622  0FD5  2FD7               	goto	u2780
  5623  0FD6                     u2781:
  5624  0FD6  2FDF               	goto	l3869
  5625  0FD7                     u2780:
  5626                           	line	28
  5627                           	
  5628  0FD7                     l3865:	
  5629  0FD7  0870               	movf	(___awdiv@divisor),w
  5630  0FD8  02F2               	subwf	(___awdiv@dividend),f
  5631  0FD9  0871               	movf	(___awdiv@divisor+1),w
  5632  0FDA  1C03               	skipc
  5633  0FDB  03F3               	decf	(___awdiv@dividend+1),f
  5634  0FDC  02F3               	subwf	(___awdiv@dividend+1),f
  5635                           	line	29
  5636                           	
  5637  0FDD                     l3867:	
  5638  0FDD  1477               	bsf	(___awdiv@quotient)+(0/8),(0)&7
  5639  0FDE  2FDF               	goto	l3869
  5640                           	line	30
  5641                           	
  5642  0FDF                     l1960:	
  5643                           	line	31
  5644                           	
  5645  0FDF                     l3869:	
  5646  0FDF  3001               	movlw	01h
  5647                           	
  5648  0FE0                     u2795:
  5649  0FE0  1003               	clrc
  5650  0FE1  0CF1               	rrf	(___awdiv@divisor+1),f
  5651  0FE2  0CF0               	rrf	(___awdiv@divisor),f
  5652  0FE3  3EFF               	addlw	-1
  5653  0FE4  1D03               	skipz
  5654  0FE5  2FE0               	goto	u2795
  5655                           	line	32
  5656                           	
  5657  0FE6                     l3871:	
  5658  0FE6  3001               	movlw	low(01h)
  5659  0FE7  02F5               	subwf	(___awdiv@counter),f
  5660  0FE8  1D03               	btfss	status,2
  5661  0FE9  2FEB               	goto	u2801
  5662  0FEA  2FEC               	goto	u2800
  5663  0FEB                     u2801:
  5664  0FEB  2FC6               	goto	l3863
  5665  0FEC                     u2800:
  5666  0FEC  2FEE               	goto	l3873
  5667                           	
  5668  0FED                     l1961:	
  5669  0FED  2FEE               	goto	l3873
  5670                           	line	33
  5671                           	
  5672  0FEE                     l1955:	
  5673                           	line	34
  5674                           	
  5675  0FEE                     l3873:	
  5676  0FEE  0876               	movf	(___awdiv@sign),w
  5677  0FEF  1D03               	skipz
  5678  0FF0  2FF2               	goto	u2810
  5679  0FF1  2FF8               	goto	l3877
  5680  0FF2                     u2810:
  5681                           	line	35
  5682                           	
  5683  0FF2                     l3875:	
  5684  0FF2  09F7               	comf	(___awdiv@quotient),f
  5685  0FF3  09F8               	comf	(___awdiv@quotient+1),f
  5686  0FF4  0AF7               	incf	(___awdiv@quotient),f
  5687  0FF5  1903               	skipnz
  5688  0FF6  0AF8               	incf	(___awdiv@quotient+1),f
  5689  0FF7  2FF8               	goto	l3877
  5690                           	
  5691  0FF8                     l1962:	
  5692                           	line	36
  5693                           	
  5694  0FF8                     l3877:	
  5695  0FF8  0878               	movf	(___awdiv@quotient+1),w
  5696  0FF9  01F1               	clrf	(?___awdiv+1)
  5697  0FFA  07F1               	addwf	(?___awdiv+1)
  5698  0FFB  0877               	movf	(___awdiv@quotient),w
  5699  0FFC  01F0               	clrf	(?___awdiv)
  5700  0FFD  07F0               	addwf	(?___awdiv)
  5701                           
  5702  0FFE  2FFF               	goto	l1963
  5703                           	
  5704  0FFF                     l3879:	
  5705                           	line	37
  5706                           	
  5707  0FFF                     l1963:	
  5708  0FFF  0008               	return
  5709                           	opt stack 0
  5710                           GLOBAL	__end_of___awdiv
  5711  1000                     	__end_of___awdiv:
  5712 ;; =============== function ___awdiv ends ============
  5713                           
  5714                           	signat	___awdiv,8314
  5715                           	global	___fttol
  5716                           psect	text530,local,class=CODE,delta=2
  5717                           global __ptext530
  5718  014E                     __ptext530:
  5719                           
  5720 ;; *************** function ___fttol *****************
  5721 ;; Defined at:
  5722 ;;		line 45 in file "C:\Program Files (x86)\HI-TECH Software\PICC\9.80\sources\fttol.c"
  5723 ;; Parameters:    Size  Location     Type
  5724 ;;  f1              3    0[COMMON] float 
  5725 ;; Auto vars:     Size  Location     Type
  5726 ;;  lval            4    9[COMMON] unsigned long 
  5727 ;;  exp1            1   13[COMMON] unsigned char 
  5728 ;;  sign1           1    8[COMMON] unsigned char 
  5729 ;; Return value:  Size  Location     Type
  5730 ;;                  4    0[COMMON] long 
  5731 ;; Registers used:
  5732 ;;		wreg, status,2, status,0
  5733 ;; Tracked objects:
  5734 ;;		On entry : 0/0
  5735 ;;		On exit  : 0/0
  5736 ;;		Unchanged: 0/0
  5737 ;; Data sizes:     COMMON   BANK0   BANK1   BANK3   BANK2
  5738 ;;      Params:         4       0       0       0       0
  5739 ;;      Locals:         6       0       0       0       0
  5740 ;;      Temps:          4       0       0       0       0
  5741 ;;      Totals:        14       0       0       0       0
  5742 ;;Total ram usage:       14 bytes
  5743 ;; Hardware stack levels used:    1
  5744 ;; This function calls:
  5745 ;;		Nothing
  5746 ;; This function is called by:
  5747 ;;		_LCDWriteFloat
  5748 ;; This function uses a non-reentrant model
  5749 ;;
  5750                           psect	text530
  5751                           	file	"C:\Program Files (x86)\HI-TECH Software\PICC\9.80\sources\fttol.c"
  5752                           	line	45
  5753                           	global	__size_of___fttol
  5754  00A4                     	__size_of___fttol	equ	__end_of___fttol-___fttol
  5755                           	
  5756  014E                     ___fttol:	
  5757                           	opt	stack 6
  5758                           ; Regs used in ___fttol: [wreg+status,2+status,0]
  5759                           	line	49
  5760                           	
  5761  014E                     l3785:	
  5762  014E  0870               	movf	(___fttol@f1),w
  5763  014F  00F4               	movwf	((??___fttol+0)+0)
  5764  0150  0871               	movf	(___fttol@f1+1),w
  5765  0151  00F5               	movwf	((??___fttol+0)+0+1)
  5766  0152  0872               	movf	(___fttol@f1+2),w
  5767  0153  00F6               	movwf	((??___fttol+0)+0+2)
  5768  0154  1003               	clrc
  5769  0155  0D75               	rlf	(??___fttol+0)+1,w
  5770  0156  0D76               	rlf	(??___fttol+0)+2,w
  5771  0157  00F7               	movwf	(??___fttol+3)+0
  5772  0158  0877               	movf	(??___fttol+3)+0,w
  5773  0159  00FD               	movwf	(___fttol@exp1)
  5774  015A  08FD               	movf	((___fttol@exp1)),f
  5775  015B  1D03               	skipz
  5776  015C  295E               	goto	u2611
  5777  015D  295F               	goto	u2610
  5778  015E                     u2611:
  5779  015E  2969               	goto	l3791
  5780  015F                     u2610:
  5781                           	line	50
  5782                           	
  5783  015F                     l3787:	
  5784  015F  3000               	movlw	0
  5785  0160  00F3               	movwf	(?___fttol+3)
  5786  0161  3000               	movlw	0
  5787  0162  00F2               	movwf	(?___fttol+2)
  5788  0163  3000               	movlw	0
  5789  0164  00F1               	movwf	(?___fttol+1)
  5790  0165  3000               	movlw	0
  5791  0166  00F0               	movwf	(?___fttol)
  5792                           
  5793  0167  29F1               	goto	l1923
  5794                           	
  5795  0168                     l3789:	
  5796  0168  29F1               	goto	l1923
  5797                           	
  5798  0169                     l1922:	
  5799                           	line	51
  5800                           	
  5801  0169                     l3791:	
  5802  0169  0870               	movf	(___fttol@f1),w
  5803  016A  00F4               	movwf	((??___fttol+0)+0)
  5804  016B  0871               	movf	(___fttol@f1+1),w
  5805  016C  00F5               	movwf	((??___fttol+0)+0+1)
  5806  016D  0872               	movf	(___fttol@f1+2),w
  5807  016E  00F6               	movwf	((??___fttol+0)+0+2)
  5808  016F  3017               	movlw	017h
  5809  0170                     u2625:
  5810  0170  1003               	clrc
  5811  0171  0CF6               	rrf	(??___fttol+0)+2,f
  5812  0172  0CF5               	rrf	(??___fttol+0)+1,f
  5813  0173  0CF4               	rrf	(??___fttol+0)+0,f
  5814  0174                     u2620:
  5815  0174  3EFF               	addlw	-1
  5816  0175  1D03               	skipz
  5817  0176  2970               	goto	u2625
  5818  0177  0874               	movf	0+(??___fttol+0)+0,w
  5819  0178  00F7               	movwf	(??___fttol+3)+0
  5820  0179  0877               	movf	(??___fttol+3)+0,w
  5821  017A  00F8               	movwf	(___fttol@sign1)
  5822                           	line	52
  5823                           	
  5824  017B                     l3793:	
  5825  017B  17F1               	bsf	(___fttol@f1)+(15/8),(15)&7
  5826                           	line	53
  5827                           	
  5828  017C                     l3795:	
  5829  017C  30FF               	movlw	0FFh
  5830  017D  05F0               	andwf	(___fttol@f1),f
  5831  017E  30FF               	movlw	0FFh
  5832  017F  05F1               	andwf	(___fttol@f1+1),f
  5833  0180  3000               	movlw	0
  5834  0181  05F2               	andwf	(___fttol@f1+2),f
  5835                           	line	54
  5836                           	
  5837  0182                     l3797:	
  5838  0182  0870               	movf	(___fttol@f1),w
  5839  0183  00F9               	movwf	(___fttol@lval)
  5840  0184  0871               	movf	(___fttol@f1+1),w
  5841  0185  00FA               	movwf	((___fttol@lval))+1
  5842  0186  0872               	movf	(___fttol@f1+2),w
  5843  0187  00FB               	movwf	((___fttol@lval))+2
  5844  0188  01FC               	clrf	((___fttol@lval))+3
  5845                           	line	55
  5846                           	
  5847  0189                     l3799:	
  5848  0189  308E               	movlw	low(08Eh)
  5849  018A  02FD               	subwf	(___fttol@exp1),f
  5850                           	line	56
  5851                           	
  5852  018B                     l3801:	
  5853  018B  1FFD               	btfss	(___fttol@exp1),7
  5854  018C  298E               	goto	u2631
  5855  018D  298F               	goto	u2630
  5856  018E                     u2631:
  5857  018E  29B4               	goto	l3811
  5858  018F                     u2630:
  5859                           	line	57
  5860                           	
  5861  018F                     l3803:	
  5862  018F  087D               	movf	(___fttol@exp1),w
  5863  0190  3A80               	xorlw	80h
  5864  0191  3E8F               	addlw	-((-15)^80h)
  5865  0192  1803               	skipnc
  5866  0193  2995               	goto	u2641
  5867  0194  2996               	goto	u2640
  5868  0195                     u2641:
  5869  0195  29A1               	goto	l3809
  5870  0196                     u2640:
  5871                           	line	58
  5872                           	
  5873  0196                     l3805:	
  5874  0196  3000               	movlw	0
  5875  0197  00F3               	movwf	(?___fttol+3)
  5876  0198  3000               	movlw	0
  5877  0199  00F2               	movwf	(?___fttol+2)
  5878  019A  3000               	movlw	0
  5879  019B  00F1               	movwf	(?___fttol+1)
  5880  019C  3000               	movlw	0
  5881  019D  00F0               	movwf	(?___fttol)
  5882                           
  5883  019E  29F1               	goto	l1923
  5884                           	
  5885  019F                     l3807:	
  5886  019F  29F1               	goto	l1923
  5887                           	
  5888  01A0                     l1925:	
  5889  01A0  29A1               	goto	l3809
  5890                           	line	59
  5891                           	
  5892  01A1                     l1926:	
  5893                           	line	60
  5894                           	
  5895  01A1                     l3809:	
  5896  01A1  3001               	movlw	01h
  5897  01A2                     u2655:
  5898  01A2  1003               	clrc
  5899  01A3  0CFC               	rrf	(___fttol@lval+3),f
  5900  01A4  0CFB               	rrf	(___fttol@lval+2),f
  5901  01A5  0CFA               	rrf	(___fttol@lval+1),f
  5902  01A6  0CF9               	rrf	(___fttol@lval),f
  5903  01A7  3EFF               	addlw	-1
  5904  01A8  1D03               	skipz
  5905  01A9  29A2               	goto	u2655
  5906                           
  5907                           	line	61
  5908  01AA  3001               	movlw	(01h)
  5909  01AB  00F4               	movwf	(??___fttol+0)+0
  5910  01AC  0874               	movf	(??___fttol+0)+0,w
  5911  01AD  07FD               	addwf	(___fttol@exp1),f
  5912  01AE  1D03               	btfss	status,2
  5913  01AF  29B1               	goto	u2661
  5914  01B0  29B2               	goto	u2660
  5915  01B1                     u2661:
  5916  01B1  29A1               	goto	l3809
  5917  01B2                     u2660:
  5918  01B2  29D8               	goto	l3821
  5919                           	
  5920  01B3                     l1927:	
  5921                           	line	62
  5922  01B3  29D8               	goto	l3821
  5923                           	
  5924  01B4                     l1924:	
  5925                           	line	63
  5926                           	
  5927  01B4                     l3811:	
  5928  01B4  3018               	movlw	(018h)
  5929  01B5  027D               	subwf	(___fttol@exp1),w
  5930  01B6  1C03               	skipc
  5931  01B7  29B9               	goto	u2671
  5932  01B8  29BA               	goto	u2670
  5933  01B9                     u2671:
  5934  01B9  29D1               	goto	l3819
  5935  01BA                     u2670:
  5936                           	line	64
  5937                           	
  5938  01BA                     l3813:	
  5939  01BA  3000               	movlw	0
  5940  01BB  00F3               	movwf	(?___fttol+3)
  5941  01BC  3000               	movlw	0
  5942  01BD  00F2               	movwf	(?___fttol+2)
  5943  01BE  3000               	movlw	0
  5944  01BF  00F1               	movwf	(?___fttol+1)
  5945  01C0  3000               	movlw	0
  5946  01C1  00F0               	movwf	(?___fttol)
  5947                           
  5948  01C2  29F1               	goto	l1923
  5949                           	
  5950  01C3                     l3815:	
  5951  01C3  29F1               	goto	l1923
  5952                           	
  5953  01C4                     l1929:	
  5954                           	line	65
  5955  01C4  29D1               	goto	l3819
  5956                           	
  5957  01C5                     l1931:	
  5958                           	line	66
  5959                           	
  5960  01C5                     l3817:	
  5961  01C5  3001               	movlw	01h
  5962  01C6  00F4               	movwf	(??___fttol+0)+0
  5963  01C7                     u2685:
  5964  01C7  1003               	clrc
  5965  01C8  0DF9               	rlf	(___fttol@lval),f
  5966  01C9  0DFA               	rlf	(___fttol@lval+1),f
  5967  01CA  0DFB               	rlf	(___fttol@lval+2),f
  5968  01CB  0DFC               	rlf	(___fttol@lval+3),f
  5969  01CC  0BF4               	decfsz	(??___fttol+0)+0
  5970  01CD  29C7               	goto	u2685
  5971                           	line	67
  5972  01CE  3001               	movlw	low(01h)
  5973  01CF  02FD               	subwf	(___fttol@exp1),f
  5974  01D0  29D1               	goto	l3819
  5975                           	line	68
  5976                           	
  5977  01D1                     l1930:	
  5978                           	line	65
  5979                           	
  5980  01D1                     l3819:	
  5981  01D1  08FD               	movf	(___fttol@exp1),f
  5982  01D2  1D03               	skipz
  5983  01D3  29D5               	goto	u2691
  5984  01D4  29D6               	goto	u2690
  5985  01D5                     u2691:
  5986  01D5  29C5               	goto	l3817
  5987  01D6                     u2690:
  5988  01D6  29D8               	goto	l3821
  5989                           	
  5990  01D7                     l1932:	
  5991  01D7  29D8               	goto	l3821
  5992                           	line	69
  5993                           	
  5994  01D8                     l1928:	
  5995                           	line	70
  5996                           	
  5997  01D8                     l3821:	
  5998  01D8  0878               	movf	(___fttol@sign1),w
  5999  01D9  1D03               	skipz
  6000  01DA  29DC               	goto	u2700
  6001  01DB  29E8               	goto	l3825
  6002  01DC                     u2700:
  6003                           	line	71
  6004                           	
  6005  01DC                     l3823:	
  6006  01DC  09F9               	comf	(___fttol@lval),f
  6007  01DD  09FA               	comf	(___fttol@lval+1),f
  6008  01DE  09FB               	comf	(___fttol@lval+2),f
  6009  01DF  09FC               	comf	(___fttol@lval+3),f
  6010  01E0  0AF9               	incf	(___fttol@lval),f
  6011  01E1  1903               	skipnz
  6012  01E2  0AFA               	incf	(___fttol@lval+1),f
  6013  01E3  1903               	skipnz
  6014  01E4  0AFB               	incf	(___fttol@lval+2),f
  6015  01E5  1903               	skipnz
  6016  01E6  0AFC               	incf	(___fttol@lval+3),f
  6017  01E7  29E8               	goto	l3825
  6018                           	
  6019  01E8                     l1933:	
  6020                           	line	72
  6021                           	
  6022  01E8                     l3825:	
  6023  01E8  087C               	movf	(___fttol@lval+3),w
  6024  01E9  00F3               	movwf	(?___fttol+3)
  6025  01EA  087B               	movf	(___fttol@lval+2),w
  6026  01EB  00F2               	movwf	(?___fttol+2)
  6027  01EC  087A               	movf	(___fttol@lval+1),w
  6028  01ED  00F1               	movwf	(?___fttol+1)
  6029  01EE  0879               	movf	(___fttol@lval),w
  6030  01EF  00F0               	movwf	(?___fttol)
  6031                           
  6032  01F0  29F1               	goto	l1923
  6033                           	
  6034  01F1                     l3827:	
  6035                           	line	73
  6036                           	
  6037  01F1                     l1923:	
  6038  01F1  0008               	return
  6039                           	opt stack 0
  6040                           GLOBAL	__end_of___fttol
  6041  01F2                     	__end_of___fttol:
  6042 ;; =============== function ___fttol ends ============
  6043                           
  6044                           	signat	___fttol,4220
  6045                           	global	___ftpack
  6046                           psect	text531,local,class=CODE,delta=2
  6047                           global __ptext531
  6048  0052                     __ptext531:
  6049                           
  6050 ;; *************** function ___ftpack *****************
  6051 ;; Defined at:
  6052 ;;		line 63 in file "C:\Program Files (x86)\HI-TECH Software\PICC\9.80\sources\float.c"
  6053 ;; Parameters:    Size  Location     Type
  6054 ;;  arg             3    0[COMMON] unsigned um
  6055 ;;  exp             1    3[COMMON] unsigned char 
  6056 ;;  sign            1    4[COMMON] unsigned char 
  6057 ;; Auto vars:     Size  Location     Type
  6058 ;;		None
  6059 ;; Return value:  Size  Location     Type
  6060 ;;                  3    0[COMMON] float 
  6061 ;; Registers used:
  6062 ;;		wreg, status,2, status,0
  6063 ;; Tracked objects:
  6064 ;;		On entry : 0/0
  6065 ;;		On exit  : 0/0
  6066 ;;		Unchanged: 0/0
  6067 ;; Data sizes:     COMMON   BANK0   BANK1   BANK3   BANK2
  6068 ;;      Params:         5       0       0       0       0
  6069 ;;      Locals:         0       0       0       0       0
  6070 ;;      Temps:          3       0       0       0       0
  6071 ;;      Totals:         8       0       0       0       0
  6072 ;;Total ram usage:        8 bytes
  6073 ;; Hardware stack levels used:    1
  6074 ;; This function calls:
  6075 ;;		Nothing
  6076 ;; This function is called by:
  6077 ;;		___ftadd
  6078 ;;		___ftdiv
  6079 ;;		___ftmul
  6080 ;;		___awtoft
  6081 ;;		___lwtoft
  6082 ;;		___lbtoft
  6083 ;;		___abtoft
  6084 ;;		___altoft
  6085 ;;		___lltoft
  6086 ;;		___attoft
  6087 ;;		___lttoft
  6088 ;; This function uses a non-reentrant model
  6089 ;;
  6090                           psect	text531
  6091                           	file	"C:\Program Files (x86)\HI-TECH Software\PICC\9.80\sources\float.c"
  6092                           	line	63
  6093                           	global	__size_of___ftpack
  6094  007B                     	__size_of___ftpack	equ	__end_of___ftpack-___ftpack
  6095                           	
  6096  0052                     ___ftpack:	
  6097                           	opt	stack 5
  6098                           ; Regs used in ___ftpack: [wreg+status,2+status,0]
  6099                           	line	64
  6100                           	
  6101  0052                     l3749:	
  6102  0052  0873               	movf	(___ftpack@exp),w
  6103  0053  1D03               	skipz
  6104  0054  2856               	goto	u2500
  6105  0055  285E               	goto	l3753
  6106  0056                     u2500:
  6107                           	
  6108  0056                     l3751:	
  6109  0056  0872               	movf	(___ftpack@arg+2),w
  6110  0057  0471               	iorwf	(___ftpack@arg+1),w
  6111  0058  0470               	iorwf	(___ftpack@arg),w
  6112  0059  1D03               	skipz
  6113  005A  285C               	goto	u2511
  6114  005B  285D               	goto	u2510
  6115  005C                     u2511:
  6116  005C  2874               	goto	l3759
  6117  005D                     u2510:
  6118  005D  285E               	goto	l3753
  6119                           	
  6120  005E                     l2147:	
  6121                           	line	65
  6122                           	
  6123  005E                     l3753:	
  6124  005E  3000               	movlw	0x0
  6125  005F  00F0               	movwf	(?___ftpack)
  6126  0060  3000               	movlw	0x0
  6127  0061  00F1               	movwf	(?___ftpack+1)
  6128  0062  3000               	movlw	0x0
  6129  0063  00F2               	movwf	(?___ftpack+2)
  6130  0064  28CC               	goto	l2148
  6131                           	
  6132  0065                     l3755:	
  6133  0065  28CC               	goto	l2148
  6134                           	
  6135  0066                     l2145:	
  6136                           	line	66
  6137  0066  2874               	goto	l3759
  6138                           	
  6139  0067                     l2150:	
  6140                           	line	67
  6141                           	
  6142  0067                     l3757:	
  6143  0067  3001               	movlw	(01h)
  6144  0068  00F5               	movwf	(??___ftpack+0)+0
  6145  0069  0875               	movf	(??___ftpack+0)+0,w
  6146  006A  07F3               	addwf	(___ftpack@exp),f
  6147                           	line	68
  6148  006B  3001               	movlw	01h
  6149  006C                     u2525:
  6150  006C  1003               	clrc
  6151  006D  0CF2               	rrf	(___ftpack@arg+2),f
  6152  006E  0CF1               	rrf	(___ftpack@arg+1),f
  6153  006F  0CF0               	rrf	(___ftpack@arg),f
  6154  0070  3EFF               	addlw	-1
  6155  0071  1D03               	skipz
  6156  0072  286C               	goto	u2525
  6157                           
  6158  0073  2874               	goto	l3759
  6159                           	line	69
  6160                           	
  6161  0074                     l2149:	
  6162                           	line	66
  6163                           	
  6164  0074                     l3759:	
  6165  0074  30FE               	movlw	low highword(0FE0000h)
  6166  0075  0572               	andwf	(___ftpack@arg+2),w
  6167  0076  1D03               	btfss	status,2
  6168  0077  2879               	goto	u2531
  6169  0078  287A               	goto	u2530
  6170  0079                     u2531:
  6171  0079  2867               	goto	l3757
  6172  007A                     u2530:
  6173  007A  2892               	goto	l2152
  6174                           	
  6175  007B                     l2151:	
  6176                           	line	70
  6177  007B  2892               	goto	l2152
  6178                           	
  6179  007C                     l2153:	
  6180                           	line	71
  6181                           	
  6182  007C                     l3761:	
  6183  007C  3001               	movlw	(01h)
  6184  007D  00F5               	movwf	(??___ftpack+0)+0
  6185  007E  0875               	movf	(??___ftpack+0)+0,w
  6186  007F  07F3               	addwf	(___ftpack@exp),f
  6187                           	line	72
  6188                           	
  6189  0080                     l3763:	
  6190  0080  3001               	movlw	01h
  6191  0081  07F0               	addwf	(___ftpack@arg),f
  6192  0082  3000               	movlw	0
  6193  0083  1803               	skipnc
  6194  0084  3001               movlw 1
  6195  0085  07F1               	addwf	(___ftpack@arg+1),f
  6196  0086  3000               	movlw	0
  6197  0087  1803               	skipnc
  6198  0088  3001               movlw 1
  6199  0089  07F2               	addwf	(___ftpack@arg+2),f
  6200                           	line	73
  6201                           	
  6202  008A                     l3765:	
  6203  008A  3001               	movlw	01h
  6204  008B                     u2545:
  6205  008B  1003               	clrc
  6206  008C  0CF2               	rrf	(___ftpack@arg+2),f
  6207  008D  0CF1               	rrf	(___ftpack@arg+1),f
  6208  008E  0CF0               	rrf	(___ftpack@arg),f
  6209  008F  3EFF               	addlw	-1
  6210  0090  1D03               	skipz
  6211  0091  288B               	goto	u2545
  6212                           
  6213                           	line	74
  6214                           	
  6215  0092                     l2152:	
  6216                           	line	70
  6217  0092  30FF               	movlw	low highword(0FF0000h)
  6218  0093  0572               	andwf	(___ftpack@arg+2),w
  6219  0094  1D03               	btfss	status,2
  6220  0095  2897               	goto	u2551
  6221  0096  2898               	goto	u2550
  6222  0097                     u2551:
  6223  0097  287C               	goto	l3761
  6224  0098                     u2550:
  6225  0098  28A5               	goto	l3769
  6226                           	
  6227  0099                     l2154:	
  6228                           	line	75
  6229  0099  28A5               	goto	l3769
  6230                           	
  6231  009A                     l2156:	
  6232                           	line	76
  6233                           	
  6234  009A                     l3767:	
  6235  009A  3001               	movlw	low(01h)
  6236  009B  02F3               	subwf	(___ftpack@exp),f
  6237                           	line	77
  6238  009C  3001               	movlw	01h
  6239  009D                     u2565:
  6240  009D  1003               	clrc
  6241  009E  0DF0               	rlf	(___ftpack@arg),f
  6242  009F  0DF1               	rlf	(___ftpack@arg+1),f
  6243  00A0  0DF2               	rlf	(___ftpack@arg+2),f
  6244  00A1  3EFF               	addlw	-1
  6245  00A2  1D03               	skipz
  6246  00A3  289D               	goto	u2565
  6247  00A4  28A5               	goto	l3769
  6248                           	line	78
  6249                           	
  6250  00A5                     l2155:	
  6251                           	line	75
  6252                           	
  6253  00A5                     l3769:	
  6254  00A5  1FF1               	btfss	(___ftpack@arg+1),(15)&7
  6255  00A6  28A8               	goto	u2571
  6256  00A7  28A9               	goto	u2570
  6257  00A8                     u2571:
  6258  00A8  289A               	goto	l3767
  6259  00A9                     u2570:
  6260                           	
  6261  00A9                     l2157:	
  6262                           	line	79
  6263  00A9  1873               	btfsc	(___ftpack@exp),(0)&7
  6264  00AA  28AC               	goto	u2581
  6265  00AB  28AD               	goto	u2580
  6266  00AC                     u2581:
  6267  00AC  28B3               	goto	l2158
  6268  00AD                     u2580:
  6269                           	line	80
  6270                           	
  6271  00AD                     l3771:	
  6272  00AD  30FF               	movlw	0FFh
  6273  00AE  05F0               	andwf	(___ftpack@arg),f
  6274  00AF  307F               	movlw	07Fh
  6275  00B0  05F1               	andwf	(___ftpack@arg+1),f
  6276  00B1  30FF               	movlw	0FFh
  6277  00B2  05F2               	andwf	(___ftpack@arg+2),f
  6278                           	
  6279  00B3                     l2158:	
  6280                           	line	81
  6281  00B3  1003               	clrc
  6282  00B4  0CF3               	rrf	(___ftpack@exp),f
  6283                           
  6284                           	line	82
  6285                           	
  6286  00B5                     l3773:	
  6287  00B5  0873               	movf	(___ftpack@exp),w
  6288  00B6  00F5               	movwf	((??___ftpack+0)+0)
  6289  00B7  01F6               	clrf	((??___ftpack+0)+0+1)
  6290  00B8  01F7               	clrf	((??___ftpack+0)+0+2)
  6291  00B9  3010               	movlw	010h
  6292  00BA                     u2595:
  6293  00BA  1003               	clrc
  6294  00BB  0DF5               	rlf	(??___ftpack+0)+0,f
  6295  00BC  0DF6               	rlf	(??___ftpack+0)+1,f
  6296  00BD  0DF7               	rlf	(??___ftpack+0)+2,f
  6297  00BE                     u2590:
  6298  00BE  3EFF               	addlw	-1
  6299  00BF  1D03               	skipz
  6300  00C0  28BA               	goto	u2595
  6301  00C1  0875               	movf	0+(??___ftpack+0)+0,w
  6302  00C2  04F0               	iorwf	(___ftpack@arg),f
  6303  00C3  0876               	movf	1+(??___ftpack+0)+0,w
  6304  00C4  04F1               	iorwf	(___ftpack@arg+1),f
  6305  00C5  0877               	movf	2+(??___ftpack+0)+0,w
  6306  00C6  04F2               	iorwf	(___ftpack@arg+2),f
  6307                           	line	83
  6308                           	
  6309  00C7                     l3775:	
  6310  00C7  0874               	movf	(___ftpack@sign),w
  6311  00C8  1D03               	skipz
  6312  00C9  28CB               	goto	u2600
  6313  00CA  28CC               	goto	l2159
  6314  00CB                     u2600:
  6315                           	line	84
  6316                           	
  6317  00CB                     l3777:	
  6318  00CB  17F2               	bsf	(___ftpack@arg)+(23/8),(23)&7
  6319                           	
  6320  00CC                     l2159:	
  6321                           	line	85
  6322                           	line	86
  6323                           	
  6324  00CC                     l2148:	
  6325  00CC  0008               	return
  6326                           	opt stack 0
  6327                           GLOBAL	__end_of___ftpack
  6328  00CD                     	__end_of___ftpack:
  6329 ;; =============== function ___ftpack ends ============
  6330                           
  6331                           	signat	___ftpack,12411
  6332                           	global	___wmul
  6333                           psect	text532,local,class=CODE,delta=2
  6334                           global __ptext532
  6335  0DA7                     __ptext532:
  6336                           
  6337 ;; *************** function ___wmul *****************
  6338 ;; Defined at:
  6339 ;;		line 3 in file "C:\Program Files (x86)\HI-TECH Software\PICC\9.80\sources\wmul.c"
  6340 ;; Parameters:    Size  Location     Type
  6341 ;;  multiplier      2    0[COMMON] unsigned int 
  6342 ;;  multiplicand    2    2[COMMON] unsigned int 
  6343 ;; Auto vars:     Size  Location     Type
  6344 ;;  product         2    4[COMMON] unsigned int 
  6345 ;; Return value:  Size  Location     Type
  6346 ;;                  2    0[COMMON] unsigned int 
  6347 ;; Registers used:
  6348 ;;		wreg, status,2, status,0
  6349 ;; Tracked objects:
  6350 ;;		On entry : 0/0
  6351 ;;		On exit  : 0/0
  6352 ;;		Unchanged: 0/0
  6353 ;; Data sizes:     COMMON   BANK0   BANK1   BANK3   BANK2
  6354 ;;      Params:         4       0       0       0       0
  6355 ;;      Locals:         2       0       0       0       0
  6356 ;;      Temps:          0       0       0       0       0
  6357 ;;      Totals:         6       0       0       0       0
  6358 ;;Total ram usage:        6 bytes
  6359 ;; Hardware stack levels used:    1
  6360 ;; This function calls:
  6361 ;;		Nothing
  6362 ;; This function is called by:
  6363 ;;		_ADCReadData
  6364 ;; This function uses a non-reentrant model
  6365 ;;
  6366                           psect	text532
  6367                           	file	"C:\Program Files (x86)\HI-TECH Software\PICC\9.80\sources\wmul.c"
  6368                           	line	3
  6369                           	global	__size_of___wmul
  6370  002C                     	__size_of___wmul	equ	__end_of___wmul-___wmul
  6371                           	
  6372  0DA7                     ___wmul:	
  6373                           	opt	stack 6
  6374                           ; Regs used in ___wmul: [wreg+status,2+status,0]
  6375                           	line	4
  6376                           	
  6377  0DA7                     l3737:	
  6378  0DA7  3000               	movlw	low(0)
  6379  0DA8  00F4               	movwf	(___wmul@product)
  6380  0DA9  3000               	movlw	high(0)
  6381  0DAA  00F5               	movwf	((___wmul@product))+1
  6382  0DAB  2DAC               	goto	l3739
  6383                           	line	6
  6384                           	
  6385  0DAC                     l1813:	
  6386                           	line	7
  6387                           	
  6388  0DAC                     l3739:	
  6389  0DAC  1C70               	btfss	(___wmul@multiplier),(0)&7
  6390  0DAD  2DAF               	goto	u2461
  6391  0DAE  2DB0               	goto	u2460
  6392  0DAF                     u2461:
  6393  0DAF  2DB6               	goto	l1814
  6394  0DB0                     u2460:
  6395                           	line	8
  6396                           	
  6397  0DB0                     l3741:	
  6398  0DB0  0872               	movf	(___wmul@multiplicand),w
  6399  0DB1  07F4               	addwf	(___wmul@product),f
  6400  0DB2  1803               	skipnc
  6401  0DB3  0AF5               	incf	(___wmul@product+1),f
  6402  0DB4  0873               	movf	(___wmul@multiplicand+1),w
  6403  0DB5  07F5               	addwf	(___wmul@product+1),f
  6404                           	
  6405  0DB6                     l1814:	
  6406                           	line	9
  6407  0DB6  3001               	movlw	01h
  6408                           	
  6409  0DB7                     u2475:
  6410  0DB7  1003               	clrc
  6411  0DB8  0DF2               	rlf	(___wmul@multiplicand),f
  6412  0DB9  0DF3               	rlf	(___wmul@multiplicand+1),f
  6413  0DBA  3EFF               	addlw	-1
  6414  0DBB  1D03               	skipz
  6415  0DBC  2DB7               	goto	u2475
  6416                           	line	10
  6417                           	
  6418  0DBD                     l3743:	
  6419  0DBD  3001               	movlw	01h
  6420                           	
  6421  0DBE                     u2485:
  6422  0DBE  1003               	clrc
  6423  0DBF  0CF1               	rrf	(___wmul@multiplier+1),f
  6424  0DC0  0CF0               	rrf	(___wmul@multiplier),f
  6425  0DC1  3EFF               	addlw	-1
  6426  0DC2  1D03               	skipz
  6427  0DC3  2DBE               	goto	u2485
  6428                           	line	11
  6429  0DC4  0871               	movf	((___wmul@multiplier+1)),w
  6430  0DC5  0470               	iorwf	((___wmul@multiplier)),w
  6431  0DC6  1D03               	skipz
  6432  0DC7  2DC9               	goto	u2491
  6433  0DC8  2DCA               	goto	u2490
  6434  0DC9                     u2491:
  6435  0DC9  2DAC               	goto	l3739
  6436  0DCA                     u2490:
  6437  0DCA  2DCB               	goto	l3745
  6438                           	
  6439  0DCB                     l1815:	
  6440                           	line	12
  6441                           	
  6442  0DCB                     l3745:	
  6443  0DCB  0875               	movf	(___wmul@product+1),w
  6444  0DCC  01F1               	clrf	(?___wmul+1)
  6445  0DCD  07F1               	addwf	(?___wmul+1)
  6446  0DCE  0874               	movf	(___wmul@product),w
  6447  0DCF  01F0               	clrf	(?___wmul)
  6448  0DD0  07F0               	addwf	(?___wmul)
  6449                           
  6450  0DD1  2DD2               	goto	l1816
  6451                           	
  6452  0DD2                     l3747:	
  6453                           	line	13
  6454                           	
  6455  0DD2                     l1816:	
  6456  0DD2  0008               	return
  6457                           	opt stack 0
  6458                           GLOBAL	__end_of___wmul
  6459  0DD3                     	__end_of___wmul:
  6460 ;; =============== function ___wmul ends ============
  6461                           
  6462                           	signat	___wmul,8314
  6463                           	global	_ADCInitialize
  6464                           psect	text533,local,class=CODE,delta=2
  6465                           global __ptext533
  6466  0CD9                     __ptext533:
  6467                           
  6468 ;; *************** function _ADCInitialize *****************
  6469 ;; Defined at:
  6470 ;;		line 4 in file "C:\Users\X4ROY\Desktop\URE\LCD Interfacing\adc.c"
  6471 ;; Parameters:    Size  Location     Type
  6472 ;;		None
  6473 ;; Auto vars:     Size  Location     Type
  6474 ;;		None
  6475 ;; Return value:  Size  Location     Type
  6476 ;;		None               void
  6477 ;; Registers used:
  6478 ;;		None
  6479 ;; Tracked objects:
  6480 ;;		On entry : 0/0
  6481 ;;		On exit  : 0/0
  6482 ;;		Unchanged: 0/0
  6483 ;; Data sizes:     COMMON   BANK0   BANK1   BANK3   BANK2
  6484 ;;      Params:         0       0       0       0       0
  6485 ;;      Locals:         0       0       0       0       0
  6486 ;;      Temps:          0       0       0       0       0
  6487 ;;      Totals:         0       0       0       0       0
  6488 ;;Total ram usage:        0 bytes
  6489 ;; Hardware stack levels used:    1
  6490 ;; This function calls:
  6491 ;;		Nothing
  6492 ;; This function is called by:
  6493 ;;		_MainSystemInitialize
  6494 ;; This function uses a non-reentrant model
  6495 ;;
  6496                           psect	text533
  6497                           	file	"C:\Users\X4ROY\Desktop\URE\LCD Interfacing\adc.c"
  6498                           	line	4
  6499                           	global	__size_of_ADCInitialize
  6500  0012                     	__size_of_ADCInitialize	equ	__end_of_ADCInitialize-_ADCInitialize
  6501                           	
  6502  0CD9                     _ADCInitialize:	
  6503                           	opt	stack 6
  6504                           ; Regs used in _ADCInitialize: []
  6505                           	line	5
  6506                           	
  6507  0CD9                     l3735:	
  6508                           ;adc.c: 5: ADON = 1;
  6509  0CD9  1283               	bcf	status, 5	;RP0=0, select bank0
  6510  0CDA  1303               	bcf	status, 6	;RP1=0, select bank0
  6511  0CDB  141F               	bsf	(248/8),(248)&7
  6512                           	line	6
  6513                           ;adc.c: 6: ADFM = 1;
  6514  0CDC  1683               	bsf	status, 5	;RP0=1, select bank1
  6515  0CDD  1303               	bcf	status, 6	;RP1=0, select bank1
  6516  0CDE  179F               	bsf	(1279/8)^080h,(1279)&7
  6517                           	line	7
  6518                           ;adc.c: 7: ADCS2 = ADCS1 = ADCS0 = 0;
  6519  0CDF  1283               	bcf	status, 5	;RP0=0, select bank0
  6520  0CE0  1303               	bcf	status, 6	;RP1=0, select bank0
  6521  0CE1  131F               	bcf	(254/8),(254)&7
  6522  0CE2  139F               	bcf	(255/8),(255)&7
  6523  0CE3  1683               	bsf	status, 5	;RP0=1, select bank1
  6524  0CE4  1303               	bcf	status, 6	;RP1=0, select bank1
  6525  0CE5  131F               	bcf	(1278/8)^080h,(1278)&7
  6526                           	line	8
  6527                           ;adc.c: 8: PCFG3 = PCFG2 = PCFG0 =0;
  6528  0CE6  101F               	bcf	(1272/8)^080h,(1272)&7
  6529  0CE7  111F               	bcf	(1274/8)^080h,(1274)&7
  6530  0CE8  119F               	bcf	(1275/8)^080h,(1275)&7
  6531                           	line	9
  6532                           ;adc.c: 9: PCFG1 = 1;
  6533  0CE9  149F               	bsf	(1273/8)^080h,(1273)&7
  6534                           	line	10
  6535                           	
  6536  0CEA                     l1798:	
  6537  0CEA  0008               	return
  6538                           	opt stack 0
  6539                           GLOBAL	__end_of_ADCInitialize
  6540  0CEB                     	__end_of_ADCInitialize:
  6541 ;; =============== function _ADCInitialize ends ============
  6542                           
  6543                           	signat	_ADCInitialize,88
  6544                           	global	_Delay
  6545                           psect	text534,local,class=CODE,delta=2
  6546                           global __ptext534
  6547  0D19                     __ptext534:
  6548                           
  6549 ;; *************** function _Delay *****************
  6550 ;; Defined at:
  6551 ;;		line 4 in file "C:\Users\X4ROY\Desktop\URE\LCD Interfacing\delay.c"
  6552 ;; Parameters:    Size  Location     Type
  6553 ;;  time            2    0[COMMON] unsigned int 
  6554 ;; Auto vars:     Size  Location     Type
  6555 ;;  pause           1    3[COMMON] unsigned char 
  6556 ;; Return value:  Size  Location     Type
  6557 ;;		None               void
  6558 ;; Registers used:
  6559 ;;		wreg, status,2, status,0
  6560 ;; Tracked objects:
  6561 ;;		On entry : 0/0
  6562 ;;		On exit  : 0/0
  6563 ;;		Unchanged: 0/0
  6564 ;; Data sizes:     COMMON   BANK0   BANK1   BANK3   BANK2
  6565 ;;      Params:         2       0       0       0       0
  6566 ;;      Locals:         1       0       0       0       0
  6567 ;;      Temps:          1       0       0       0       0
  6568 ;;      Totals:         4       0       0       0       0
  6569 ;;Total ram usage:        4 bytes
  6570 ;; Hardware stack levels used:    1
  6571 ;; This function calls:
  6572 ;;		Nothing
  6573 ;; This function is called by:
  6574 ;;		_LCDEnable
  6575 ;;		_LCDWriteByte
  6576 ;;		_ADCReadData
  6577 ;;		_LCDDisplayInitializing
  6578 ;; This function uses a non-reentrant model
  6579 ;;
  6580                           psect	text534
  6581                           	file	"C:\Users\X4ROY\Desktop\URE\LCD Interfacing\delay.c"
  6582                           	line	4
  6583                           	global	__size_of_Delay
  6584  001F                     	__size_of_Delay	equ	__end_of_Delay-_Delay
  6585                           	
  6586  0D19                     _Delay:	
  6587                           	opt	stack 4
  6588                           ; Regs used in _Delay: [wreg+status,2+status,0]
  6589                           	line	6
  6590                           	
  6591  0D19                     l3693:	
  6592                           ;delay.c: 5: unsigned char pause;
  6593                           ;delay.c: 6: while( time > 0)
  6594  0D19  2D30               	goto	l3701
  6595                           	
  6596  0D1A                     l4:	
  6597                           	line	8
  6598                           	
  6599  0D1A                     l3695:	
  6600                           ;delay.c: 7: {
  6601                           ;delay.c: 8: pause = 255;
  6602  0D1A  30FF               	movlw	(0FFh)
  6603  0D1B  00F2               	movwf	(??_Delay+0)+0
  6604  0D1C  0872               	movf	(??_Delay+0)+0,w
  6605  0D1D  00F3               	movwf	(Delay@pause)
  6606                           	line	9
  6607                           ;delay.c: 9: while(pause--);
  6608  0D1E  2D20               	goto	l3697
  6609                           	
  6610  0D1F                     l6:	
  6611  0D1F  2D20               	goto	l3697
  6612                           	
  6613  0D20                     l5:	
  6614                           	
  6615  0D20                     l3697:	
  6616  0D20  3001               	movlw	low(01h)
  6617  0D21  02F3               	subwf	(Delay@pause),f
  6618  0D22  0873               	movf	((Delay@pause)),w
  6619  0D23  3AFF               	xorlw	0FFh
  6620  0D24  1D03               	skipz
  6621  0D25  2D27               	goto	u2391
  6622  0D26  2D28               	goto	u2390
  6623  0D27                     u2391:
  6624  0D27  2D20               	goto	l3697
  6625  0D28                     u2390:
  6626  0D28  2D29               	goto	l3699
  6627                           	
  6628  0D29                     l7:	
  6629                           	line	10
  6630                           	
  6631  0D29                     l3699:	
  6632                           ;delay.c: 10: time--;
  6633  0D29  3001               	movlw	low(01h)
  6634  0D2A  02F0               	subwf	(Delay@time),f
  6635  0D2B  3000               	movlw	high(01h)
  6636  0D2C  1C03               	skipc
  6637  0D2D  03F1               	decf	(Delay@time+1),f
  6638  0D2E  02F1               	subwf	(Delay@time+1),f
  6639  0D2F  2D30               	goto	l3701
  6640                           	line	11
  6641                           	
  6642  0D30                     l3:	
  6643                           	line	6
  6644                           	
  6645  0D30                     l3701:	
  6646  0D30  0871               	movf	((Delay@time+1)),w
  6647  0D31  0470               	iorwf	((Delay@time)),w
  6648  0D32  1D03               	skipz
  6649  0D33  2D35               	goto	u2401
  6650  0D34  2D36               	goto	u2400
  6651  0D35                     u2401:
  6652  0D35  2D1A               	goto	l3695
  6653  0D36                     u2400:
  6654  0D36  2D37               	goto	l9
  6655                           	
  6656  0D37                     l8:	
  6657                           	line	12
  6658                           	
  6659  0D37                     l9:	
  6660  0D37  0008               	return
  6661                           	opt stack 0
  6662                           GLOBAL	__end_of_Delay
  6663  0D38                     	__end_of_Delay:
  6664 ;; =============== function _Delay ends ============
  6665                           
  6666                           	signat	_Delay,4216
  6667                           psect	text535,local,class=CODE,delta=2
  6668                           global __ptext535
  6669  0000                     __ptext535:
  6670                           	global	btemp
  6671  007E                     	btemp set 07Eh
  6672                           
  6673                           	DABS	1,126,2	;btemp
  6674                           	global	wtemp0
  6675  007E                     	wtemp0 set btemp


HI-TECH Software PICC Macro Assembler V9.80 build 6738 
Symbol Table                                                                                   Thu Jun 28 19:50:29 2012

                            l3 0D30                              l4 0D1A                              l5 0D20  
                            l6 0D1F                              l7 0D29                              l8 0D37  
                            l9 0D37                              pc 0002                             _AT 00BF  
                 ___awdiv@sign 0076                             fsr 0004            ___wmul@multiplicand 0072  
                 ___ftadd@exp1 002F                   ___ftadd@exp2 002E       LCDWriteString@lcd_string 0078  
                 ___ftadd@sign 002D                            l602 0DFE                            l620 07BA  
                          l621 07D4                            l630 0134                            l622 07FF  
                          l614 06BC                            l631 0142                            l623 07FF  
                          l615 0793                            l632 0135                            l616 075B  
                          l633 014D                            l617 07A1                            l634 014D  
                          l626 00E4                            l618 07B1                            l627 00F1  
                          l619 07A6                            l628 0126                            _AT0 00D9  
                          l629 00F2                            _AT1 00A0                            l582 0C91  
                          _AT2 0058                            l591 0DA6                            _AT3 0060  
                          l576 0CC7                            l585 0D4B                            l586 0D3A  
                          l594 0CFD                            l579 0C86                            l587 0D58  
                          l588 0D58                            _RE0 0048                            _RD2 0042  
                          _RE1 0049                            _RD3 0043                            fsr0 0004  
                          indf 0000                   ___awmod@sign 0076                 ?_LCDInitialize 0070  
         __size_of_ADCReadData 00AD                   ___ftdiv@cntr 0024                   ___ftdiv@sign 0029  
                         l2021 0EC3                           l2030 0F13                           l2022 0ECD  
                         l1230 0421                           l2031 0F1A                           l2023 0F09  
                         l1231 0435                           l2024 0EE3                           l1232 0448  
                         l2025 0ED7                           l1233 0449                           l2026 0EE8  
                         l1234 0449                           l2027 0EE9                           l1227 0379  
                         l2028 0EFA                           l2036 0D18                           l1228 0410  
                         l2029 0F08                           l1237 0C9C                           l1229 0422  
                         l2150 0067                           l2151 007B                           l2152 0092  
                         l2153 007C                           l2145 0066                           l4001 055E  
                         l2154 0099                           l2155 00A5                           l2147 005E  
                         l4011 057B                           l4003 0569                           l2156 009A  
                         l2148 00CC                           l2157 00A9                           l2149 0074  
                         l4021 0595                           l4013 0586                           l4005 0570  
                         l4101 033B                           l2158 00B3                           l2159 00CC  
                         l4031 05C4                           l4023 059B                           l4015 058A  
                         l4007 0571                           l4103 0343                           l4111 045F  
                         l4041 05F0                           l4033 05D1                           l4025 05A9  
                         l4017 058E                           l4009 0575                           l4105 034A  
                         l4121 0480                           l4113 0466                           l4201 028C  
                         l1801 0212                           l1802 0211                           l4051 0629  
                         l4043 05FB                           l4027 05B3                           l4035 05D9  
                         l4019 0593                           l4107 0364                           l4131 04BB  
                         l4123 04AD                           l4115 0467                           l4203 0295  
                         l1803 021A                           l4211 0C88                           l1804 029E  
                         l1813 0DAC                           l4061 0663                           l4053 063A  
                         l4045 0608                           l4037 05E0                           l4029 05B9  
                         l1901 02BA                           l4141 04E5                           l4133 04C0  
                         l4125 04AE                           l4117 0478                           l4109 044C  
                         l4205 029E                           l4213 0C8B                           l4221 0D4B  
                         l4301 07B1                           l1814 0DB6                           l1902 0364  
                         l1815 0DCB                           l4063 0667                           l4055 063F  
                         l4047 0614                           l4039 05EA                           l1903 02D3  
                         l4071 02B9                           l4151 050E                           l4143 04EC  
                         l4135 04C4                           l4127 04AF                           l4119 047F  
                         l1911 0467                           l4207 0C7D                           l4215 0D39  
                         l4223 0CEB                           l4231 00DE                           l4311 07E3  
                         l4303 07BA                           l1816 0DD2                           l1904 0319  
                         l1912 0539                           l4065 0683                           l4057 064F  
                         l4049 0625                           l1905 033B                           l4081 02D9  
                         l4073 02BA                           l4153 0516                           l4145 04F1  
                         l4137 04D5                           l4129 04B5                           l1913 0480  
                         l4161 0E06                           l4209 0C80                           l4217 0D3A  
                         l4241 0110                           l4233 00E4                           l4225 00CD  
                         l4313 07F2                           l4305 07C7                           l4321 0365  
                         l1930 01D1                           l1922 0169                           l1906 034A  
                         l1914 04C0                           l1931 01C5                           l1923 01F1  
                         l4059 0653                           l4091 030D                           l4083 02DE  
                         l4075 02CB                           l4067 029F                           l4155 051D  
                         l4147 04F5                           l4139 04DD                           l1915 04D5  
                         l4163 0E0A                           l4171 0D18                           l4219 0D46  
                         l4235 00EA                           l4243 0126                           l4227 00D4  
                         l4251 0D81                           l4315 07F8                           l4307 07CD  
                         l4331 039A                           l4323 0373                           l1932 01D7  
                         l1924 01B4                           l1860 0683                           l1916 04EC  
                         l3701 0D30                           l1933 01E8                           l1925 01A0  
                         l1861 0586                           l4093 0319                           l4085 02F0  
                         l4077 02D2                           l4069 02B2                           l4157 0539  
                         l4149 0506                           l1917 04F1                           l4165 0E13  
                         l4173 0DD4                           l4181 01FF                           l4245 0135  
                         l4237 00F2                           l4229 00D8                           l4261 0D94  
                         l4253 0D84                           l4309 07D4                           l4317 0C92  
                         l4341 03CF                           l4333 03A8                           l4325 0379  
                         l1926 01A1                           l1870 05C3                           l1918 0506  
                         l1950 0E2C                           l1927 01B3                           l1871 05D1  
                         l1863 0585                           l4095 0321                           l4087 0302  
                         l4079 02D3                           l1919 051D                           l4167 0E2C  
                         l4159 0DFF                           l4175 0DDD                           l4191 021A  
                         l4183 0203                           l4247 0142                           l4239 010C  
                         l4263 0D9A                           l4255 0D85                           l4271 06A0  
                         l4319 0C97                           l4351 0403                           l4343 03DC  
                         l4335 03AE                           l4327 0387                           l1928 01D8  
                         l1960 0FDF                           l1880 0608                           l1872 05C4  
                         l1864 058F                           l1929 01C4                           l3801 018B  
                         l1961 0FED                           l1953 0F99                           l1881 05FB  
                         l1873 05D8                           l1865 0594                           l1857 0571  
                         l4097 032F                           l4089 0306                           l4169 0CFE  
                         l4177 0DE2                           l4193 022C                           l4185 020C  
                         l4265 0DA0                           l4257 0D89                           l4249 0D7C  
                         l4281 06E2                           l4273 06A6                           l4361 0428  
                         l4353 0409                           l4345 03EA                           l4337 03BB  
                         l4329 038D                           l1962 0FF8                           l1954 0FA6  
                         l1882 060F                           l1866 05D9                           l1874 0610  
                         l3803 018F                           l3811 01B4                           l1963 0FFF  
                         l1955 0FEE                           l1883 0625                           l1875 0610  
                         l1867 05A9                           l1859 0569                           l4099 0339  
                         l4195 0247                           l4187 020F                           l4179 01F5  
                         l4259 0D8E                           l4291 0777                           l4283 06E8  
                         l4275 06BC                           l4267 0684                           l4363 042E  
                         l4355 0414                           l4347 03F0                           l4339 03C9  
                         l1956 0FC0                           l1980 0F45                           l1884 063A  
                         l1876 05E0                           l3741 0DB0                           l3813 01BA  
                         l3821 01D8                           l3805 0196                           l1957 0FB4  
                         l3901 0F73                           l1981 0F6F                           l1885 0667  
                         l1869 05C2                           l1949 0E13                           l4197 025A  
                         l4189 0212                           l4293 077B                           l4285 071B  
                         l4277 06D1                           l4269 068B                           l4365 0435  
                         l4357 041A                           l4349 03FD                           l1798 0CEA  
                         l1958 0FC5                           l1982 0F86                           l1878 05F9  
                         l3735 0CD9                           l3743 0DBD                           l3751 0056  
                         l3823 01DC                           l3815 01C3                           l3807 019F  
                         l1959 0FC6                           l3903 0F81                           l3911 0EB6  
                         l1879 05FA                           l4199 0273                           l4295 0793  
                         l4287 0747                           l4279 06D7                           l4367 043B  
                         l4359 0422                           l1976 0CA7                           l3745 0DCB  
                         l3737 0DA7                           l3761 007C                           l3753 005E  
                         l3825 01E8                           l3817 01C5                           l3809 01A1  
                         l1977 0CA8                           l3905 0F83                           l3921 0ED3  
                         l3913 0EBA                           l4297 07A1                           l4289 075B  
                         l4369 0441                           l3747 0DD2                           l3739 0DAC  
                         l3771 00AD                           l3763 0080                           l3755 0065  
                         l3827 01F1                           l3819 01D1                           l3851 0F9D  
                         l3843 0F87                           l3907 0F86                           l3691 0F85  
                         l3931 0EF3                           l3923 0ED7                           l3915 0EC3  
                         l4299 07A6                           l3693 0D19                           l3773 00B5  
                         l3765 008A                           l3757 0067                           l3749 0052  
                         l3861 0FC0                           l3853 0FA2                           l3845 0F8C  
                         l3941 0F13                           l3933 0EFA                           l3925 0EDE  
                         l3917 0EC7                           l3909 0EB1                           l3695 0D1A  
                         l3775 00C7                           l3767 009A                           l3759 0074  
                         l3791 0169                           l3871 0FE6                           l3863 0FC6  
                         l3855 0FB0                           l3847 0F90                           l3943 0F1A  
                         l3935 0F01                           l3927 0EE3                           l3919 0ECD  
                         l3697 0D20                           l3777 00CB                           l3769 00A5  
                         l3793 017B                           l3785 014E                           l3865 0FD7  
                         l3857 0FB4                           l3873 0FEE                           l3849 0F99  
                         l3881 0C9D                           l3689 0F83                           l3929 0EE9  
                         l3937 0F09                           l3699 0D29                           l3795 017C  
                         l3787 015F                           l3875 0FF2                           l3867 0FDD  
                         l3859 0FBB                           l3883 0CA4                           l3891 0F1F  
                         l3939 0F0D                           l3797 0182                           l3789 0168  
                         l3877 0FF8                           l3869 0FDF                           l3885 0CA7  
                         l3893 0F45                           l3799 0189                           l3879 0FFF  
                         l3887 0CA8                           l3895 0F49                           l3991 0CBB  
                         l3897 0F6F                           l3889 0F1B                           l3993 0CC4  
                         _ADFM 04FF                           l3899 0F71                           l3995 053A  
                         l3989 0CB8                           l3997 0554                           l3999 0558  
                         _ADON 00F8                           STR_1 0806                           STR_2 0837  
                         STR_3 0838                           STR_4 0829                           STR_5 0830  
                         STR_6 0817                           STR_7 0820                           u3100 0593  
                         u3101 0592                           u3110 05A8                           u3030 0558  
                         u3111 05A7                           u2400 0D36                           u3200 05F8  
                         u3040 055E                           u2401 0D35                           u3201 05F7  
                         u3041 055D                           u3130 05B9                           u3050 0568  
                         u3131 05B8                           u3051 0567                           u2500 0056  
                         u3220 060E                           u3140 05C1                           u3060 0575  
                         u3300 02FB                           u3221 060D                           u3141 05C0  
                         u3125 05AA                           u2510 005D                           u3230 0614  
                         u3070 057B                           u2511 005C                           u3231 0613  
                         u3215 05FC                           u3071 057A                           u2600 00CB  
                         u3240 0629                           u3160 05D7                           u3080 0585  
                         u3320 032F                           u3241 0628                           u3161 05D6  
                         u3081 0584                           u3321 032E                           u3305 02F7  
                         u3401 04CD                           u2530 007A                           u2610 015F  
                         u3170 05DF                           u3090 058E                           u3402 04D4  
                         u2531 0079                           u2611 015E                           u3251 0648  
                         u3171 05DE                           u3155 05C5                           u3091 058D  
                         u3315 031A                           u2460 0DB0                           u2700 01DC  
                         u2620 0174                           u3260 0653                           u3252 064F  
                         u3340 0349                           u2461 0DAF                           u2525 006C  
                         u3261 0652                           u3341 0348                           u3325 032B  
                         u2390 0D28                           u2550 0098                           u2630 018F  
                         u3190 05F0                           u3270 02B2                           u3430 04EB  
                         u3350 045F                           u3510 0219                           u2391 0D27  
                         u2551 0097                           u2631 018E                           u3191 05EF  
                         u3335 033C                           u3271 02B1                           u3431 04EA  
                         u3415 04D6                           u3351 045E                           u3511 0218  
                         u2640 0196                           u2800 0FEC                           u2720 0F90  
                         u3280 02CB                           u3440 04F5                           u3360 0478  
                         u3520 0D57                           u3600 07C7                           u2545 008B  
                         u2641 0195                           u2625 0170                           u2801 0FEB  
                         u2721 0F8F                           u3185 05E1                           u3281 02CA  
                         u3441 04F4                           u3425 04DE                           u3361 0477  
                         u3505 0DE5                           u3521 0D56                           u3601 07C6  
                         u2490 0DCA                           u2570 00A9                           u2810 0FF2  
                         u2730 0F9D                           u3290 02E9                           u3370 0490  
                         u3530 00D8                           u3610 07E3                           u2491 0DC9  
                         u2475 0DB7                           u2571 00A8                           u2731 0F9C  
                         u3451 04FE                           u3531 00D7                           u3611 07E2  
                         u2580 00AD                           u2660 01B2                           u2740 0FB0  
                         u2820 0CA4                           u2900 0ED3                           u3452 0505  
                         u3380 04A2                           u3540 00EA                           u3620 07F2  
                         u2485 0DBE                           u2581 00AC                           u2565 009D  
                         u2661 01B1                           u2741 0FAF                           u2821 0CA3  
                         u2901 0ED2                           u3541 00E9                           u3621 07F1  
                         u3605 07C3                           u2590 00BE                           u2670 01BA  
                         u2830 0F1F                           u3390 04C4                           u3550 0133  
                         u3630 0403                           u2671 01B9                           u2655 01A2  
                         u2831 0F1E                           u3295 02E5                           u3391 04C3  
                         u3375 048C                           u3551 0132                           u3615 07DF  
                         u3631 0402                           u2760 0FC4                           u2920 0EE7  
                         u3480 051C                           u3560 014C                           u3640 0414  
                         u2761 0FC3                           u2841 0F37                           u2921 0EE6  
                         u3481 051B                           u3465 0507                           u3385 049E  
                         u3561 014B                           u3625 07EE                           u3641 0413  
                         u2690 01D6                           u2850 0F49                           u2842 0F38  
                         u2930 0EF3                           u3490 0E0A                           u3570 06A0  
                         u3650 0428                           u2595 00BA                           u2691 01D5  
                         u2755 0FB5                           u2851 0F48                           u2843 0F3D  
                         u2931 0EF2                           u2915 0ED8                           u3475 050F  
                         u3491 0E09                           u3555 012F                           u3571 069F  
                         u3651 0427                           u2780 0FD7                           u2844 0F3E  
                         u3580 07A0                           u3660 043B                           u2685 01C7  
                         u2781 0FD6                           u2861 0F61                           u3581 079F  
                         u3661 043A                           u2870 0F81                           u2862 0F62  
                         u2950 0F07                           u3590 07B9                           u2775 0FC7  
                         u2871 0F80                           u2863 0F67                           u2951 0F06  
                         u2935 0EEF                           u3591 07B8                           u2864 0F68  
                         u2960 0F0D                           u2880 0EBA                           u2785 0FD3  
                         u2945 0EFB                           u2881 0EB9                           u3585 079C  
                         u2890 0EC7                           u2795 0FE0                           u2875 0F7D  
                         u2891 0EC6                           _TLow 006B             __size_of_LCDEnable 0010  
         _MainSystemInitialize 0C92                           _main 0365                   ___ftpack@arg 0070  
                 ___ftpack@exp 0073                           btemp 007E                           start 0000  
                 ___ftmul@cntr 003E                   ___ftmul@sign 003F                   ___fttol@exp1 007D  
                 ___fttol@lval 0079                  ?_LCDWriteData 0070                  ?_LCDWriteByte 0070  
             __end_of_LCDReset 0CFE                          _ADCS0 00FE                          _ADCS1 00FF  
                        _ADCS2 04FE                          ?_main 0070                __end_of___awdiv 1000  
              __end_of___ftadd 0684                __end_of___awmod 0F1B                __end_of___ftdiv 0365  
              __end_of___ftneg 0CA9                __end_of___ftmul 053A                ___awdiv@divisor 0070  
              __end_of___fttol 01F2                          _PCFG0 04F8                          _PCFG1 04F9  
                        _PCFG2 04FA                          _PCFG3 04FB                ___awdiv@counter 0075  
                        _PORTD 0008                          _PORTE 0009                          _TRISD 0088  
                        _TRISE 0089                  _LCDWriteFloat 0684                          _Delay 0D19  
                        _THigh 0067                  ___awtoft@sign 0022                  ___ftpack@sign 0074  
                        pclath 000A          ?_MainSystemInitialize 0070                          status 0003  
                        wtemp0 007E              ??_LCDWriteCommand 0076                   __end_of_main 044C  
            ??_LCDWriteInteger 007B                 ??_LCDWriteData 0076         __size_of_ADCInitialize 0012  
               ??_LCDWriteByte 0074              __end_of_LCDEnable 0CC8                         ??_main 0054  
                ___fttol@sign1 0078                 ?_LCDWriteFloat 0040                ??_LCDInitialize 0077  
                       ?_Delay 0070                         _ADCON0 001F                         _ADRESH 001E  
                       _ADRESL 009E               ___awdiv@dividend 0072               __end_of___awtoft 0E2D  
             __end_of___ftpack 00CD               __end_of___lwtoft 0D19                         _TH_Err 0110  
                       _TL_Err 0190                 _LCDWriteString 0D38                         ___ftge 0F1B  
                       ___wmul 0DA7                      ??___awdiv 0074                      ??___ftadd 0029  
                    ??___awmod 0074                      ??___ftdiv 0020                      ??___ftneg 007B  
                    ??___ftmul 0036                      ??___fttol 0074               ___awdiv@quotient 0077  
              ___awmod@divisor 0070                ___awmod@counter 0075          ___ftmul@f3_as_product 003B  
                _ADCInitialize 0CD9         ??_MainSystemInitialize 0078                      ?_LCDReset 0070  
                   ___ftadd@f1 0023                     ___ftadd@f2 0026                     ___ftge@ff1 0070  
                   ___ftge@ff2 0073         __end_of_LCDWriteString 0D59                     ___ftdiv@f1 007B  
                   ___ftdiv@f2 0078                     ___ftdiv@f3 0025                     ___ftneg@f1 0078  
                   ___awtoft@c 007B                  __end_of_Delay 0D38                     ___ftmul@f1 0030  
                   ___ftmul@f2 0033                     ___fttol@f1 0070                 __pcstackCOMMON 0070  
                 __pidataBANK0 0CA9                   __pidataBANK1 0009                   __pidataBANK2 0D59  
                 __pidataBANK3 0E6F                ??_LCDWriteFloat 0043                     ___lwtoft@c 0078  
                      ??_Delay 0072                 ?_ADCInitialize 0070           __end_of_LCDWriteData 0C92  
                   __pbssBANK0 0067           __end_of_LCDWriteByte 0DFF                     ??_LCDReset 0077  
              ?_LCDWriteString 0070              LCDWriteFloat@Temp 004D                     __pmaintext 0365  
                      ?___ftge 0070                        ?___wmul 0070            LCDWriteByte@LCDData 0075  
                    ?___awtoft 007B                      ?___ftpack 0070                  ??_ADCReadData 0043  
                    ?___lwtoft 0078                   ADCReadData@c 004C                   ADCReadData@f 0045  
                 ADCReadData@p 0051                   ADCReadData@x 0048                   ADCReadData@y 004A  
                 ADCReadData@z 004E                        _HYS_Err 01B2                _LCDWriteCommand 0C7C  
              _LCDWriteInteger 00CD         LCDWriteCommand@LCDData 0076                __size_of___ftge 006C  
                      ___awdiv 0F87                        ___ftadd 053A                        ___awmod 0EB1  
                      ___ftdiv 029F                        ___ftneg 0C9D                __size_of___wmul 002C  
                      ___ftmul 044C                        ___fttol 014E                     ??___awtoft 0020  
                   ??___ftpack 0075                     ??___lwtoft 007B               ___awmod@dividend 0072  
              ??_ADCInitialize 0070                      _LCDEnable 0CB8            __end_of_ADCReadData 029F  
         end_of_initialization 0E6B                      Delay@time 0070                        init_ram 0CCC  
      __end_of_LCDWriteCommand 0C87          __size_of_LCDWriteData 000B          __end_of_LCDInitialize 0DA7  
                   ?_LCDEnable 0070          __size_of_LCDWriteByte 002C       ADCReadData@ChannelNumber 0050  
      __end_of_LCDWriteInteger 014E                    ___ftdiv@exp 0028              __size_of_LCDReset 0013  
                  ___ftmul@exp 003A                 __end_of___ftge 0F87                 __end_of___wmul 0DD3  
                 _LCDWriteData 0C87                   _LCDWriteByte 0DD3                    _ADCReadData 01F2  
          start_initialization 0E2D               ??_LCDWriteString 0077  __size_of_MainSystemInitialize 000B  
                     ??___ftge 0076                       ??___wmul 0074                    __pdataBANK0 0058  
                  __pdataBANK1 00A0                    __pdataBANK2 0110                    __pdataBANK3 0190  
        __end_of_LCDWriteFloat 0800              __size_of___awtoft 002E              __size_of___ftpack 007B  
             ?_LCDWriteCommand 0070                    ??_LCDEnable 0074              __size_of___lwtoft 001B  
                __pcstackBANK0 0020               ?_LCDWriteInteger 0079                       ?___awdiv 0070  
                     ?___ftadd 0023                      __ptext510 0C92                      __ptext511 0684  
                    __ptext520 0CFE                      __ptext512 0D7C                      __ptext521 0DFF  
                    __ptext513 00CD                      __ptext530 014E                      __ptext522 044C  
                    __ptext514 0CEB                      __ptext531 0052                      __ptext523 029F  
                    __ptext515 0D38                       ?___awmod 0070                      __ptext532 0DA7  
                    __ptext524 053A                      __ptext516 0C87                      __ptext533 0CD9  
                    __ptext525 0CB8                      __ptext517 0C7C                      __ptext534 0D19  
                    __ptext526 0EB1                      __ptext518 01F2                      __ptext535 0000  
                    __ptext527 0F1B                      __ptext519 0DD3                      __ptext528 0C9D  
                    __ptext529 0F87                       ?___ftdiv 0078                       ?___ftneg 0078  
                     ?___ftmul 0030                       ?___fttol 0070                      __pstrings 0800  
             LCDWriteInteger@c 0020               LCDWriteInteger@i 0026                 __size_of_Delay 001F  
                     _LCDReset 0CEB                 ___wmul@product 0074                    __stringbase 0805  
            ___wmul@multiplier 0070          __end_of_ADCInitialize 0CEB                      init_fetch 0CC8  
             __size_of___awdiv 0079               __size_of___ftadd 014A               __size_of___awmod 006A  
             __size_of___ftdiv 00C6               __size_of___ftneg 000C               __size_of___ftmul 00EE  
             __size_of___fttol 00A4                       ___awtoft 0DFF                       ___ftpack 0052  
                     ___lwtoft 0CFE                   ?_ADCReadData 0040                  __size_of_main 00E7  
       __size_of_LCDInitialize 002B   __end_of_MainSystemInitialize 0C9D                       main@temp 0055  
                   Delay@pause 0073                 LCDWriteFloat@c 0044                 LCDWriteFloat@i 004F  
               LCDWriteFloat@n 0050                      stringcode 0800       LCDWriteFloat@FloatNumber 0040  
 LCDWriteInteger@IntegerNumber 0079                       stringdir 0800                       stringtab 0800  
                _LCDInitialize 0D7C       __size_of_LCDWriteCommand 000B            LCDWriteData@LCDData 0076  
     __size_of_LCDWriteInteger 0081             _LCDWriteFloat$1282 004A         __size_of_LCDWriteFloat 017C  
      __size_of_LCDWriteString 0021  
