

HI-TECH Software PIC LITE Macro Assembler V9.80 build 6738 
                                                                                               Sun Jul 01 10:48:41 2012

HI-TECH Software Omniscient Code Generator (Lite mode) build 6738
     1  0000                     opt subtitle "HI-TECH Software Omniscient Code Generator (Lite mode) build 6738"
     2                           
     3                           opt pagewidth 120
     4                           
     5                           	opt lm
     6                           
     7                           	processor	16F877A
     8                           clrc	macro
     9                           	bcf	3,0
    10  0000                     	endm
    11                           clrz	macro
    12                           	bcf	3,2
    13  0000                     	endm
    14                           setc	macro
    15                           	bsf	3,0
    16  0000                     	endm
    17                           setz	macro
    18                           	bsf	3,2
    19  0000                     	endm
    20                           skipc	macro
    21                           	btfss	3,0
    22  0000                     	endm
    23                           skipz	macro
    24                           	btfss	3,2
    25  0000                     	endm
    26                           skipnc	macro
    27                           	btfsc	3,0
    28  0000                     	endm
    29                           skipnz	macro
    30                           	btfsc	3,2
    31  0000                     	endm
    32  0000                     indf	equ	0
    33  0000                     indf0	equ	0
    34  0002                     pc	equ	2
    35  0002                     pcl	equ	2
    36  0003                     status	equ	3
    37  0004                     fsr	equ	4
    38  0004                     fsr0	equ	4
    39  0001                     c	equ	1
    40  0000                     z	equ	0
    41  000A                     pclath	equ	10
    42                           # 15 "C:\Users\X4ROY\Desktop\URE\LCD Interfacing - Copy\main.h"
    43                           	psect config,class=CONFIG,delta=2 ;#
    44                           # 15 "C:\Users\X4ROY\Desktop\URE\LCD Interfacing - Copy\main.h"
    45  2007  2F0A               	dw 0x2F0A ;#
    46                           	FNCALL	_main,_MainSystemInitialize
    47                           	FNCALL	_main,_SendStringSerially
    48                           	FNCALL	_main,_ADCReadData
    49                           	FNCALL	_main,___ftdiv
    50                           	FNCALL	_main,___ftmul
    51                           	FNCALL	_main,_SendFloatSerially
    52                           	FNCALL	_main,_Delay
    53                           	FNCALL	_main,___ftge
    54                           	FNCALL	_main,___fttol
    55                           	FNCALL	_main,_SendIntegerSerially
    56                           	FNCALL	_main,_SendByteSerially
    57                           	FNCALL	_SendFloatSerially,___ftge
    58                           	FNCALL	_SendFloatSerially,_SendByteSerially
    59                           	FNCALL	_SendFloatSerially,___ftneg
    60                           	FNCALL	_SendFloatSerially,___fttol
    61                           	FNCALL	_SendFloatSerially,_SendIntegerSerially
    62                           	FNCALL	_SendFloatSerially,___awtoft
    63                           	FNCALL	_SendFloatSerially,___ftadd
    64                           	FNCALL	_SendFloatSerially,___ftmul
    65                           	FNCALL	_SendFloatSerially,___awmod
    66                           	FNCALL	_SendFloatSerially,___awdiv
    67                           	FNCALL	_ADCReadData,_Delay
    68                           	FNCALL	_ADCReadData,___wmul
    69                           	FNCALL	_ADCReadData,___lwtoft
    70                           	FNCALL	_ADCReadData,___ftmul
    71                           	FNCALL	_ADCReadData,___ftdiv
    72                           	FNCALL	___lwtoft,___ftpack
    73                           	FNCALL	___awtoft,___ftpack
    74                           	FNCALL	___ftmul,___ftpack
    75                           	FNCALL	___ftdiv,___ftpack
    76                           	FNCALL	___ftadd,___ftpack
    77                           	FNCALL	_SendIntegerSerially,_SendByteSerially
    78                           	FNCALL	_SendIntegerSerially,___awmod
    79                           	FNCALL	_SendIntegerSerially,___awdiv
    80                           	FNCALL	_SendStringSerially,_SendByteSerially
    81                           	FNCALL	_MainSystemInitialize,_ADCInitialize
    82                           	FNCALL	_MainSystemInitialize,_InitializeSerialCommunication
    83                           	FNROOT	_main
    84                           	global	_AT3
    85                           	global	_TH_Err
    86                           	global	_TL_Err
    87                           	global	_HYS_Err
    88                           	global	_AT1
    89                           	global	_AT
    90                           	global	_AT0
    91                           	global	_AT2
    92                           psect	idataBANK0,class=CODE,space=0,delta=2
    93                           global __pidataBANK0
    94  0B74                     __pidataBANK0:
    95                           	file	"C:\Users\X4ROY\Desktop\URE\LCD Interfacing - Copy\main.h"
    96                           	line	31
    97                           
    98                           ;initializer for _AT3
    99  0B74  3454               	retlw	054h
   100  0B75  342D               	retlw	02Dh
   101  0B76  344C               	retlw	04Ch
   102  0B77  346F               	retlw	06Fh
   103  0B78  3477               	retlw	077h
   104  0B79  3420               	retlw	020h
   105  0B7A  343A               	retlw	03Ah
   106                           psect	idataBANK2,class=CODE,space=0,delta=2
   107                           global __pidataBANK2
   108  0D38                     __pidataBANK2:
   109                           	line	33
   110                           
   111                           ;initializer for _TH_Err
   112  0D38  3454               	retlw	054h
   113  0D39  3465               	retlw	065h
   114  0D3A  346D               	retlw	06Dh
   115  0D3B  3470               	retlw	070h
   116  0D3C  3465               	retlw	065h
   117  0D3D  3472               	retlw	072h
   118  0D3E  3461               	retlw	061h
   119  0D3F  3474               	retlw	074h
   120  0D40  3475               	retlw	075h
   121  0D41  3472               	retlw	072h
   122  0D42  3465               	retlw	065h
   123  0D43  3420               	retlw	020h
   124  0D44  3475               	retlw	075h
   125  0D45  3470               	retlw	070h
   126  0D46  3470               	retlw	070h
   127  0D47  3465               	retlw	065h
   128  0D48  3472               	retlw	072h
   129  0D49  3420               	retlw	020h
   130  0D4A  346C               	retlw	06Ch
   131  0D4B  3469               	retlw	069h
   132  0D4C  346D               	retlw	06Dh
   133  0D4D  3469               	retlw	069h
   134  0D4E  3474               	retlw	074h
   135  0D4F  3420               	retlw	020h
   136  0D50  3469               	retlw	069h
   137  0D51  3473               	retlw	073h
   138  0D52  3420               	retlw	020h
   139  0D53  3474               	retlw	074h
   140  0D54  346F               	retlw	06Fh
   141  0D55  346F               	retlw	06Fh
   142  0D56  3420               	retlw	020h
   143  0D57  3468               	retlw	068h
   144  0D58  3469               	retlw	069h
   145  0D59  3467               	retlw	067h
   146  0D5A  3468               	retlw	068h
   147                           	line	34
   148                           
   149                           ;initializer for _TL_Err
   150  0D5B  3454               	retlw	054h
   151  0D5C  3465               	retlw	065h
   152  0D5D  346D               	retlw	06Dh
   153  0D5E  3470               	retlw	070h
   154  0D5F  3465               	retlw	065h
   155  0D60  3472               	retlw	072h
   156  0D61  3461               	retlw	061h
   157  0D62  3474               	retlw	074h
   158  0D63  3475               	retlw	075h
   159  0D64  3472               	retlw	072h
   160  0D65  3465               	retlw	065h
   161  0D66  3420               	retlw	020h
   162  0D67  346C               	retlw	06Ch
   163  0D68  346F               	retlw	06Fh
   164  0D69  3477               	retlw	077h
   165  0D6A  3465               	retlw	065h
   166  0D6B  3472               	retlw	072h
   167  0D6C  3420               	retlw	020h
   168  0D6D  346C               	retlw	06Ch
   169  0D6E  3469               	retlw	069h
   170  0D6F  346D               	retlw	06Dh
   171  0D70  3469               	retlw	069h
   172  0D71  3474               	retlw	074h
   173  0D72  3420               	retlw	020h
   174  0D73  3469               	retlw	069h
   175  0D74  3473               	retlw	073h
   176  0D75  3420               	retlw	020h
   177  0D76  3474               	retlw	074h
   178  0D77  346F               	retlw	06Fh
   179  0D78  346F               	retlw	06Fh
   180  0D79  3420               	retlw	020h
   181  0D7A  346C               	retlw	06Ch
   182  0D7B  346F               	retlw	06Fh
   183  0D7C  3477               	retlw	077h
   184                           psect	idataBANK3,class=CODE,space=0,delta=2
   185                           global __pidataBANK3
   186  0CB6                     __pidataBANK3:
   187                           	line	32
   188                           
   189                           ;initializer for _HYS_Err
   190  0CB6  3454               	retlw	054h
   191  0CB7  3465               	retlw	065h
   192  0CB8  346D               	retlw	06Dh
   193  0CB9  3470               	retlw	070h
   194  0CBA  3465               	retlw	065h
   195  0CBB  3472               	retlw	072h
   196  0CBC  3461               	retlw	061h
   197  0CBD  3474               	retlw	074h
   198  0CBE  3475               	retlw	075h
   199  0CBF  3472               	retlw	072h
   200  0CC0  3465               	retlw	065h
   201  0CC1  3420               	retlw	020h
   202  0CC2  346C               	retlw	06Ch
   203  0CC3  3469               	retlw	069h
   204  0CC4  346D               	retlw	06Dh
   205  0CC5  3469               	retlw	069h
   206  0CC6  3474               	retlw	074h
   207  0CC7  3473               	retlw	073h
   208  0CC8  3420               	retlw	020h
   209  0CC9  3461               	retlw	061h
   210  0CCA  3472               	retlw	072h
   211  0CCB  3465               	retlw	065h
   212  0CCC  3420               	retlw	020h
   213  0CCD  3474               	retlw	074h
   214  0CCE  346F               	retlw	06Fh
   215  0CCF  346F               	retlw	06Fh
   216  0CD0  3420               	retlw	020h
   217  0CD1  3463               	retlw	063h
   218  0CD2  346C               	retlw	06Ch
   219  0CD3  346F               	retlw	06Fh
   220  0CD4  3473               	retlw	073h
   221  0CD5  3465               	retlw	065h
   222                           	line	29
   223                           
   224                           ;initializer for _AT1
   225  0CD6  3450               	retlw	050h
   226  0CD7  346C               	retlw	06Ch
   227  0CD8  3465               	retlw	065h
   228  0CD9  3461               	retlw	061h
   229  0CDA  3473               	retlw	073h
   230  0CDB  3465               	retlw	065h
   231  0CDC  3420               	retlw	020h
   232  0CDD  3445               	retlw	045h
   233  0CDE  346E               	retlw	06Eh
   234  0CDF  3474               	retlw	074h
   235  0CE0  3465               	retlw	065h
   236  0CE1  3472               	retlw	072h
   237  0CE2  3420               	retlw	020h
   238  0CE3  3454               	retlw	054h
   239  0CE4  3465               	retlw	065h
   240  0CE5  346D               	retlw	06Dh
   241  0CE6  3470               	retlw	070h
   242  0CE7  3465               	retlw	065h
   243  0CE8  3472               	retlw	072h
   244  0CE9  3461               	retlw	061h
   245  0CEA  3474               	retlw	074h
   246  0CEB  3475               	retlw	075h
   247  0CEC  3472               	retlw	072h
   248  0CED  3465               	retlw	065h
   249  0CEE  3420               	retlw	020h
   250  0CEF  344C               	retlw	04Ch
   251  0CF0  3469               	retlw	069h
   252  0CF1  346D               	retlw	06Dh
   253  0CF2  3469               	retlw	069h
   254  0CF3  3474               	retlw	074h
   255  0CF4  3473               	retlw	073h
   256                           psect	idataBANK1,class=CODE,space=0,delta=2
   257                           global __pidataBANK1
   258  0C84                     __pidataBANK1:
   259                           	line	27
   260                           
   261                           ;initializer for _AT
   262  0C84  3454               	retlw	054h
   263  0C85  3445               	retlw	045h
   264  0C86  344D               	retlw	04Dh
   265  0C87  3450               	retlw	050h
   266  0C88  3445               	retlw	045h
   267  0C89  3452               	retlw	052h
   268  0C8A  3441               	retlw	041h
   269  0C8B  3454               	retlw	054h
   270  0C8C  3455               	retlw	055h
   271  0C8D  3452               	retlw	052h
   272  0C8E  3445               	retlw	045h
   273  0C8F  3420               	retlw	020h
   274  0C90  3443               	retlw	043h
   275  0C91  344F               	retlw	04Fh
   276  0C92  344E               	retlw	04Eh
   277  0C93  3454               	retlw	054h
   278  0C94  3452               	retlw	052h
   279  0C95  344F               	retlw	04Fh
   280  0C96  344C               	retlw	04Ch
   281  0C97  344C               	retlw	04Ch
   282  0C98  3445               	retlw	045h
   283  0C99  3452               	retlw	052h
   284  0C9A  3420               	retlw	020h
   285  0C9B  344B               	retlw	04Bh
   286  0C9C  3449               	retlw	049h
   287  0C9D  3454               	retlw	054h
   288                           	line	28
   289                           
   290                           ;initializer for _AT0
   291  0C9E  3452               	retlw	052h
   292  0C9F  346F               	retlw	06Fh
   293  0CA0  346F               	retlw	06Fh
   294  0CA1  346D               	retlw	06Dh
   295  0CA2  3420               	retlw	020h
   296  0CA3  3454               	retlw	054h
   297  0CA4  3465               	retlw	065h
   298  0CA5  346D               	retlw	06Dh
   299  0CA6  3470               	retlw	070h
   300  0CA7  3465               	retlw	065h
   301  0CA8  3472               	retlw	072h
   302  0CA9  3461               	retlw	061h
   303  0CAA  3474               	retlw	074h
   304  0CAB  3475               	retlw	075h
   305  0CAC  3472               	retlw	072h
   306  0CAD  3465               	retlw	065h
   307                           	line	30
   308                           
   309                           ;initializer for _AT2
   310  0CAE  3454               	retlw	054h
   311  0CAF  342D               	retlw	02Dh
   312  0CB0  3448               	retlw	048h
   313  0CB1  3469               	retlw	069h
   314  0CB2  3467               	retlw	067h
   315  0CB3  3468               	retlw	068h
   316  0CB4  3420               	retlw	020h
   317  0CB5  343A               	retlw	03Ah
   318                           	global	_THigh
   319                           	global	_TLow
   320                           	global	_flag1
   321                           	global	_ADCON0
   322  001F                     _ADCON0	set	31
   323                           	global	_ADRESH
   324  001E                     _ADRESH	set	30
   325                           	global	_PORTE
   326  0009                     _PORTE	set	9
   327                           	global	_RCREG
   328  001A                     _RCREG	set	26
   329                           	global	_RCSTA
   330  0018                     _RCSTA	set	24
   331                           	global	_TXREG
   332  0019                     _TXREG	set	25
   333                           	global	_ADCS0
   334  00FE                     _ADCS0	set	254
   335                           	global	_ADCS1
   336  00FF                     _ADCS1	set	255
   337                           	global	_ADON
   338  00F8                     _ADON	set	248
   339                           	global	_RCIF
   340  0065                     _RCIF	set	101
   341                           	global	_RE0
   342  0048                     _RE0	set	72
   343                           	global	_RE1
   344  0049                     _RE1	set	73
   345                           	global	_TXIF
   346  0064                     _TXIF	set	100
   347                           	global	_ADRESL
   348  009E                     _ADRESL	set	158
   349                           	global	_SPBRG
   350  0099                     _SPBRG	set	153
   351                           	global	_TRISE
   352  0089                     _TRISE	set	137
   353                           	global	_TXSTA
   354  0098                     _TXSTA	set	152
   355                           	global	_ADCS2
   356  04FE                     _ADCS2	set	1278
   357                           	global	_ADFM
   358  04FF                     _ADFM	set	1279
   359                           	global	_PCFG0
   360  04F8                     _PCFG0	set	1272
   361                           	global	_PCFG1
   362  04F9                     _PCFG1	set	1273
   363                           	global	_PCFG2
   364  04FA                     _PCFG2	set	1274
   365                           	global	_PCFG3
   366  04FB                     _PCFG3	set	1275
   367                           	global	_SYNC
   368  04C4                     _SYNC	set	1220
   369                           psect	strings,class=STRING,delta=2
   370                           global __pstrings
   371  0003                     __pstrings:
   372                           ;	global	stringdir,stringtab,__stringbase
   373  0003                     stringtab:
   374                           ;	String table - string pointers are 1 byte each
   375  0003                     stringcode:stringdir:
      + 0003                     stringdir:	
   376  0003  3000               movlw high(stringdir)
   377  0004  008A               movwf pclath
   378  0005  0804               movf fsr,w
   379  0006  0A84               incf fsr
   380  0007  0782               	addwf pc
   381  0008                     __stringbase:
   382  0008  3400               	retlw	0
   383                           psect	strings
   384                           	
   385  0009                     STR_7:	
   386  0009  3450               	retlw	80	;'P'
   387  000A  3452               	retlw	82	;'R'
   388  000B  344F               	retlw	79	;'O'
   389  000C  3458               	retlw	88	;'X'
   390  000D  3449               	retlw	73	;'I'
   391  000E  344D               	retlw	77	;'M'
   392  000F  3449               	retlw	73	;'I'
   393  0010  3454               	retlw	84	;'T'
   394  0011  3459               	retlw	89	;'Y'
   395  0012  3420               	retlw	32	;' '
   396  0013  3441               	retlw	65	;'A'
   397  0014  344C               	retlw	76	;'L'
   398  0015  3445               	retlw	69	;'E'
   399  0016  3452               	retlw	82	;'R'
   400  0017  3454               	retlw	84	;'T'
   401  0018  3420               	retlw	32	;' '
   402  0019  3420               	retlw	32	;' '
   403  001A  3420               	retlw	32	;' '
   404  001B  3420               	retlw	32	;' '
   405  001C  3420               	retlw	32	;' '
   406  001D  3400               	retlw	0
   407                           psect	strings
   408                           	
   409  001E                     STR_5:	
   410  001E  344C               	retlw	76	;'L'
   411  001F  3455               	retlw	85	;'U'
   412  0020  344D               	retlw	77	;'M'
   413  0021  3449               	retlw	73	;'I'
   414  0022  344E               	retlw	78	;'N'
   415  0023  344F               	retlw	79	;'O'
   416  0024  3455               	retlw	85	;'U'
   417  0025  3453               	retlw	83	;'S'
   418  0026  3420               	retlw	32	;' '
   419  0027  3449               	retlw	73	;'I'
   420  0028  344E               	retlw	78	;'N'
   421  0029  3454               	retlw	84	;'T'
   422  002A  3445               	retlw	69	;'E'
   423  002B  344E               	retlw	78	;'N'
   424  002C  3453               	retlw	83	;'S'
   425  002D  3449               	retlw	73	;'I'
   426  002E  3454               	retlw	84	;'T'
   427  002F  3459               	retlw	89	;'Y'
   428  0030  3420               	retlw	32	;' '
   429  0031  343A               	retlw	58	;':'
   430  0032  3400               	retlw	0
   431                           psect	strings
   432                           	
   433  0033                     STR_8:	
   434  0033  344F               	retlw	79	;'O'
   435  0034  3442               	retlw	66	;'B'
   436  0035  344A               	retlw	74	;'J'
   437  0036  3445               	retlw	69	;'E'
   438  0037  3443               	retlw	67	;'C'
   439  0038  3454               	retlw	84	;'T'
   440  0039  3420               	retlw	32	;' '
   441  003A  3441               	retlw	65	;'A'
   442  003B  3442               	retlw	66	;'B'
   443  003C  3453               	retlw	83	;'S'
   444  003D  3445               	retlw	69	;'E'
   445  003E  344E               	retlw	78	;'N'
   446  003F  3454               	retlw	84	;'T'
   447  0040  3420               	retlw	32	;' '
   448  0041  3420               	retlw	32	;' '
   449  0042  3420               	retlw	32	;' '
   450  0043  3420               	retlw	32	;' '
   451  0044  3420               	retlw	32	;' '
   452  0045  3400               	retlw	0
   453                           psect	strings
   454                           	
   455  0046                     STR_3:	
   456  0046  3447               	retlw	71	;'G'
   457  0047  3441               	retlw	65	;'A'
   458  0048  3453               	retlw	83	;'S'
   459  0049  3420               	retlw	32	;' '
   460  004A  3444               	retlw	68	;'D'
   461  004B  3445               	retlw	69	;'E'
   462  004C  3454               	retlw	84	;'T'
   463  004D  3445               	retlw	69	;'E'
   464  004E  3443               	retlw	67	;'C'
   465  004F  3454               	retlw	84	;'T'
   466  0050  3445               	retlw	69	;'E'
   467  0051  3444               	retlw	68	;'D'
   468  0052  3420               	retlw	32	;' '
   469  0053  3420               	retlw	32	;' '
   470  0054  3420               	retlw	32	;' '
   471  0055  3420               	retlw	32	;' '
   472  0056  3420               	retlw	32	;' '
   473  0057  3400               	retlw	0
   474                           psect	strings
   475                           	
   476  0058                     STR_4:	
   477  0058  3447               	retlw	71	;'G'
   478  0059  3441               	retlw	65	;'A'
   479  005A  3453               	retlw	83	;'S'
   480  005B  3420               	retlw	32	;' '
   481  005C  3441               	retlw	65	;'A'
   482  005D  3442               	retlw	66	;'B'
   483  005E  3453               	retlw	83	;'S'
   484  005F  3445               	retlw	69	;'E'
   485  0060  344E               	retlw	78	;'N'
   486  0061  3454               	retlw	84	;'T'
   487  0062  3420               	retlw	32	;' '
   488  0063  3420               	retlw	32	;' '
   489  0064  3420               	retlw	32	;' '
   490  0065  3420               	retlw	32	;' '
   491  0066  3420               	retlw	32	;' '
   492  0067  3400               	retlw	0
   493                           psect	strings
   494                           	
   495  0068                     STR_11:	
   496  0068  344E               	retlw	78	;'N'
   497  0069  346F               	retlw	111	;'o'
   498  006A  346E               	retlw	110	;'n'
   499  006B  3420               	retlw	32	;' '
   500  006C  344D               	retlw	77	;'M'
   501  006D  3461               	retlw	97	;'a'
   502  006E  3467               	retlw	103	;'g'
   503  006F  346E               	retlw	110	;'n'
   504  0070  3465               	retlw	101	;'e'
   505  0071  3474               	retlw	116	;'t'
   506  0072  3469               	retlw	105	;'i'
   507  0073  3463               	retlw	99	;'c'
   508  0074  3420               	retlw	32	;' '
   509  0075  3400               	retlw	0
   510                           psect	strings
   511                           	
   512  0076                     STR_1:	
   513  0076  3454               	retlw	84	;'T'
   514  0077  3445               	retlw	69	;'E'
   515  0078  344D               	retlw	77	;'M'
   516  0079  3450               	retlw	80	;'P'
   517  007A  3445               	retlw	69	;'E'
   518  007B  3452               	retlw	82	;'R'
   519  007C  3441               	retlw	65	;'A'
   520  007D  3454               	retlw	84	;'T'
   521  007E  3455               	retlw	85	;'U'
   522  007F  3452               	retlw	82	;'R'
   523  0080  3445               	retlw	69	;'E'
   524  0081  3420               	retlw	32	;' '
   525  0082  343A               	retlw	58	;':'
   526  0083  3400               	retlw	0
   527                           psect	strings
   528                           	
   529  0084                     STR_9:	
   530  0084  3448               	retlw	72	;'H'
   531  0085  3455               	retlw	85	;'U'
   532  0086  344D               	retlw	77	;'M'
   533  0087  3449               	retlw	73	;'I'
   534  0088  3444               	retlw	68	;'D'
   535  0089  3449               	retlw	73	;'I'
   536  008A  3454               	retlw	84	;'T'
   537  008B  3459               	retlw	89	;'Y'
   538  008C  3420               	retlw	32	;' '
   539  008D  343A               	retlw	58	;':'
   540  008E  3400               	retlw	0
   541                           psect	strings
   542                           	
   543  008F                     STR_2:	
   544  008F  3420               	retlw	32	;' '
   545  0090  3420               	retlw	32	;' '
   546  0091  3443               	retlw	67	;'C'
   547  0092  3420               	retlw	32	;' '
   548  0093  3420               	retlw	32	;' '
   549  0094  3420               	retlw	32	;' '
   550  0095  3420               	retlw	32	;' '
   551  0096  3420               	retlw	32	;' '
   552  0097  3400               	retlw	0
   553                           psect	strings
   554                           	
   555  0098                     STR_6:	
   556  0098  3420               	retlw	32	;' '
   557  0099  3443               	retlw	67	;'C'
   558  009A  3464               	retlw	100	;'d'
   559  009B  3420               	retlw	32	;' '
   560  009C  3420               	retlw	32	;' '
   561  009D  3420               	retlw	32	;' '
   562  009E  3420               	retlw	32	;' '
   563  009F  3420               	retlw	32	;' '
   564  00A0  3400               	retlw	0
   565                           psect	strings
   566                           	
   567  00A1                     STR_10:	
   568  00A1  3425               	retlw	37	;'%'
   569  00A2  3420               	retlw	32	;' '
   570  00A3  3420               	retlw	32	;' '
   571  00A4  3420               	retlw	32	;' '
   572  00A5  3420               	retlw	32	;' '
   573  00A6  3420               	retlw	32	;' '
   574  00A7  3400               	retlw	0
   575                           psect	strings
   576  006C                     STR_12	equ	STR_11+4
   577  00A5                     STR_13	equ	STR_10+4
   578  00A6                     STR_14	equ	STR_10+5
   579                           	file	"LCD Interfacing.as"
   580                           	line	#
   581                           psect cinit,class=CODE,delta=2
   582                           global start_initialization
   583  0CF5                     start_initialization:
   584                           
   585                           psect	bssBANK0,class=BANK0,space=1
   586                           global __pbssBANK0
   587  005A                     __pbssBANK0:
   588  005A                     _THigh:
   589  005A                            ds      4
   590                           
   591  005E                     _TLow:
   592  005E                            ds      4
   593                           
   594  0062                     _flag1:
   595  0062                            ds      1
   596                           
   597                           psect	dataBANK0,class=BANK0,space=1
   598                           global __pdataBANK0
   599  0063                     __pdataBANK0:
   600                           	file	"C:\Users\X4ROY\Desktop\URE\LCD Interfacing - Copy\main.h"
   601                           	line	31
   602  0063                     _AT3:
   603  0063                            ds      7
   604                           
   605                           psect	dataBANK1,class=BANK1,space=1
   606                           global __pdataBANK1
   607  00A0                     __pdataBANK1:
   608                           	file	"C:\Users\X4ROY\Desktop\URE\LCD Interfacing - Copy\main.h"
   609                           	line	27
   610  00A0                     _AT:
   611  00A0                            ds      26
   612                           
   613                           psect	dataBANK1
   614                           	file	"C:\Users\X4ROY\Desktop\URE\LCD Interfacing - Copy\main.h"
   615                           	line	28
   616  00BA                     _AT0:
   617  00BA                            ds      16
   618                           
   619                           psect	dataBANK1
   620                           	file	"C:\Users\X4ROY\Desktop\URE\LCD Interfacing - Copy\main.h"
   621                           	line	30
   622  00CA                     _AT2:
   623  00CA                            ds      8
   624                           
   625                           psect	dataBANK3,class=BANK3,space=1
   626                           global __pdataBANK3
   627  0190                     __pdataBANK3:
   628                           	file	"C:\Users\X4ROY\Desktop\URE\LCD Interfacing - Copy\main.h"
   629                           	line	32
   630  0190                     _HYS_Err:
   631  0190                            ds      32
   632                           
   633                           psect	dataBANK3
   634                           	file	"C:\Users\X4ROY\Desktop\URE\LCD Interfacing - Copy\main.h"
   635                           	line	29
   636  01B0                     _AT1:
   637  01B0                            ds      31
   638                           
   639                           psect	dataBANK2,class=BANK2,space=1
   640                           global __pdataBANK2
   641  0110                     __pdataBANK2:
   642                           	file	"C:\Users\X4ROY\Desktop\URE\LCD Interfacing - Copy\main.h"
   643                           	line	33
   644  0110                     _TH_Err:
   645  0110                            ds      35
   646                           
   647                           psect	dataBANK2
   648                           	file	"C:\Users\X4ROY\Desktop\URE\LCD Interfacing - Copy\main.h"
   649                           	line	34
   650  0133                     _TL_Err:
   651  0133                            ds      34
   652                           
   653                           ; Clear objects allocated to BANK0
   654                           psect cinit,class=CODE,delta=2
   655  0CF5  01DA               	clrf	((__pbssBANK0)+0)&07Fh
   656  0CF6  01DB               	clrf	((__pbssBANK0)+1)&07Fh
   657  0CF7  01DC               	clrf	((__pbssBANK0)+2)&07Fh
   658  0CF8  01DD               	clrf	((__pbssBANK0)+3)&07Fh
   659  0CF9  01DE               	clrf	((__pbssBANK0)+4)&07Fh
   660  0CFA  01DF               	clrf	((__pbssBANK0)+5)&07Fh
   661  0CFB  01E0               	clrf	((__pbssBANK0)+6)&07Fh
   662  0CFC  01E1               	clrf	((__pbssBANK0)+7)&07Fh
   663  0CFD  01E2               	clrf	((__pbssBANK0)+8)&07Fh
   664                           global btemp
   665                           psect inittext,class=CODE,delta=2
   666                           global init_fetch,btemp
   667                           ;	Called with low address in FSR and high address in W
   668  0BAC                     init_fetch:
   669  0BAC  087E               	movf btemp,w
   670  0BAD  008A               	movwf pclath
   671  0BAE  087F               	movf btemp+1,w
   672  0BAF  0082               	movwf pc
   673                           global init_ram
   674                           ;Called with:
   675                           ;	high address of idata address in btemp 
   676                           ;	low address of idata address in btemp+1 
   677                           ;	low address of data in FSR
   678                           ;	high address + 1 of data in btemp-1
   679  0BB0                     init_ram:
   680  0BB0  23AC  120A  158A   	fcall init_fetch
   681  0BB3  0080               	movwf indf,f
   682  0BB4  0A84               	incf fsr,f
   683  0BB5  0804               	movf fsr,w
   684  0BB6  067D               	xorwf btemp-1,w
   685  0BB7  1903               	btfsc status,2
   686  0BB8  3400               	retlw 0
   687  0BB9  0AFF               	incf btemp+1,f
   688  0BBA  1903               	btfsc status,2
   689  0BBB  0AFE               	incf btemp,f
   690  0BBC  2BB0               	goto init_ram
   691                           ; Initialize objects allocated to BANK3
   692                           psect cinit,class=CODE,delta=2
   693                           global init_ram, __pidataBANK3
   694  0CFE  1783               	bsf	status, 7	;select IRP bank2
   695  0CFF  30CF               	movlw low(__pdataBANK3+63)
   696  0D00  00FD               	movwf btemp-1,f
   697  0D01  300C               	movlw high(__pidataBANK3)
   698  0D02  00FE               	movwf btemp,f
   699  0D03  30B6               	movlw low(__pidataBANK3)
   700  0D04  00FF               	movwf btemp+1,f
   701  0D05  3090               	movlw low(__pdataBANK3)
   702  0D06  0084               	movwf fsr,f
   703  0D07  120A  158A  23B0   	fcall init_ram
              120A  158A         
   704                           ; Initialize objects allocated to BANK2
   705                           psect cinit,class=CODE,delta=2
   706                           global init_ram, __pidataBANK2
   707  0D0C  3055               	movlw low(__pdataBANK2+69)
   708  0D0D  00FD               	movwf btemp-1,f
   709  0D0E  300D               	movlw high(__pidataBANK2)
   710  0D0F  00FE               	movwf btemp,f
   711  0D10  3038               	movlw low(__pidataBANK2)
   712  0D11  00FF               	movwf btemp+1,f
   713  0D12  3010               	movlw low(__pdataBANK2)
   714  0D13  0084               	movwf fsr,f
   715  0D14  120A  158A  23B0   	fcall init_ram
              120A  158A         
   716                           ; Initialize objects allocated to BANK1
   717                           psect cinit,class=CODE,delta=2
   718                           global init_ram, __pidataBANK1
   719  0D19  1383               	bcf	status, 7	;select IRP bank0
   720  0D1A  30D2               	movlw low(__pdataBANK1+50)
   721  0D1B  00FD               	movwf btemp-1,f
   722  0D1C  300C               	movlw high(__pidataBANK1)
   723  0D1D  00FE               	movwf btemp,f
   724  0D1E  3084               	movlw low(__pidataBANK1)
   725  0D1F  00FF               	movwf btemp+1,f
   726  0D20  30A0               	movlw low(__pdataBANK1)
   727  0D21  0084               	movwf fsr,f
   728  0D22  120A  158A  23B0   	fcall init_ram
              120A  158A         
   729                           ; Initialize objects allocated to BANK0
   730                           psect cinit,class=CODE,delta=2
   731                           global init_ram, __pidataBANK0
   732  0D27  306A               	movlw low(__pdataBANK0+7)
   733  0D28  00FD               	movwf btemp-1,f
   734  0D29  300B               	movlw high(__pidataBANK0)
   735  0D2A  00FE               	movwf btemp,f
   736  0D2B  3074               	movlw low(__pidataBANK0)
   737  0D2C  00FF               	movwf btemp+1,f
   738  0D2D  3063               	movlw low(__pdataBANK0)
   739  0D2E  0084               	movwf fsr,f
   740  0D2F  120A  158A  23B0   	fcall init_ram
              120A  158A         
   741                           psect cinit,class=CODE,delta=2
   742                           global end_of_initialization
   743                           
   744                           ;End of C runtime variable initialization code
   745                           
   746  0D34                     end_of_initialization:
   747  0D34  0183               clrf status
   748  0D35  120A  118A  2E31   ljmp _main	;jump to C main() function
   749                           psect	cstackCOMMON,class=COMMON,space=1
   750                           global __pcstackCOMMON
   751  0070                     __pcstackCOMMON:
   752                           	global	?_MainSystemInitialize
   753  0070                     ?_MainSystemInitialize:	; 0 bytes @ 0x0
   754                           	global	??_MainSystemInitialize
   755  0070                     ??_MainSystemInitialize:	; 0 bytes @ 0x0
   756                           	global	?_SendStringSerially
   757  0070                     ?_SendStringSerially:	; 0 bytes @ 0x0
   758                           	global	?_SendByteSerially
   759  0070                     ?_SendByteSerially:	; 0 bytes @ 0x0
   760                           	global	??_SendByteSerially
   761  0070                     ??_SendByteSerially:	; 0 bytes @ 0x0
   762                           	global	?_InitializeSerialCommunication
   763  0070                     ?_InitializeSerialCommunication:	; 0 bytes @ 0x0
   764                           	global	??_InitializeSerialCommunication
   765  0070                     ??_InitializeSerialCommunication:	; 0 bytes @ 0x0
   766                           	global	?_Delay
   767  0070                     ?_Delay:	; 0 bytes @ 0x0
   768                           	global	?_ADCInitialize
   769  0070                     ?_ADCInitialize:	; 0 bytes @ 0x0
   770                           	global	??_ADCInitialize
   771  0070                     ??_ADCInitialize:	; 0 bytes @ 0x0
   772                           	global	?_main
   773  0070                     ?_main:	; 0 bytes @ 0x0
   774                           	global	?___ftge
   775  0070                     ?___ftge:	; 1 bit 
   776                           	global	?___wmul
   777  0070                     ?___wmul:	; 2 bytes @ 0x0
   778                           	global	?___awdiv
   779  0070                     ?___awdiv:	; 2 bytes @ 0x0
   780                           	global	?___awmod
   781  0070                     ?___awmod:	; 2 bytes @ 0x0
   782                           	global	?___ftpack
   783  0070                     ?___ftpack:	; 3 bytes @ 0x0
   784                           	global	?___fttol
   785  0070                     ?___fttol:	; 4 bytes @ 0x0
   786                           	global	SendByteSerially@byte
   787  0070                     SendByteSerially@byte:	; 1 bytes @ 0x0
   788                           	global	Delay@time
   789  0070                     Delay@time:	; 2 bytes @ 0x0
   790                           	global	___wmul@multiplier
   791  0070                     ___wmul@multiplier:	; 2 bytes @ 0x0
   792                           	global	___awdiv@divisor
   793  0070                     ___awdiv@divisor:	; 2 bytes @ 0x0
   794                           	global	___awmod@divisor
   795  0070                     ___awmod@divisor:	; 2 bytes @ 0x0
   796                           	global	___fttol@f1
   797  0070                     ___fttol@f1:	; 3 bytes @ 0x0
   798                           	global	___ftge@ff1
   799  0070                     ___ftge@ff1:	; 3 bytes @ 0x0
   800                           	global	___ftpack@arg
   801  0070                     ___ftpack@arg:	; 3 bytes @ 0x0
   802  0070                     	ds	1
   803                           	global	??_SendStringSerially
   804  0071                     ??_SendStringSerially:	; 0 bytes @ 0x1
   805  0071                     	ds	1
   806                           	global	??_Delay
   807  0072                     ??_Delay:	; 0 bytes @ 0x2
   808                           	global	SendStringSerially@serial_string
   809  0072                     SendStringSerially@serial_string:	; 1 bytes @ 0x2
   810                           	global	___wmul@multiplicand
   811  0072                     ___wmul@multiplicand:	; 2 bytes @ 0x2
   812                           	global	___awdiv@dividend
   813  0072                     ___awdiv@dividend:	; 2 bytes @ 0x2
   814                           	global	___awmod@dividend
   815  0072                     ___awmod@dividend:	; 2 bytes @ 0x2
   816  0072                     	ds	1
   817                           	global	Delay@pause
   818  0073                     Delay@pause:	; 1 bytes @ 0x3
   819                           	global	___ftpack@exp
   820  0073                     ___ftpack@exp:	; 1 bytes @ 0x3
   821                           	global	___ftge@ff2
   822  0073                     ___ftge@ff2:	; 3 bytes @ 0x3
   823  0073                     	ds	1
   824                           	global	??___wmul
   825  0074                     ??___wmul:	; 0 bytes @ 0x4
   826                           	global	??___fttol
   827  0074                     ??___fttol:	; 0 bytes @ 0x4
   828                           	global	??___awdiv
   829  0074                     ??___awdiv:	; 0 bytes @ 0x4
   830                           	global	??___awmod
   831  0074                     ??___awmod:	; 0 bytes @ 0x4
   832                           	global	___ftpack@sign
   833  0074                     ___ftpack@sign:	; 1 bytes @ 0x4
   834                           	global	___wmul@product
   835  0074                     ___wmul@product:	; 2 bytes @ 0x4
   836  0074                     	ds	1
   837                           	global	??___ftpack
   838  0075                     ??___ftpack:	; 0 bytes @ 0x5
   839                           	global	___awdiv@counter
   840  0075                     ___awdiv@counter:	; 1 bytes @ 0x5
   841                           	global	___awmod@counter
   842  0075                     ___awmod@counter:	; 1 bytes @ 0x5
   843  0075                     	ds	1
   844                           	global	??___ftge
   845  0076                     ??___ftge:	; 0 bytes @ 0x6
   846                           	global	___awdiv@sign
   847  0076                     ___awdiv@sign:	; 1 bytes @ 0x6
   848                           	global	___awmod@sign
   849  0076                     ___awmod@sign:	; 1 bytes @ 0x6
   850  0076                     	ds	1
   851                           	global	___awdiv@quotient
   852  0077                     ___awdiv@quotient:	; 2 bytes @ 0x7
   853  0077                     	ds	1
   854                           	global	?___ftdiv
   855  0078                     ?___ftdiv:	; 3 bytes @ 0x8
   856                           	global	?___ftneg
   857  0078                     ?___ftneg:	; 3 bytes @ 0x8
   858                           	global	?___lwtoft
   859  0078                     ?___lwtoft:	; 3 bytes @ 0x8
   860                           	global	___fttol@sign1
   861  0078                     ___fttol@sign1:	; 1 bytes @ 0x8
   862                           	global	___lwtoft@c
   863  0078                     ___lwtoft@c:	; 2 bytes @ 0x8
   864                           	global	___ftdiv@f2
   865  0078                     ___ftdiv@f2:	; 3 bytes @ 0x8
   866                           	global	___ftneg@f1
   867  0078                     ___ftneg@f1:	; 3 bytes @ 0x8
   868  0078                     	ds	1
   869                           	global	?_SendIntegerSerially
   870  0079                     ?_SendIntegerSerially:	; 0 bytes @ 0x9
   871                           	global	SendIntegerSerially@IntegerNumber
   872  0079                     SendIntegerSerially@IntegerNumber:	; 2 bytes @ 0x9
   873                           	global	___fttol@lval
   874  0079                     ___fttol@lval:	; 4 bytes @ 0x9
   875  0079                     	ds	2
   876                           	global	??_SendIntegerSerially
   877  007B                     ??_SendIntegerSerially:	; 0 bytes @ 0xB
   878                           	global	??___ftneg
   879  007B                     ??___ftneg:	; 0 bytes @ 0xB
   880                           	global	??___lwtoft
   881  007B                     ??___lwtoft:	; 0 bytes @ 0xB
   882                           	global	?___awtoft
   883  007B                     ?___awtoft:	; 3 bytes @ 0xB
   884                           	global	___awtoft@c
   885  007B                     ___awtoft@c:	; 2 bytes @ 0xB
   886                           	global	___ftdiv@f1
   887  007B                     ___ftdiv@f1:	; 3 bytes @ 0xB
   888  007B                     	ds	2
   889                           	global	___fttol@exp1
   890  007D                     ___fttol@exp1:	; 1 bytes @ 0xD
   891  007D                     	ds	1
   892                           psect	cstackBANK0,class=BANK0,space=1
   893                           global __pcstackBANK0
   894  0020                     __pcstackBANK0:
   895                           	global	??___ftdiv
   896  0020                     ??___ftdiv:	; 0 bytes @ 0x0
   897                           	global	??___awtoft
   898  0020                     ??___awtoft:	; 0 bytes @ 0x0
   899                           	global	SendIntegerSerially@c
   900  0020                     SendIntegerSerially@c:	; 6 bytes @ 0x0
   901  0020                     	ds	2
   902                           	global	___awtoft@sign
   903  0022                     ___awtoft@sign:	; 1 bytes @ 0x2
   904  0022                     	ds	1
   905                           	global	?___ftadd
   906  0023                     ?___ftadd:	; 3 bytes @ 0x3
   907                           	global	___ftadd@f1
   908  0023                     ___ftadd@f1:	; 3 bytes @ 0x3
   909  0023                     	ds	1
   910                           	global	___ftdiv@cntr
   911  0024                     ___ftdiv@cntr:	; 1 bytes @ 0x4
   912  0024                     	ds	1
   913                           	global	___ftdiv@f3
   914  0025                     ___ftdiv@f3:	; 3 bytes @ 0x5
   915  0025                     	ds	1
   916                           	global	SendIntegerSerially@i
   917  0026                     SendIntegerSerially@i:	; 1 bytes @ 0x6
   918                           	global	___ftadd@f2
   919  0026                     ___ftadd@f2:	; 3 bytes @ 0x6
   920  0026                     	ds	2
   921                           	global	___ftdiv@exp
   922  0028                     ___ftdiv@exp:	; 1 bytes @ 0x8
   923  0028                     	ds	1
   924                           	global	??___ftadd
   925  0029                     ??___ftadd:	; 0 bytes @ 0x9
   926                           	global	___ftdiv@sign
   927  0029                     ___ftdiv@sign:	; 1 bytes @ 0x9
   928  0029                     	ds	4
   929                           	global	___ftadd@sign
   930  002D                     ___ftadd@sign:	; 1 bytes @ 0xD
   931  002D                     	ds	1
   932                           	global	___ftadd@exp2
   933  002E                     ___ftadd@exp2:	; 1 bytes @ 0xE
   934  002E                     	ds	1
   935                           	global	___ftadd@exp1
   936  002F                     ___ftadd@exp1:	; 1 bytes @ 0xF
   937  002F                     	ds	1
   938                           	global	?___ftmul
   939  0030                     ?___ftmul:	; 3 bytes @ 0x10
   940                           	global	___ftmul@f1
   941  0030                     ___ftmul@f1:	; 3 bytes @ 0x10
   942  0030                     	ds	3
   943                           	global	___ftmul@f2
   944  0033                     ___ftmul@f2:	; 3 bytes @ 0x13
   945  0033                     	ds	3
   946                           	global	??___ftmul
   947  0036                     ??___ftmul:	; 0 bytes @ 0x16
   948  0036                     	ds	4
   949                           	global	___ftmul@exp
   950  003A                     ___ftmul@exp:	; 1 bytes @ 0x1A
   951  003A                     	ds	1
   952                           	global	___ftmul@f3_as_product
   953  003B                     ___ftmul@f3_as_product:	; 3 bytes @ 0x1B
   954  003B                     	ds	3
   955                           	global	___ftmul@cntr
   956  003E                     ___ftmul@cntr:	; 1 bytes @ 0x1E
   957  003E                     	ds	1
   958                           	global	___ftmul@sign
   959  003F                     ___ftmul@sign:	; 1 bytes @ 0x1F
   960  003F                     	ds	1
   961                           	global	?_SendFloatSerially
   962  0040                     ?_SendFloatSerially:	; 0 bytes @ 0x20
   963                           	global	?_ADCReadData
   964  0040                     ?_ADCReadData:	; 3 bytes @ 0x20
   965                           	global	SendFloatSerially@FloatNumber
   966  0040                     SendFloatSerially@FloatNumber:	; 3 bytes @ 0x20
   967  0040                     	ds	3
   968                           	global	??_SendFloatSerially
   969  0043                     ??_SendFloatSerially:	; 0 bytes @ 0x23
   970                           	global	??_ADCReadData
   971  0043                     ??_ADCReadData:	; 0 bytes @ 0x23
   972  0043                     	ds	1
   973                           	global	SendFloatSerially@c
   974  0044                     SendFloatSerially@c:	; 4 bytes @ 0x24
   975  0044                     	ds	1
   976                           	global	ADCReadData@f
   977  0045                     ADCReadData@f:	; 3 bytes @ 0x25
   978  0045                     	ds	3
   979                           	global	ADCReadData@x
   980  0048                     ADCReadData@x:	; 2 bytes @ 0x28
   981                           	global	_SendFloatSerially$1278
   982  0048                     _SendFloatSerially$1278:	; 3 bytes @ 0x28
   983  0048                     	ds	2
   984                           	global	ADCReadData@y
   985  004A                     ADCReadData@y:	; 2 bytes @ 0x2A
   986  004A                     	ds	1
   987                           	global	SendFloatSerially@Temp
   988  004B                     SendFloatSerially@Temp:	; 2 bytes @ 0x2B
   989  004B                     	ds	1
   990                           	global	ADCReadData@c
   991  004C                     ADCReadData@c:	; 2 bytes @ 0x2C
   992  004C                     	ds	1
   993                           	global	SendFloatSerially@i
   994  004D                     SendFloatSerially@i:	; 1 bytes @ 0x2D
   995  004D                     	ds	1
   996                           	global	ADCReadData@z
   997  004E                     ADCReadData@z:	; 2 bytes @ 0x2E
   998                           	global	SendFloatSerially@n
   999  004E                     SendFloatSerially@n:	; 2 bytes @ 0x2E
  1000  004E                     	ds	2
  1001                           	global	ADCReadData@ChannelNumber
  1002  0050                     ADCReadData@ChannelNumber:	; 1 bytes @ 0x30
  1003  0050                     	ds	1
  1004                           	global	ADCReadData@p
  1005  0051                     ADCReadData@p:	; 3 bytes @ 0x31
  1006  0051                     	ds	3
  1007                           	global	??_main
  1008  0054                     ??_main:	; 0 bytes @ 0x34
  1009  0054                     	ds	1
  1010                           	global	main@temp1
  1011  0055                     main@temp1:	; 2 bytes @ 0x35
  1012  0055                     	ds	2
  1013                           	global	main@temp
  1014  0057                     main@temp:	; 3 bytes @ 0x37
  1015  0057                     	ds	3
  1016 ;;Data sizes: Strings 159, constant 0, data 189, bss 9, persistent 0 stack 0
  1017 ;;Auto spaces:   Size  Autos    Used
  1018 ;; COMMON          14     14      14
  1019 ;; BANK0           80     58      74
  1020 ;; BANK1           80      0      50
  1021 ;; BANK3           96      0      63
  1022 ;; BANK2           96      0      69
  1023                           
  1024 ;;
  1025 ;; Pointer list with targets:
  1026                           
  1027 ;; ?___ftpack	float  size(1) Largest target is 0
  1028 ;;
  1029 ;; ?___awtoft	float  size(1) Largest target is 0
  1030 ;;
  1031 ;; ?___ftadd	float  size(1) Largest target is 0
  1032 ;;
  1033 ;; ?___ftneg	float  size(1) Largest target is 0
  1034 ;;
  1035 ;; ?___awmod	int  size(1) Largest target is 0
  1036 ;;
  1037 ;; ?___awdiv	int  size(1) Largest target is 0
  1038 ;;
  1039 ;; ?___fttol	long  size(1) Largest target is 0
  1040 ;;
  1041 ;; ?_ADCReadData	float  size(1) Largest target is 0
  1042 ;;
  1043 ;; ?___ftmul	float  size(1) Largest target is 0
  1044 ;;
  1045 ;; ?___ftdiv	float  size(1) Largest target is 0
  1046 ;;
  1047 ;; ?___lwtoft	float  size(1) Largest target is 0
  1048 ;;
  1049 ;; ?___wmul	unsigned int  size(1) Largest target is 0
  1050 ;;
  1051 ;; SendStringSerially@serial_string	PTR const unsigned char  size(1) Largest target is 21
  1052 ;;		 -> STR_12(CODE[10]), STR_11(CODE[14]), STR_10(CODE[7]), STR_9(CODE[11]), 
  1053 ;;		 -> STR_8(CODE[19]), STR_7(CODE[21]), STR_6(CODE[9]), STR_5(CODE[21]), 
  1054 ;;		 -> STR_4(CODE[16]), STR_3(CODE[18]), STR_2(CODE[9]), STR_1(CODE[14]), 
  1055 ;;
  1056                           
  1057                           
  1058 ;;
  1059 ;; Critical Paths under _main in COMMON
  1060 ;;
  1061 ;;   _main->___ftdiv
  1062 ;;   _main->___fttol
  1063 ;;   _SendFloatSerially->___fttol
  1064 ;;   _SendFloatSerially->___awtoft
  1065 ;;   _ADCReadData->___ftdiv
  1066 ;;   ___lwtoft->___ftpack
  1067 ;;   ___awtoft->___ftneg
  1068 ;;   ___ftmul->___awtoft
  1069 ;;   ___ftdiv->___ftpack
  1070 ;;   ___ftadd->___awtoft
  1071 ;;   _SendIntegerSerially->___awdiv
  1072 ;;   _SendStringSerially->_SendByteSerially
  1073 ;;   ___ftneg->___ftpack
  1074 ;;
  1075 ;; Critical Paths under _main in BANK0
  1076 ;;
  1077 ;;   _main->_ADCReadData
  1078 ;;   _SendFloatSerially->___ftmul
  1079 ;;   _ADCReadData->___ftmul
  1080 ;;   ___ftmul->___ftadd
  1081 ;;   ___ftadd->___awtoft
  1082 ;;
  1083 ;; Critical Paths under _main in BANK1
  1084 ;;
  1085 ;;   None.
  1086 ;;
  1087 ;; Critical Paths under _main in BANK3
  1088 ;;
  1089 ;;   None.
  1090 ;;
  1091 ;; Critical Paths under _main in BANK2
  1092 ;;
  1093 ;;   None.
  1094                           
  1095 ;;
  1096 ;;Main: autosize = 0, tempsize = 1, incstack = 0, save=0
  1097 ;;
  1098                           
  1099 ;;
  1100 ;;Call Graph Tables:
  1101 ;;
  1102 ;; ---------------------------------------------------------------------------------
  1103 ;; (Depth) Function   	        Calls       Base Space   Used Autos Params    Refs
  1104 ;; ---------------------------------------------------------------------------------
  1105 ;; (0) _main                                                 6     6      0    8498
  1106 ;;                                             52 BANK0      6     6      0
  1107 ;;               _MainSystemInitialize
  1108 ;;                 _SendStringSerially
  1109 ;;                        _ADCReadData
  1110 ;;                            ___ftdiv
  1111 ;;                            ___ftmul
  1112 ;;                  _SendFloatSerially
  1113 ;;                              _Delay
  1114 ;;                             ___ftge
  1115 ;;                            ___fttol
  1116 ;;                _SendIntegerSerially
  1117 ;;                   _SendByteSerially
  1118 ;; ---------------------------------------------------------------------------------
  1119 ;; (1) _SendFloatSerially                                   16    13      3    4255
  1120 ;;                                             32 BANK0     16    13      3
  1121 ;;                             ___ftge
  1122 ;;                   _SendByteSerially
  1123 ;;                            ___ftneg
  1124 ;;                            ___fttol
  1125 ;;                _SendIntegerSerially
  1126 ;;                           ___awtoft
  1127 ;;                            ___ftadd
  1128 ;;                            ___ftmul
  1129 ;;                            ___awmod
  1130 ;;                            ___awdiv
  1131 ;; ---------------------------------------------------------------------------------
  1132 ;; (1) _ADCReadData                                         21    18      3    1577
  1133 ;;                                             32 BANK0     20    17      3
  1134 ;;                              _Delay
  1135 ;;                             ___wmul
  1136 ;;                           ___lwtoft
  1137 ;;                            ___ftmul
  1138 ;;                            ___ftdiv
  1139 ;; ---------------------------------------------------------------------------------
  1140 ;; (2) ___lwtoft                                             4     1      3     231
  1141 ;;                                              8 COMMON     4     1      3
  1142 ;;                           ___ftpack
  1143 ;; ---------------------------------------------------------------------------------
  1144 ;; (2) ___awtoft                                             6     3      3     300
  1145 ;;                                             11 COMMON     3     0      3
  1146 ;;                                              0 BANK0      3     3      0
  1147 ;;                           ___ftpack
  1148 ;;                            ___ftneg (ARG)
  1149 ;; ---------------------------------------------------------------------------------
  1150 ;; (2) ___ftmul                                             16    10      6     535
  1151 ;;                                             16 BANK0     16    10      6
  1152 ;;                           ___ftpack
  1153 ;;                            ___ftadd (ARG)
  1154 ;;                            ___ftneg (ARG)
  1155 ;;                           ___awtoft (ARG)
  1156 ;; ---------------------------------------------------------------------------------
  1157 ;; (1) ___ftdiv                                             16    10      6     489
  1158 ;;                                              8 COMMON     6     0      6
  1159 ;;                                              0 BANK0     10    10      0
  1160 ;;                           ___ftpack
  1161 ;; ---------------------------------------------------------------------------------
  1162 ;; (2) ___ftadd                                             13     7      6    1049
  1163 ;;                                              3 BANK0     13     7      6
  1164 ;;                           ___ftpack
  1165 ;;                            ___ftneg (ARG)
  1166 ;;                           ___awtoft (ARG)
  1167 ;; ---------------------------------------------------------------------------------
  1168 ;; (1) _SendIntegerSerially                                 10     8      2     867
  1169 ;;                                              9 COMMON     3     1      2
  1170 ;;                                              0 BANK0      7     7      0
  1171 ;;                   _SendByteSerially
  1172 ;;                            ___awmod
  1173 ;;                            ___awdiv
  1174 ;; ---------------------------------------------------------------------------------
  1175 ;; (1) _SendStringSerially                                   2     2      0      67
  1176 ;;                                              1 COMMON     2     2      0
  1177 ;;                   _SendByteSerially
  1178 ;; ---------------------------------------------------------------------------------
  1179 ;; (1) _MainSystemInitialize                                 0     0      0       0
  1180 ;;                      _ADCInitialize
  1181 ;;      _InitializeSerialCommunication
  1182 ;; ---------------------------------------------------------------------------------
  1183 ;; (2) ___awmod                                              7     3      4     296
  1184 ;;                                              0 COMMON     7     3      4
  1185 ;; ---------------------------------------------------------------------------------
  1186 ;; (1) ___ftge                                              12     6      6     136
  1187 ;;                                              0 COMMON    12     6      6
  1188 ;; ---------------------------------------------------------------------------------
  1189 ;; (2) ___ftneg                                              3     0      3      45
  1190 ;;                                              8 COMMON     3     0      3
  1191 ;;                           ___ftpack (ARG)
  1192 ;; ---------------------------------------------------------------------------------
  1193 ;; (2) ___awdiv                                              9     5      4     300
  1194 ;;                                              0 COMMON     9     5      4
  1195 ;; ---------------------------------------------------------------------------------
  1196 ;; (1) ___fttol                                             14    10      4     252
  1197 ;;                                              0 COMMON    14    10      4
  1198 ;; ---------------------------------------------------------------------------------
  1199 ;; (3) ___ftpack                                             8     3      5     209
  1200 ;;                                              0 COMMON     8     3      5
  1201 ;; ---------------------------------------------------------------------------------
  1202 ;; (2) ___wmul                                               6     2      4      92
  1203 ;;                                              0 COMMON     6     2      4
  1204 ;; ---------------------------------------------------------------------------------
  1205 ;; (2) _InitializeSerialCommunication                        0     0      0       0
  1206 ;; ---------------------------------------------------------------------------------
  1207 ;; (1) _SendByteSerially                                     1     1      0      22
  1208 ;;                                              0 COMMON     1     1      0
  1209 ;; ---------------------------------------------------------------------------------
  1210 ;; (2) _ADCInitialize                                        0     0      0       0
  1211 ;; ---------------------------------------------------------------------------------
  1212 ;; (1) _Delay                                                4     2      2      46
  1213 ;;                                              0 COMMON     4     2      2
  1214 ;; ---------------------------------------------------------------------------------
  1215 ;; Estimated maximum stack depth 3
  1216 ;; ---------------------------------------------------------------------------------
  1217                           
  1218 ;; Call Graph Graphs:
  1219                           
  1220 ;; _main (ROOT)
  1221 ;;   _MainSystemInitialize
  1222 ;;     _ADCInitialize
  1223 ;;     _InitializeSerialCommunication
  1224 ;;   _SendStringSerially
  1225 ;;     _SendByteSerially
  1226 ;;   _ADCReadData
  1227 ;;     _Delay
  1228 ;;     ___wmul
  1229 ;;     ___lwtoft
  1230 ;;       ___ftpack
  1231 ;;     ___ftmul
  1232 ;;       ___ftpack
  1233 ;;       ___ftadd (ARG)
  1234 ;;         ___ftpack
  1235 ;;         ___ftneg (ARG)
  1236 ;;           ___ftpack (ARG)
  1237 ;;         ___awtoft (ARG)
  1238 ;;           ___ftpack
  1239 ;;           ___ftneg (ARG)
  1240 ;;             ___ftpack (ARG)
  1241 ;;       ___ftneg (ARG)
  1242 ;;         ___ftpack (ARG)
  1243 ;;       ___awtoft (ARG)
  1244 ;;         ___ftpack
  1245 ;;         ___ftneg (ARG)
  1246 ;;           ___ftpack (ARG)
  1247 ;;     ___ftdiv
  1248 ;;       ___ftpack
  1249 ;;   ___ftdiv
  1250 ;;     ___ftpack
  1251 ;;   ___ftmul
  1252 ;;     ___ftpack
  1253 ;;     ___ftadd (ARG)
  1254 ;;       ___ftpack
  1255 ;;       ___ftneg (ARG)
  1256 ;;         ___ftpack (ARG)
  1257 ;;       ___awtoft (ARG)
  1258 ;;         ___ftpack
  1259 ;;         ___ftneg (ARG)
  1260 ;;           ___ftpack (ARG)
  1261 ;;     ___ftneg (ARG)
  1262 ;;       ___ftpack (ARG)
  1263 ;;     ___awtoft (ARG)
  1264 ;;       ___ftpack
  1265 ;;       ___ftneg (ARG)
  1266 ;;         ___ftpack (ARG)
  1267 ;;   _SendFloatSerially
  1268 ;;     ___ftge
  1269 ;;     _SendByteSerially
  1270 ;;     ___ftneg
  1271 ;;       ___ftpack (ARG)
  1272 ;;     ___fttol
  1273 ;;     _SendIntegerSerially
  1274 ;;       _SendByteSerially
  1275 ;;       ___awmod
  1276 ;;       ___awdiv
  1277 ;;     ___awtoft
  1278 ;;       ___ftpack
  1279 ;;       ___ftneg (ARG)
  1280 ;;         ___ftpack (ARG)
  1281 ;;     ___ftadd
  1282 ;;       ___ftpack
  1283 ;;       ___ftneg (ARG)
  1284 ;;         ___ftpack (ARG)
  1285 ;;       ___awtoft (ARG)
  1286 ;;         ___ftpack
  1287 ;;         ___ftneg (ARG)
  1288 ;;           ___ftpack (ARG)
  1289 ;;     ___ftmul
  1290 ;;       ___ftpack
  1291 ;;       ___ftadd (ARG)
  1292 ;;         ___ftpack
  1293 ;;         ___ftneg (ARG)
  1294 ;;           ___ftpack (ARG)
  1295 ;;         ___awtoft (ARG)
  1296 ;;           ___ftpack
  1297 ;;           ___ftneg (ARG)
  1298 ;;             ___ftpack (ARG)
  1299 ;;       ___ftneg (ARG)
  1300 ;;         ___ftpack (ARG)
  1301 ;;       ___awtoft (ARG)
  1302 ;;         ___ftpack
  1303 ;;         ___ftneg (ARG)
  1304 ;;           ___ftpack (ARG)
  1305 ;;     ___awmod
  1306 ;;     ___awdiv
  1307 ;;   _Delay
  1308 ;;   ___ftge
  1309 ;;   ___fttol
  1310 ;;   _SendIntegerSerially
  1311 ;;     _SendByteSerially
  1312 ;;     ___awmod
  1313 ;;     ___awdiv
  1314 ;;   _SendByteSerially
  1315 ;;
  1316                           
  1317 ;; Address spaces:
  1318                           
  1319 ;;Name               Size   Autos  Total    Cost      Usage
  1320 ;;BANK3               60      0      3F       9       65.6%
  1321 ;;BITBANK3            60      0       0       8        0.0%
  1322 ;;SFR3                 0      0       0       4        0.0%
  1323 ;;BITSFR3              0      0       0       4        0.0%
  1324 ;;BANK2               60      0      45      11       71.9%
  1325 ;;BITBANK2            60      0       0      10        0.0%
  1326 ;;SFR2                 0      0       0       5        0.0%
  1327 ;;BITSFR2              0      0       0       5        0.0%
  1328 ;;SFR1                 0      0       0       2        0.0%
  1329 ;;BITSFR1              0      0       0       2        0.0%
  1330 ;;BANK1               50      0      32       7       62.5%
  1331 ;;BITBANK1            50      0       0       6        0.0%
  1332 ;;CODE                 0      0       0       0        0.0%
  1333 ;;DATA                 0      0     111      12        0.0%
  1334 ;;ABS                  0      0     10E       3        0.0%
  1335 ;;NULL                 0      0       0       0        0.0%
  1336 ;;STACK                0      0       3       2        0.0%
  1337 ;;BANK0               50     3A      4A       5       92.5%
  1338 ;;BITBANK0            50      0       0       4        0.0%
  1339 ;;SFR0                 0      0       0       1        0.0%
  1340 ;;BITSFR0              0      0       0       1        0.0%
  1341 ;;COMMON               E      E       E       1      100.0%
  1342 ;;BITCOMMON            E      0       0       0        0.0%
  1343 ;;EEDATA             100      0       0       0        0.0%
  1344                           
  1345                           	global	_main
  1346                           psect	maintext,global,class=CODE,delta=2
  1347                           global __pmaintext
  1348  0631                     __pmaintext:
  1349                           
  1350 ;; *************** function _main *****************
  1351 ;; Defined at:
  1352 ;;		line 6 in file "C:\Users\X4ROY\Desktop\URE\LCD Interfacing - Copy\main1.c"
  1353 ;; Parameters:    Size  Location     Type
  1354 ;;		None
  1355 ;; Auto vars:     Size  Location     Type
  1356 ;;  temp            3   55[BANK0 ] float 
  1357 ;;  temp1           2   53[BANK0 ] unsigned int 
  1358 ;; Return value:  Size  Location     Type
  1359 ;;		None               void
  1360 ;; Registers used:
  1361 ;;		wreg, fsr0l, fsr0h, status,2, status,0, btemp+1, pclath, cstack
  1362 ;; Tracked objects:
  1363 ;;		On entry : 17F/0
  1364 ;;		On exit  : 0/0
  1365 ;;		Unchanged: 0/0
  1366 ;; Data sizes:     COMMON   BANK0   BANK1   BANK3   BANK2
  1367 ;;      Params:         0       0       0       0       0
  1368 ;;      Locals:         0       5       0       0       0
  1369 ;;      Temps:          0       1       0       0       0
  1370 ;;      Totals:         0       6       0       0       0
  1371 ;;Total ram usage:        6 bytes
  1372 ;; Hardware stack levels required when called:    3
  1373 ;; This function calls:
  1374 ;;		_MainSystemInitialize
  1375 ;;		_SendStringSerially
  1376 ;;		_ADCReadData
  1377 ;;		___ftdiv
  1378 ;;		___ftmul
  1379 ;;		_SendFloatSerially
  1380 ;;		_Delay
  1381 ;;		___ftge
  1382 ;;		___fttol
  1383 ;;		_SendIntegerSerially
  1384 ;;		_SendByteSerially
  1385 ;; This function is called by:
  1386 ;;		Startup code after reset
  1387 ;; This function uses a non-reentrant model
  1388 ;;
  1389                           psect	maintext
  1390                           	file	"C:\Users\X4ROY\Desktop\URE\LCD Interfacing - Copy\main1.c"
  1391                           	line	6
  1392                           	global	__size_of_main
  1393  01CF                     	__size_of_main	equ	__end_of_main-_main
  1394                           	
  1395  0631                     _main:	
  1396                           	opt	stack 5
  1397                           ; Regs used in _main: [wreg-fsr0h+status,2+status,0+btemp+1+pclath+cstack]
  1398                           	line	10
  1399                           	
  1400  0631                     l4358:	
  1401                           ;main1.c: 8: float temp;
  1402                           ;main1.c: 9: unsigned int temp1;
  1403                           ;main1.c: 10: TRISE |= 0x07;
  1404  0631  3007               	movlw	(07h)
  1405  0632  1283               	bcf	status, 5	;RP0=0, select bank0
  1406  0633  1303               	bcf	status, 6	;RP1=0, select bank0
  1407  0634  00D4               	movwf	(??_main+0)+0
  1408  0635  0854               	movf	(??_main+0)+0,w
  1409  0636  1683               	bsf	status, 5	;RP0=1, select bank1
  1410  0637  1303               	bcf	status, 6	;RP1=0, select bank1
  1411  0638  0489               	iorwf	(137)^080h,f	;volatile
  1412                           	line	11
  1413                           ;main1.c: 11: PORTE |= 0x07;
  1414  0639  3007               	movlw	(07h)
  1415  063A  1283               	bcf	status, 5	;RP0=0, select bank0
  1416  063B  1303               	bcf	status, 6	;RP1=0, select bank0
  1417  063C  00D4               	movwf	(??_main+0)+0
  1418  063D  0854               	movf	(??_main+0)+0,w
  1419  063E  0489               	iorwf	(9),f	;volatile
  1420                           	line	12
  1421                           	
  1422  063F                     l4360:	
  1423                           ;main1.c: 12: MainSystemInitialize();
  1424  063F  120A  158A  237B   	fcall	_MainSystemInitialize
              120A  118A         
  1425  0644  2E45               	goto	l4362
  1426                           	line	15
  1427                           ;main1.c: 14: for(;;)
  1428                           	
  1429  0645                     l1173:	
  1430                           	line	17
  1431                           	
  1432  0645                     l4362:	
  1433                           ;main1.c: 15: {
  1434                           ;main1.c: 17: SendStringSerially("TEMPERATURE :");
  1435  0645  306E               	movlw	((STR_1-__stringbase))&0ffh
  1436  0646  120A  158A  2409   	fcall	_SendStringSerially
              120A  118A         
  1437                           	line	18
  1438                           	
  1439  064B                     l4364:	
  1440                           ;main1.c: 18: temp = ADCReadData(0x10);
  1441  064B  3010               	movlw	(010h)
  1442  064C  120A  118A  2116   	fcall	_ADCReadData
              120A  118A         
  1443  0651  1283               	bcf	status, 5	;RP0=0, select bank0
  1444  0652  1303               	bcf	status, 6	;RP1=0, select bank0
  1445  0653  0840               	movf	(0+(?_ADCReadData)),w
  1446  0654  00D7               	movwf	(main@temp)
  1447  0655  0841               	movf	(1+(?_ADCReadData)),w
  1448  0656  00D8               	movwf	(main@temp+1)
  1449  0657  0842               	movf	(2+(?_ADCReadData)),w
  1450  0658  00D9               	movwf	(main@temp+2)
  1451                           	line	19
  1452                           	
  1453  0659                     l4366:	
  1454                           ;main1.c: 19: temp=(temp/2)*100;
  1455  0659  3000               	movlw	0x0
  1456  065A  00F8               	movwf	(?___ftdiv)
  1457  065B  3000               	movlw	0x0
  1458  065C  00F9               	movwf	(?___ftdiv+1)
  1459  065D  3040               	movlw	0x40
  1460  065E  00FA               	movwf	(?___ftdiv+2)
  1461  065F  0857               	movf	(main@temp),w
  1462  0660  00FB               	movwf	0+(?___ftdiv)+03h
  1463  0661  0858               	movf	(main@temp+1),w
  1464  0662  00FC               	movwf	1+(?___ftdiv)+03h
  1465  0663  0859               	movf	(main@temp+2),w
  1466  0664  00FD               	movwf	2+(?___ftdiv)+03h
  1467  0665  120A  118A  21C3   	fcall	___ftdiv
              120A  118A         
  1468  066A  0878               	movf	(0+(?___ftdiv)),w
  1469  066B  1283               	bcf	status, 5	;RP0=0, select bank0
  1470  066C  1303               	bcf	status, 6	;RP1=0, select bank0
  1471  066D  00D7               	movwf	(main@temp)
  1472  066E  0879               	movf	(1+(?___ftdiv)),w
  1473  066F  00D8               	movwf	(main@temp+1)
  1474  0670  087A               	movf	(2+(?___ftdiv)),w
  1475  0671  00D9               	movwf	(main@temp+2)
  1476                           	
  1477  0672                     l4368:	
  1478  0672  3000               	movlw	0x0
  1479  0673  00B0               	movwf	(?___ftmul)
  1480  0674  30C8               	movlw	0xc8
  1481  0675  00B1               	movwf	(?___ftmul+1)
  1482  0676  3042               	movlw	0x42
  1483  0677  00B2               	movwf	(?___ftmul+2)
  1484  0678  0857               	movf	(main@temp),w
  1485  0679  00B3               	movwf	0+(?___ftmul)+03h
  1486  067A  0858               	movf	(main@temp+1),w
  1487  067B  00B4               	movwf	1+(?___ftmul)+03h
  1488  067C  0859               	movf	(main@temp+2),w
  1489  067D  00B5               	movwf	2+(?___ftmul)+03h
  1490  067E  120A  118A  2289   	fcall	___ftmul
              120A  118A         
  1491  0683  1283               	bcf	status, 5	;RP0=0, select bank0
  1492  0684  1303               	bcf	status, 6	;RP1=0, select bank0
  1493  0685  0830               	movf	(0+(?___ftmul)),w
  1494  0686  00D7               	movwf	(main@temp)
  1495  0687  0831               	movf	(1+(?___ftmul)),w
  1496  0688  00D8               	movwf	(main@temp+1)
  1497  0689  0832               	movf	(2+(?___ftmul)),w
  1498  068A  00D9               	movwf	(main@temp+2)
  1499                           	line	20
  1500                           	
  1501  068B                     l4370:	
  1502                           ;main1.c: 20: SendFloatSerially(temp);
  1503  068B  0857               	movf	(main@temp),w
  1504  068C  00C0               	movwf	(?_SendFloatSerially)
  1505  068D  0858               	movf	(main@temp+1),w
  1506  068E  00C1               	movwf	(?_SendFloatSerially+1)
  1507  068F  0859               	movf	(main@temp+2),w
  1508  0690  00C2               	movwf	(?_SendFloatSerially+2)
  1509  0691  120A  118A  24C1   	fcall	_SendFloatSerially
              120A  118A         
  1510                           	line	21
  1511                           	
  1512  0696                     l4372:	
  1513                           ;main1.c: 21: SendStringSerially("  C     ");
  1514  0696  3087               	movlw	((STR_2-__stringbase))&0ffh
  1515  0697  120A  158A  2409   	fcall	_SendStringSerially
              120A  118A         
  1516                           	line	23
  1517                           	
  1518  069C                     l4374:	
  1519                           ;main1.c: 23: Delay(200);
  1520  069C  30C8               	movlw	low(0C8h)
  1521  069D  00F0               	movwf	(?_Delay)
  1522  069E  3000               	movlw	high(0C8h)
  1523  069F  00F1               	movwf	((?_Delay))+1
  1524  06A0  120A  158A  23EA   	fcall	_Delay
              120A  118A         
  1525                           	line	25
  1526                           	
  1527  06A5                     l4376:	
  1528                           ;main1.c: 25: temp = ADCReadData(0x20);
  1529  06A5  3020               	movlw	(020h)
  1530  06A6  120A  118A  2116   	fcall	_ADCReadData
              120A  118A         
  1531  06AB  1283               	bcf	status, 5	;RP0=0, select bank0
  1532  06AC  1303               	bcf	status, 6	;RP1=0, select bank0
  1533  06AD  0840               	movf	(0+(?_ADCReadData)),w
  1534  06AE  00D7               	movwf	(main@temp)
  1535  06AF  0841               	movf	(1+(?_ADCReadData)),w
  1536  06B0  00D8               	movwf	(main@temp+1)
  1537  06B1  0842               	movf	(2+(?_ADCReadData)),w
  1538  06B2  00D9               	movwf	(main@temp+2)
  1539                           	line	26
  1540                           	
  1541  06B3                     l4378:	
  1542                           ;main1.c: 26: if(temp>2.8)
  1543  06B3  3033               	movlw	0x33
  1544  06B4  00F0               	movwf	(?___ftge)
  1545  06B5  3033               	movlw	0x33
  1546  06B6  00F1               	movwf	(?___ftge+1)
  1547  06B7  3040               	movlw	0x40
  1548  06B8  00F2               	movwf	(?___ftge+2)
  1549  06B9  0857               	movf	(main@temp),w
  1550  06BA  00F3               	movwf	0+(?___ftge)+03h
  1551  06BB  0858               	movf	(main@temp+1),w
  1552  06BC  00F4               	movwf	1+(?___ftge)+03h
  1553  06BD  0859               	movf	(main@temp+2),w
  1554  06BE  00F5               	movwf	2+(?___ftge)+03h
  1555  06BF  120A  118A  20AA   	fcall	___ftge
              120A  118A         
  1556  06C4  1803               	btfsc	status,0
  1557  06C5  2EC7               	goto	u3621
  1558  06C6  2EC8               	goto	u3620
  1559  06C7                     u3621:
  1560  06C7  2ECF               	goto	l4382
  1561  06C8                     u3620:
  1562                           	line	27
  1563                           	
  1564  06C8                     l4380:	
  1565                           ;main1.c: 27: SendStringSerially("GAS DETECTED     ");
  1566  06C8  303E               	movlw	((STR_3-__stringbase))&0ffh
  1567  06C9  120A  158A  2409   	fcall	_SendStringSerially
              120A  118A         
  1568  06CE  2EEE               	goto	l4386
  1569                           	line	28
  1570                           	
  1571  06CF                     l1174:	
  1572                           	
  1573  06CF                     l4382:	
  1574                           ;main1.c: 28: else if(temp<2.8)
  1575  06CF  1283               	bcf	status, 5	;RP0=0, select bank0
  1576  06D0  1303               	bcf	status, 6	;RP1=0, select bank0
  1577  06D1  0857               	movf	(main@temp),w
  1578  06D2  00F0               	movwf	(?___ftge)
  1579  06D3  0858               	movf	(main@temp+1),w
  1580  06D4  00F1               	movwf	(?___ftge+1)
  1581  06D5  0859               	movf	(main@temp+2),w
  1582  06D6  00F2               	movwf	(?___ftge+2)
  1583  06D7  3033               	movlw	0x33
  1584  06D8  00F3               	movwf	0+(?___ftge)+03h
  1585  06D9  3033               	movlw	0x33
  1586  06DA  00F4               	movwf	1+(?___ftge)+03h
  1587  06DB  3040               	movlw	0x40
  1588  06DC  00F5               	movwf	2+(?___ftge)+03h
  1589  06DD  120A  118A  20AA   	fcall	___ftge
              120A  118A         
  1590  06E2  1803               	btfsc	status,0
  1591  06E3  2EE5               	goto	u3631
  1592  06E4  2EE6               	goto	u3630
  1593  06E5                     u3631:
  1594  06E5  2EEE               	goto	l4386
  1595  06E6                     u3630:
  1596                           	line	29
  1597                           	
  1598  06E6                     l4384:	
  1599                           ;main1.c: 29: SendStringSerially("GAS ABSENT     ");
  1600  06E6  3050               	movlw	((STR_4-__stringbase))&0ffh
  1601  06E7  120A  158A  2409   	fcall	_SendStringSerially
              120A  118A         
  1602  06EC  2EEE               	goto	l4386
  1603                           	
  1604  06ED                     l1176:	
  1605  06ED  2EEE               	goto	l4386
  1606                           	line	31
  1607                           	
  1608  06EE                     l1175:	
  1609                           	
  1610  06EE                     l4386:	
  1611                           ;main1.c: 31: Delay(200);
  1612  06EE  30C8               	movlw	low(0C8h)
  1613  06EF  00F0               	movwf	(?_Delay)
  1614  06F0  3000               	movlw	high(0C8h)
  1615  06F1  00F1               	movwf	((?_Delay))+1
  1616  06F2  120A  158A  23EA   	fcall	_Delay
              120A  118A         
  1617                           	line	33
  1618                           	
  1619  06F7                     l4388:	
  1620                           ;main1.c: 33: SendStringSerially("LUMINOUS INTENSITY :");
  1621  06F7  3016               	movlw	((STR_5-__stringbase))&0ffh
  1622  06F8  120A  158A  2409   	fcall	_SendStringSerially
              120A  118A         
  1623                           	line	34
  1624                           ;main1.c: 34: temp = ADCReadData(0x08);
  1625  06FD  3008               	movlw	(08h)
  1626  06FE  120A  118A  2116   	fcall	_ADCReadData
              120A  118A         
  1627  0703  1283               	bcf	status, 5	;RP0=0, select bank0
  1628  0704  1303               	bcf	status, 6	;RP1=0, select bank0
  1629  0705  0840               	movf	(0+(?_ADCReadData)),w
  1630  0706  00D7               	movwf	(main@temp)
  1631  0707  0841               	movf	(1+(?_ADCReadData)),w
  1632  0708  00D8               	movwf	(main@temp+1)
  1633  0709  0842               	movf	(2+(?_ADCReadData)),w
  1634  070A  00D9               	movwf	(main@temp+2)
  1635                           	line	35
  1636                           ;main1.c: 35: temp*=2;
  1637  070B  3000               	movlw	0x0
  1638  070C  00B0               	movwf	(?___ftmul)
  1639  070D  3000               	movlw	0x0
  1640  070E  00B1               	movwf	(?___ftmul+1)
  1641  070F  3040               	movlw	0x40
  1642  0710  00B2               	movwf	(?___ftmul+2)
  1643  0711  0857               	movf	(main@temp),w
  1644  0712  00B3               	movwf	0+(?___ftmul)+03h
  1645  0713  0858               	movf	(main@temp+1),w
  1646  0714  00B4               	movwf	1+(?___ftmul)+03h
  1647  0715  0859               	movf	(main@temp+2),w
  1648  0716  00B5               	movwf	2+(?___ftmul)+03h
  1649  0717  120A  118A  2289   	fcall	___ftmul
              120A  118A         
  1650  071C  1283               	bcf	status, 5	;RP0=0, select bank0
  1651  071D  1303               	bcf	status, 6	;RP1=0, select bank0
  1652  071E  0830               	movf	(0+(?___ftmul)),w
  1653  071F  00D7               	movwf	(main@temp)
  1654  0720  0831               	movf	(1+(?___ftmul)),w
  1655  0721  00D8               	movwf	(main@temp+1)
  1656  0722  0832               	movf	(2+(?___ftmul)),w
  1657  0723  00D9               	movwf	(main@temp+2)
  1658                           	line	36
  1659                           ;main1.c: 36: temp1=temp;
  1660  0724  0857               	movf	(main@temp),w
  1661  0725  00F0               	movwf	(?___fttol)
  1662  0726  0858               	movf	(main@temp+1),w
  1663  0727  00F1               	movwf	(?___fttol+1)
  1664  0728  0859               	movf	(main@temp+2),w
  1665  0729  00F2               	movwf	(?___fttol+2)
  1666  072A  120A  158A  275C   	fcall	___fttol
              120A  118A         
  1667  072F  0871               	movf	1+(((0+(?___fttol)))),w
  1668  0730  1283               	bcf	status, 5	;RP0=0, select bank0
  1669  0731  1303               	bcf	status, 6	;RP1=0, select bank0
  1670  0732  01D6               	clrf	(main@temp1+1)
  1671  0733  07D6               	addwf	(main@temp1+1)
  1672  0734  0870               	movf	0+(((0+(?___fttol)))),w
  1673  0735  01D5               	clrf	(main@temp1)
  1674  0736  07D5               	addwf	(main@temp1)
  1675                           
  1676                           	line	37
  1677                           	
  1678  0737                     l4390:	
  1679                           ;main1.c: 37: SendIntegerSerially(temp1);
  1680  0737  0856               	movf	(main@temp1+1),w
  1681  0738  01FA               	clrf	(?_SendIntegerSerially+1)
  1682  0739  07FA               	addwf	(?_SendIntegerSerially+1)
  1683  073A  0855               	movf	(main@temp1),w
  1684  073B  01F9               	clrf	(?_SendIntegerSerially)
  1685  073C  07F9               	addwf	(?_SendIntegerSerially)
  1686                           
  1687  073D  120A  158A  26DB   	fcall	_SendIntegerSerially
              120A  118A         
  1688                           	line	38
  1689                           	
  1690  0742                     l4392:	
  1691                           ;main1.c: 38: SendStringSerially(" Cd     ");
  1692  0742  3090               	movlw	((STR_6-__stringbase))&0ffh
  1693  0743  120A  158A  2409   	fcall	_SendStringSerially
              120A  118A         
  1694                           	line	40
  1695                           	
  1696  0748                     l4394:	
  1697                           ;main1.c: 40: Delay(200);
  1698  0748  30C8               	movlw	low(0C8h)
  1699  0749  00F0               	movwf	(?_Delay)
  1700  074A  3000               	movlw	high(0C8h)
  1701  074B  00F1               	movwf	((?_Delay))+1
  1702  074C  120A  158A  23EA   	fcall	_Delay
              120A  118A         
  1703                           	line	42
  1704                           	
  1705  0751                     l4396:	
  1706                           ;main1.c: 42: if(RE0 == 1)
  1707  0751  1283               	bcf	status, 5	;RP0=0, select bank0
  1708  0752  1303               	bcf	status, 6	;RP1=0, select bank0
  1709  0753  1C09               	btfss	(72/8),(72)&7
  1710  0754  2F56               	goto	u3641
  1711  0755  2F57               	goto	u3640
  1712  0756                     u3641:
  1713  0756  2F5E               	goto	l1177
  1714  0757                     u3640:
  1715                           	line	44
  1716                           	
  1717  0757                     l4398:	
  1718                           ;main1.c: 43: {
  1719                           ;main1.c: 44: SendStringSerially("PROXIMITY ALERT     ");
  1720  0757  3001               	movlw	((STR_7-__stringbase))&0ffh
  1721  0758  120A  158A  2409   	fcall	_SendStringSerially
              120A  118A         
  1722                           	line	45
  1723                           ;main1.c: 45: }
  1724  075D  2F6A               	goto	l4402
  1725                           	line	46
  1726                           	
  1727  075E                     l1177:	
  1728                           ;main1.c: 46: else if(RE0 == 0)
  1729  075E  1809               	btfsc	(72/8),(72)&7
  1730  075F  2F61               	goto	u3651
  1731  0760  2F62               	goto	u3650
  1732  0761                     u3651:
  1733  0761  2F6A               	goto	l4402
  1734  0762                     u3650:
  1735                           	line	48
  1736                           	
  1737  0762                     l4400:	
  1738                           ;main1.c: 47: {
  1739                           ;main1.c: 48: SendStringSerially("OBJECT ABSENT     ");
  1740  0762  302B               	movlw	((STR_8-__stringbase))&0ffh
  1741  0763  120A  158A  2409   	fcall	_SendStringSerially
              120A  118A         
  1742  0768  2F6A               	goto	l4402
  1743                           	line	49
  1744                           	
  1745  0769                     l1179:	
  1746  0769  2F6A               	goto	l4402
  1747                           	line	51
  1748                           	
  1749  076A                     l1178:	
  1750                           	
  1751  076A                     l4402:	
  1752                           ;main1.c: 49: }
  1753                           ;main1.c: 51: Delay(200);
  1754  076A  30C8               	movlw	low(0C8h)
  1755  076B  00F0               	movwf	(?_Delay)
  1756  076C  3000               	movlw	high(0C8h)
  1757  076D  00F1               	movwf	((?_Delay))+1
  1758  076E  120A  158A  23EA   	fcall	_Delay
              120A  118A         
  1759                           	line	53
  1760                           	
  1761  0773                     l4404:	
  1762                           ;main1.c: 53: SendStringSerially("HUMIDITY :");
  1763  0773  307C               	movlw	((STR_9-__stringbase))&0ffh
  1764  0774  120A  158A  2409   	fcall	_SendStringSerially
              120A  118A         
  1765                           	line	54
  1766                           ;main1.c: 54: temp = ADCReadData(0x00);
  1767  0779  3000               	movlw	(0)
  1768  077A  120A  118A  2116   	fcall	_ADCReadData
              120A  118A         
  1769  077F  1283               	bcf	status, 5	;RP0=0, select bank0
  1770  0780  1303               	bcf	status, 6	;RP1=0, select bank0
  1771  0781  0840               	movf	(0+(?_ADCReadData)),w
  1772  0782  00D7               	movwf	(main@temp)
  1773  0783  0841               	movf	(1+(?_ADCReadData)),w
  1774  0784  00D8               	movwf	(main@temp+1)
  1775  0785  0842               	movf	(2+(?_ADCReadData)),w
  1776  0786  00D9               	movwf	(main@temp+2)
  1777                           	line	55
  1778                           ;main1.c: 55: temp*=30;
  1779  0787  3000               	movlw	0x0
  1780  0788  00B0               	movwf	(?___ftmul)
  1781  0789  30F0               	movlw	0xf0
  1782  078A  00B1               	movwf	(?___ftmul+1)
  1783  078B  3041               	movlw	0x41
  1784  078C  00B2               	movwf	(?___ftmul+2)
  1785  078D  0857               	movf	(main@temp),w
  1786  078E  00B3               	movwf	0+(?___ftmul)+03h
  1787  078F  0858               	movf	(main@temp+1),w
  1788  0790  00B4               	movwf	1+(?___ftmul)+03h
  1789  0791  0859               	movf	(main@temp+2),w
  1790  0792  00B5               	movwf	2+(?___ftmul)+03h
  1791  0793  120A  118A  2289   	fcall	___ftmul
              120A  118A         
  1792  0798  1283               	bcf	status, 5	;RP0=0, select bank0
  1793  0799  1303               	bcf	status, 6	;RP1=0, select bank0
  1794  079A  0830               	movf	(0+(?___ftmul)),w
  1795  079B  00D7               	movwf	(main@temp)
  1796  079C  0831               	movf	(1+(?___ftmul)),w
  1797  079D  00D8               	movwf	(main@temp+1)
  1798  079E  0832               	movf	(2+(?___ftmul)),w
  1799  079F  00D9               	movwf	(main@temp+2)
  1800                           	line	56
  1801                           ;main1.c: 56: temp1=temp;
  1802  07A0  0857               	movf	(main@temp),w
  1803  07A1  00F0               	movwf	(?___fttol)
  1804  07A2  0858               	movf	(main@temp+1),w
  1805  07A3  00F1               	movwf	(?___fttol+1)
  1806  07A4  0859               	movf	(main@temp+2),w
  1807  07A5  00F2               	movwf	(?___fttol+2)
  1808  07A6  120A  158A  275C   	fcall	___fttol
              120A  118A         
  1809  07AB  0871               	movf	1+(((0+(?___fttol)))),w
  1810  07AC  1283               	bcf	status, 5	;RP0=0, select bank0
  1811  07AD  1303               	bcf	status, 6	;RP1=0, select bank0
  1812  07AE  01D6               	clrf	(main@temp1+1)
  1813  07AF  07D6               	addwf	(main@temp1+1)
  1814  07B0  0870               	movf	0+(((0+(?___fttol)))),w
  1815  07B1  01D5               	clrf	(main@temp1)
  1816  07B2  07D5               	addwf	(main@temp1)
  1817                           
  1818                           	line	57
  1819                           	
  1820  07B3                     l4406:	
  1821                           ;main1.c: 57: SendIntegerSerially(temp1);
  1822  07B3  0856               	movf	(main@temp1+1),w
  1823  07B4  01FA               	clrf	(?_SendIntegerSerially+1)
  1824  07B5  07FA               	addwf	(?_SendIntegerSerially+1)
  1825  07B6  0855               	movf	(main@temp1),w
  1826  07B7  01F9               	clrf	(?_SendIntegerSerially)
  1827  07B8  07F9               	addwf	(?_SendIntegerSerially)
  1828                           
  1829  07B9  120A  158A  26DB   	fcall	_SendIntegerSerially
              120A  118A         
  1830                           	line	58
  1831                           	
  1832  07BE                     l4408:	
  1833                           ;main1.c: 58: SendStringSerially("%     ");
  1834  07BE  3099               	movlw	((STR_10-__stringbase))&0ffh
  1835  07BF  120A  158A  2409   	fcall	_SendStringSerially
              120A  118A         
  1836                           	line	60
  1837                           	
  1838  07C4                     l4410:	
  1839                           ;main1.c: 60: Delay(200);
  1840  07C4  30C8               	movlw	low(0C8h)
  1841  07C5  00F0               	movwf	(?_Delay)
  1842  07C6  3000               	movlw	high(0C8h)
  1843  07C7  00F1               	movwf	((?_Delay))+1
  1844  07C8  120A  158A  23EA   	fcall	_Delay
              120A  118A         
  1845                           	line	62
  1846                           	
  1847  07CD                     l4412:	
  1848                           ;main1.c: 62: if(RE1 == 1)
  1849  07CD  1283               	bcf	status, 5	;RP0=0, select bank0
  1850  07CE  1303               	bcf	status, 6	;RP1=0, select bank0
  1851  07CF  1C89               	btfss	(73/8),(73)&7
  1852  07D0  2FD2               	goto	u3661
  1853  07D1  2FD3               	goto	u3660
  1854  07D2                     u3661:
  1855  07D2  2FDA               	goto	l4416
  1856  07D3                     u3660:
  1857                           	line	64
  1858                           	
  1859  07D3                     l4414:	
  1860                           ;main1.c: 63: {
  1861                           ;main1.c: 64: SendStringSerially("Non Magnetic ");
  1862  07D3  3060               	movlw	((STR_11-__stringbase))&0ffh
  1863  07D4  120A  158A  2409   	fcall	_SendStringSerially
              120A  118A         
  1864  07D9  2FDA               	goto	l4416
  1865                           	line	65
  1866                           	
  1867  07DA                     l1180:	
  1868                           	line	66
  1869                           	
  1870  07DA                     l4416:	
  1871                           ;main1.c: 65: }
  1872                           ;main1.c: 66: if(RE1 == 0)
  1873  07DA  1283               	bcf	status, 5	;RP0=0, select bank0
  1874  07DB  1303               	bcf	status, 6	;RP1=0, select bank0
  1875  07DC  1889               	btfsc	(73/8),(73)&7
  1876  07DD  2FDF               	goto	u3671
  1877  07DE  2FE0               	goto	u3670
  1878  07DF                     u3671:
  1879  07DF  2FE7               	goto	l4420
  1880  07E0                     u3670:
  1881                           	line	68
  1882                           	
  1883  07E0                     l4418:	
  1884                           ;main1.c: 67: {
  1885                           ;main1.c: 68: SendStringSerially("Magnetic ");
  1886  07E0  3064               	movlw	((STR_12-__stringbase))&0ffh
  1887  07E1  120A  158A  2409   	fcall	_SendStringSerially
              120A  118A         
  1888  07E6  2FE7               	goto	l4420
  1889                           	line	69
  1890                           	
  1891  07E7                     l1181:	
  1892                           	line	70
  1893                           	
  1894  07E7                     l4420:	
  1895                           ;main1.c: 69: }
  1896                           ;main1.c: 70: SendByteSerially(0x0A);
  1897  07E7  300A               	movlw	(0Ah)
  1898  07E8  120A  158A  2386   	fcall	_SendByteSerially
              120A  118A         
  1899                           	line	71
  1900                           	
  1901  07ED                     l4422:	
  1902                           ;main1.c: 71: SendByteSerially(0x0D);
  1903  07ED  300D               	movlw	(0Dh)
  1904  07EE  120A  158A  2386   	fcall	_SendByteSerially
              120A  118A         
  1905                           	line	73
  1906                           	
  1907  07F3                     l4424:	
  1908                           ;main1.c: 73: Delay(3000);
  1909  07F3  30B8               	movlw	low(0BB8h)
  1910  07F4  00F0               	movwf	(?_Delay)
  1911  07F5  300B               	movlw	high(0BB8h)
  1912  07F6  00F1               	movwf	((?_Delay))+1
  1913  07F7  120A  158A  23EA   	fcall	_Delay
              120A  118A         
  1914                           	line	74
  1915                           ;main1.c: 74: }
  1916  07FC  2E45               	goto	l4362
  1917                           	
  1918  07FD                     l1182:	
  1919                           	line	75
  1920                           	
  1921  07FD                     l1183:	
  1922                           	global	start
  1923  07FD  120A  118A  2800   	ljmp	start
  1924                           	opt stack 0
  1925                           GLOBAL	__end_of_main
  1926  0800                     	__end_of_main:
  1927 ;; =============== function _main ends ============
  1928                           
  1929                           	signat	_main,88
  1930                           	global	_SendFloatSerially
  1931                           psect	text426,local,class=CODE,delta=2
  1932                           global __ptext426
  1933  04C1                     __ptext426:
  1934                           
  1935 ;; *************** function _SendFloatSerially *****************
  1936 ;; Defined at:
  1937 ;;		line 84 in file "C:\Users\X4ROY\Desktop\URE\LCD Interfacing - Copy\serial.c"
  1938 ;; Parameters:    Size  Location     Type
  1939 ;;  FloatNumber     3   32[BANK0 ] float 
  1940 ;; Auto vars:     Size  Location     Type
  1941 ;;  c               4   36[BANK0 ] unsigned char [4]
  1942 ;;  n               2   46[BANK0 ] int 
  1943 ;;  Temp            2   43[BANK0 ] int 
  1944 ;;  i               1   45[BANK0 ] unsigned char 
  1945 ;; Return value:  Size  Location     Type
  1946 ;;		None               void
  1947 ;; Registers used:
  1948 ;;		wreg, fsr0l, fsr0h, status,2, status,0, btemp+1, pclath, cstack
  1949 ;; Tracked objects:
  1950 ;;		On entry : 0/0
  1951 ;;		On exit  : 0/0
  1952 ;;		Unchanged: 0/0
  1953 ;; Data sizes:     COMMON   BANK0   BANK1   BANK3   BANK2
  1954 ;;      Params:         0       3       0       0       0
  1955 ;;      Locals:         0      12       0       0       0
  1956 ;;      Temps:          0       1       0       0       0
  1957 ;;      Totals:         0      16       0       0       0
  1958 ;;Total ram usage:       16 bytes
  1959 ;; Hardware stack levels used:    1
  1960 ;; Hardware stack levels required when called:    2
  1961 ;; This function calls:
  1962 ;;		___ftge
  1963 ;;		_SendByteSerially
  1964 ;;		___ftneg
  1965 ;;		___fttol
  1966 ;;		_SendIntegerSerially
  1967 ;;		___awtoft
  1968 ;;		___ftadd
  1969 ;;		___ftmul
  1970 ;;		___awmod
  1971 ;;		___awdiv
  1972 ;; This function is called by:
  1973 ;;		_main
  1974 ;; This function uses a non-reentrant model
  1975 ;;
  1976                           psect	text426
  1977                           	file	"C:\Users\X4ROY\Desktop\URE\LCD Interfacing - Copy\serial.c"
  1978                           	line	84
  1979                           	global	__size_of_SendFloatSerially
  1980  0170                     	__size_of_SendFloatSerially	equ	__end_of_SendFloatSerially-_SendFloatSerially
  1981                           	
  1982  04C1                     _SendFloatSerially:	
  1983                           	opt	stack 5
  1984                           ; Regs used in _SendFloatSerially: [wreg-fsr0h+status,2+status,0+btemp+1+pclath+cstack]
  1985                           	line	86
  1986                           	
  1987  04C1                     l4312:	
  1988                           ;serial.c: 85: unsigned char c[4];
  1989                           ;serial.c: 86: unsigned char i = 0;
  1990  04C1  1003               	clrc
  1991  04C2  3000               	movlw	0
  1992  04C3  1803               	btfsc	status,0
  1993  04C4  3001               	movlw	1
  1994  04C5  1283               	bcf	status, 5	;RP0=0, select bank0
  1995  04C6  1303               	bcf	status, 6	;RP1=0, select bank0
  1996  04C7  00CD               	movwf	(SendFloatSerially@i)
  1997                           	line	89
  1998                           	
  1999  04C8                     l4314:	
  2000                           ;serial.c: 87: int n, Temp;
  2001                           ;serial.c: 89: if(FloatNumber < 0)
  2002  04C8  0840               	movf	(SendFloatSerially@FloatNumber),w
  2003  04C9  00F0               	movwf	(?___ftge)
  2004  04CA  0841               	movf	(SendFloatSerially@FloatNumber+1),w
  2005  04CB  00F1               	movwf	(?___ftge+1)
  2006  04CC  0842               	movf	(SendFloatSerially@FloatNumber+2),w
  2007  04CD  00F2               	movwf	(?___ftge+2)
  2008  04CE  3000               	movlw	0x0
  2009  04CF  00F3               	movwf	0+(?___ftge)+03h
  2010  04D0  3000               	movlw	0x0
  2011  04D1  00F4               	movwf	1+(?___ftge)+03h
  2012  04D2  3000               	movlw	0x0
  2013  04D3  00F5               	movwf	2+(?___ftge)+03h
  2014  04D4  120A  118A  20AA   	fcall	___ftge
              120A  118A         
  2015  04D9  1803               	btfsc	status,0
  2016  04DA  2CDC               	goto	u3561
  2017  04DB  2CDD               	goto	u3560
  2018  04DC                     u3561:
  2019  04DC  2CF9               	goto	l4320
  2020  04DD                     u3560:
  2021                           	line	91
  2022                           	
  2023  04DD                     l4316:	
  2024                           ;serial.c: 90: {
  2025                           ;serial.c: 91: SendByteSerially('-');
  2026  04DD  302D               	movlw	(02Dh)
  2027  04DE  120A  158A  2386   	fcall	_SendByteSerially
              120A  118A         
  2028                           	line	92
  2029                           	
  2030  04E3                     l4318:	
  2031                           ;serial.c: 92: FloatNumber = -(FloatNumber);
  2032  04E3  1283               	bcf	status, 5	;RP0=0, select bank0
  2033  04E4  1303               	bcf	status, 6	;RP1=0, select bank0
  2034  04E5  0840               	movf	(SendFloatSerially@FloatNumber),w
  2035  04E6  00F8               	movwf	(?___ftneg)
  2036  04E7  0841               	movf	(SendFloatSerially@FloatNumber+1),w
  2037  04E8  00F9               	movwf	(?___ftneg+1)
  2038  04E9  0842               	movf	(SendFloatSerially@FloatNumber+2),w
  2039  04EA  00FA               	movwf	(?___ftneg+2)
  2040  04EB  120A  158A  2392   	fcall	___ftneg
              120A  118A         
  2041  04F0  0878               	movf	(0+(?___ftneg)),w
  2042  04F1  1283               	bcf	status, 5	;RP0=0, select bank0
  2043  04F2  1303               	bcf	status, 6	;RP1=0, select bank0
  2044  04F3  00C0               	movwf	(SendFloatSerially@FloatNumber)
  2045  04F4  0879               	movf	(1+(?___ftneg)),w
  2046  04F5  00C1               	movwf	(SendFloatSerially@FloatNumber+1)
  2047  04F6  087A               	movf	(2+(?___ftneg)),w
  2048  04F7  00C2               	movwf	(SendFloatSerially@FloatNumber+2)
  2049  04F8  2CF9               	goto	l4320
  2050                           	line	93
  2051                           	
  2052  04F9                     l1788:	
  2053                           	line	94
  2054                           	
  2055  04F9                     l4320:	
  2056                           ;serial.c: 93: }
  2057                           ;serial.c: 94: n = FloatNumber;
  2058  04F9  1283               	bcf	status, 5	;RP0=0, select bank0
  2059  04FA  1303               	bcf	status, 6	;RP1=0, select bank0
  2060  04FB  0840               	movf	(SendFloatSerially@FloatNumber),w
  2061  04FC  00F0               	movwf	(?___fttol)
  2062  04FD  0841               	movf	(SendFloatSerially@FloatNumber+1),w
  2063  04FE  00F1               	movwf	(?___fttol+1)
  2064  04FF  0842               	movf	(SendFloatSerially@FloatNumber+2),w
  2065  0500  00F2               	movwf	(?___fttol+2)
  2066  0501  120A  158A  275C   	fcall	___fttol
              120A  118A         
  2067  0506  0871               	movf	1+(((0+(?___fttol)))),w
  2068  0507  1283               	bcf	status, 5	;RP0=0, select bank0
  2069  0508  1303               	bcf	status, 6	;RP1=0, select bank0
  2070  0509  01CF               	clrf	(SendFloatSerially@n+1)
  2071  050A  07CF               	addwf	(SendFloatSerially@n+1)
  2072  050B  0870               	movf	0+(((0+(?___fttol)))),w
  2073  050C  01CE               	clrf	(SendFloatSerially@n)
  2074  050D  07CE               	addwf	(SendFloatSerially@n)
  2075                           
  2076                           	line	95
  2077                           	
  2078  050E                     l4322:	
  2079                           ;serial.c: 95: Temp = n;
  2080  050E  084F               	movf	(SendFloatSerially@n+1),w
  2081  050F  01CC               	clrf	(SendFloatSerially@Temp+1)
  2082  0510  07CC               	addwf	(SendFloatSerially@Temp+1)
  2083  0511  084E               	movf	(SendFloatSerially@n),w
  2084  0512  01CB               	clrf	(SendFloatSerially@Temp)
  2085  0513  07CB               	addwf	(SendFloatSerially@Temp)
  2086                           
  2087                           	line	96
  2088                           	
  2089  0514                     l4324:	
  2090                           ;serial.c: 96: SendIntegerSerially(n);
  2091  0514  084F               	movf	(SendFloatSerially@n+1),w
  2092  0515  01FA               	clrf	(?_SendIntegerSerially+1)
  2093  0516  07FA               	addwf	(?_SendIntegerSerially+1)
  2094  0517  084E               	movf	(SendFloatSerially@n),w
  2095  0518  01F9               	clrf	(?_SendIntegerSerially)
  2096  0519  07F9               	addwf	(?_SendIntegerSerially)
  2097                           
  2098  051A  120A  158A  26DB   	fcall	_SendIntegerSerially
              120A  118A         
  2099                           	line	97
  2100                           	
  2101  051F                     l4326:	
  2102                           ;serial.c: 97: SendByteSerially('.');
  2103  051F  302E               	movlw	(02Eh)
  2104  0520  120A  158A  2386   	fcall	_SendByteSerially
              120A  118A         
  2105                           	line	98
  2106                           	
  2107  0525                     l4328:	
  2108                           ;serial.c: 98: FloatNumber = ((FloatNumber - n) + 1) * 1000;
  2109  0525  1283               	bcf	status, 5	;RP0=0, select bank0
  2110  0526  1303               	bcf	status, 6	;RP1=0, select bank0
  2111  0527  0840               	movf	(SendFloatSerially@FloatNumber),w
  2112  0528  00A3               	movwf	(?___ftadd)
  2113  0529  0841               	movf	(SendFloatSerially@FloatNumber+1),w
  2114  052A  00A4               	movwf	(?___ftadd+1)
  2115  052B  0842               	movf	(SendFloatSerially@FloatNumber+2),w
  2116  052C  00A5               	movwf	(?___ftadd+2)
  2117  052D  084F               	movf	(SendFloatSerially@n+1),w
  2118  052E  01FC               	clrf	(?___awtoft+1)
  2119  052F  07FC               	addwf	(?___awtoft+1)
  2120  0530  084E               	movf	(SendFloatSerially@n),w
  2121  0531  01FB               	clrf	(?___awtoft)
  2122  0532  07FB               	addwf	(?___awtoft)
  2123                           
  2124  0533  120A  158A  2456   	fcall	___awtoft
              120A  118A         
  2125  0538  087B               	movf	(0+(?___awtoft)),w
  2126  0539  00F8               	movwf	(?___ftneg)
  2127  053A  087C               	movf	(1+(?___awtoft)),w
  2128  053B  00F9               	movwf	(?___ftneg+1)
  2129  053C  087D               	movf	(2+(?___awtoft)),w
  2130  053D  00FA               	movwf	(?___ftneg+2)
  2131  053E  120A  158A  2392   	fcall	___ftneg
              120A  118A         
  2132  0543  0878               	movf	(0+(?___ftneg)),w
  2133  0544  1283               	bcf	status, 5	;RP0=0, select bank0
  2134  0545  1303               	bcf	status, 6	;RP1=0, select bank0
  2135  0546  00A6               	movwf	0+(?___ftadd)+03h
  2136  0547  0879               	movf	(1+(?___ftneg)),w
  2137  0548  00A7               	movwf	1+(?___ftadd)+03h
  2138  0549  087A               	movf	(2+(?___ftneg)),w
  2139  054A  00A8               	movwf	2+(?___ftadd)+03h
  2140  054B  120A  118A  2377   	fcall	___ftadd
              120A  118A         
  2141  0550  1283               	bcf	status, 5	;RP0=0, select bank0
  2142  0551  1303               	bcf	status, 6	;RP1=0, select bank0
  2143  0552  0823               	movf	(0+(?___ftadd)),w
  2144  0553  00C8               	movwf	(_SendFloatSerially$1278)
  2145  0554  0824               	movf	(1+(?___ftadd)),w
  2146  0555  00C9               	movwf	(_SendFloatSerially$1278+1)
  2147  0556  0825               	movf	(2+(?___ftadd)),w
  2148  0557  00CA               	movwf	(_SendFloatSerially$1278+2)
  2149                           	
  2150  0558                     l4330:	
  2151                           ;serial.c: 98: FloatNumber = ((FloatNumber - n) + 1) * 1000;
  2152  0558  3000               	movlw	0x0
  2153  0559  00B0               	movwf	(?___ftmul)
  2154  055A  307A               	movlw	0x7a
  2155  055B  00B1               	movwf	(?___ftmul+1)
  2156  055C  3044               	movlw	0x44
  2157  055D  00B2               	movwf	(?___ftmul+2)
  2158  055E  3000               	movlw	0x0
  2159  055F  00A3               	movwf	(?___ftadd)
  2160  0560  3080               	movlw	0x80
  2161  0561  00A4               	movwf	(?___ftadd+1)
  2162  0562  303F               	movlw	0x3f
  2163  0563  00A5               	movwf	(?___ftadd+2)
  2164  0564  0848               	movf	(_SendFloatSerially$1278),w
  2165  0565  00A6               	movwf	0+(?___ftadd)+03h
  2166  0566  0849               	movf	(_SendFloatSerially$1278+1),w
  2167  0567  00A7               	movwf	1+(?___ftadd)+03h
  2168  0568  084A               	movf	(_SendFloatSerially$1278+2),w
  2169  0569  00A8               	movwf	2+(?___ftadd)+03h
  2170  056A  120A  118A  2377   	fcall	___ftadd
              120A  118A         
  2171  056F  1283               	bcf	status, 5	;RP0=0, select bank0
  2172  0570  1303               	bcf	status, 6	;RP1=0, select bank0
  2173  0571  0823               	movf	(0+(?___ftadd)),w
  2174  0572  00B3               	movwf	0+(?___ftmul)+03h
  2175  0573  0824               	movf	(1+(?___ftadd)),w
  2176  0574  00B4               	movwf	1+(?___ftmul)+03h
  2177  0575  0825               	movf	(2+(?___ftadd)),w
  2178  0576  00B5               	movwf	2+(?___ftmul)+03h
  2179  0577  120A  118A  2289   	fcall	___ftmul
              120A  118A         
  2180  057C  1283               	bcf	status, 5	;RP0=0, select bank0
  2181  057D  1303               	bcf	status, 6	;RP1=0, select bank0
  2182  057E  0830               	movf	(0+(?___ftmul)),w
  2183  057F  00C0               	movwf	(SendFloatSerially@FloatNumber)
  2184  0580  0831               	movf	(1+(?___ftmul)),w
  2185  0581  00C1               	movwf	(SendFloatSerially@FloatNumber+1)
  2186  0582  0832               	movf	(2+(?___ftmul)),w
  2187  0583  00C2               	movwf	(SendFloatSerially@FloatNumber+2)
  2188                           	line	99
  2189                           	
  2190  0584                     l4332:	
  2191                           ;serial.c: 99: n = FloatNumber;
  2192  0584  0840               	movf	(SendFloatSerially@FloatNumber),w
  2193  0585  00F0               	movwf	(?___fttol)
  2194  0586  0841               	movf	(SendFloatSerially@FloatNumber+1),w
  2195  0587  00F1               	movwf	(?___fttol+1)
  2196  0588  0842               	movf	(SendFloatSerially@FloatNumber+2),w
  2197  0589  00F2               	movwf	(?___fttol+2)
  2198  058A  120A  158A  275C   	fcall	___fttol
              120A  118A         
  2199  058F  0871               	movf	1+(((0+(?___fttol)))),w
  2200  0590  1283               	bcf	status, 5	;RP0=0, select bank0
  2201  0591  1303               	bcf	status, 6	;RP1=0, select bank0
  2202  0592  01CF               	clrf	(SendFloatSerially@n+1)
  2203  0593  07CF               	addwf	(SendFloatSerially@n+1)
  2204  0594  0870               	movf	0+(((0+(?___fttol)))),w
  2205  0595  01CE               	clrf	(SendFloatSerially@n)
  2206  0596  07CE               	addwf	(SendFloatSerially@n)
  2207                           
  2208                           	line	101
  2209                           ;serial.c: 101: while(n > 0)
  2210  0597  2DD0               	goto	l4340
  2211                           	
  2212  0598                     l1790:	
  2213                           	line	103
  2214                           	
  2215  0598                     l4334:	
  2216                           ;serial.c: 102: {
  2217                           ;serial.c: 103: c[i++] = (n % 10) + 48;
  2218  0598  300A               	movlw	low(0Ah)
  2219  0599  00F0               	movwf	(?___awmod)
  2220  059A  3000               	movlw	high(0Ah)
  2221  059B  00F1               	movwf	((?___awmod))+1
  2222  059C  1283               	bcf	status, 5	;RP0=0, select bank0
  2223  059D  1303               	bcf	status, 6	;RP1=0, select bank0
  2224  059E  084F               	movf	(SendFloatSerially@n+1),w
  2225  059F  01F3               	clrf	1+(?___awmod)+02h
  2226  05A0  07F3               	addwf	1+(?___awmod)+02h
  2227  05A1  084E               	movf	(SendFloatSerially@n),w
  2228  05A2  01F2               	clrf	0+(?___awmod)+02h
  2229  05A3  07F2               	addwf	0+(?___awmod)+02h
  2230                           
  2231  05A4  120A  158A  257D   	fcall	___awmod
              120A  118A         
  2232  05A9  0870               	movf	(0+(?___awmod)),w
  2233  05AA  3E30               	addlw	030h
  2234  05AB  1283               	bcf	status, 5	;RP0=0, select bank0
  2235  05AC  1303               	bcf	status, 6	;RP1=0, select bank0
  2236  05AD  00C3               	movwf	(??_SendFloatSerially+0)+0
  2237  05AE  084D               	movf	(SendFloatSerially@i),w
  2238  05AF  3E44               	addlw	SendFloatSerially@c&0ffh
  2239  05B0  0084               	movwf	fsr0
  2240  05B1  0843               	movf	(??_SendFloatSerially+0)+0,w
  2241  05B2  1383               	bcf	status, 7	;select IRP bank0
  2242  05B3  0080               	movwf	indf
  2243                           	
  2244  05B4                     l4336:	
  2245  05B4  3001               	movlw	(01h)
  2246  05B5  00C3               	movwf	(??_SendFloatSerially+0)+0
  2247  05B6  0843               	movf	(??_SendFloatSerially+0)+0,w
  2248  05B7  07CD               	addwf	(SendFloatSerially@i),f
  2249                           	line	104
  2250                           	
  2251  05B8                     l4338:	
  2252                           ;serial.c: 104: n /= 10;
  2253  05B8  300A               	movlw	low(0Ah)
  2254  05B9  00F0               	movwf	(?___awdiv)
  2255  05BA  3000               	movlw	high(0Ah)
  2256  05BB  00F1               	movwf	((?___awdiv))+1
  2257  05BC  084F               	movf	(SendFloatSerially@n+1),w
  2258  05BD  01F3               	clrf	1+(?___awdiv)+02h
  2259  05BE  07F3               	addwf	1+(?___awdiv)+02h
  2260  05BF  084E               	movf	(SendFloatSerially@n),w
  2261  05C0  01F2               	clrf	0+(?___awdiv)+02h
  2262  05C1  07F2               	addwf	0+(?___awdiv)+02h
  2263                           
  2264  05C2  120A  158A  25E7   	fcall	___awdiv
              120A  118A         
  2265  05C7  0871               	movf	(1+(?___awdiv)),w
  2266  05C8  1283               	bcf	status, 5	;RP0=0, select bank0
  2267  05C9  1303               	bcf	status, 6	;RP1=0, select bank0
  2268  05CA  01CF               	clrf	(SendFloatSerially@n+1)
  2269  05CB  07CF               	addwf	(SendFloatSerially@n+1)
  2270  05CC  0870               	movf	(0+(?___awdiv)),w
  2271  05CD  01CE               	clrf	(SendFloatSerially@n)
  2272  05CE  07CE               	addwf	(SendFloatSerially@n)
  2273                           
  2274  05CF  2DD0               	goto	l4340
  2275                           	line	105
  2276                           	
  2277  05D0                     l1789:	
  2278                           	line	101
  2279                           	
  2280  05D0                     l4340:	
  2281  05D0  084F               	movf	(SendFloatSerially@n+1),w
  2282  05D1  3A80               	xorlw	80h
  2283  05D2  00FF               	movwf	btemp+1
  2284  05D3  3080               	movlw	(high(01h))^80h
  2285  05D4  027F               	subwf	btemp+1,w
  2286  05D5  1D03               	skipz
  2287  05D6  2DD9               	goto	u3575
  2288  05D7  3001               	movlw	low(01h)
  2289  05D8  024E               	subwf	(SendFloatSerially@n),w
  2290  05D9                     u3575:
  2291                           
  2292  05D9  1803               	skipnc
  2293  05DA  2DDC               	goto	u3571
  2294  05DB  2DDD               	goto	u3570
  2295  05DC                     u3571:
  2296  05DC  2D98               	goto	l4334
  2297  05DD                     u3570:
  2298  05DD  2DDE               	goto	l4342
  2299                           	
  2300  05DE                     l1791:	
  2301                           	line	106
  2302                           	
  2303  05DE                     l4342:	
  2304                           ;serial.c: 105: }
  2305                           ;serial.c: 106: i -= 1;
  2306  05DE  3001               	movlw	low(01h)
  2307  05DF  1283               	bcf	status, 5	;RP0=0, select bank0
  2308  05E0  1303               	bcf	status, 6	;RP1=0, select bank0
  2309  05E1  02CD               	subwf	(SendFloatSerially@i),f
  2310                           	line	107
  2311                           ;serial.c: 107: while(i-- > 1)
  2312  05E2  2DEE               	goto	l4346
  2313                           	
  2314  05E3                     l1793:	
  2315                           	line	108
  2316                           	
  2317  05E3                     l4344:	
  2318                           ;serial.c: 108: SendByteSerially(c[i]);
  2319  05E3  084D               	movf	(SendFloatSerially@i),w
  2320  05E4  3E44               	addlw	SendFloatSerially@c&0ffh
  2321  05E5  0084               	movwf	fsr0
  2322  05E6  1383               	bcf	status, 7	;select IRP bank0
  2323  05E7  0800               	movf	indf,w
  2324  05E8  120A  158A  2386   	fcall	_SendByteSerially
              120A  118A         
  2325  05ED  2DEE               	goto	l4346
  2326                           	
  2327  05EE                     l1792:	
  2328                           	line	107
  2329                           	
  2330  05EE                     l4346:	
  2331  05EE  3001               	movlw	low(01h)
  2332  05EF  1283               	bcf	status, 5	;RP0=0, select bank0
  2333  05F0  1303               	bcf	status, 6	;RP1=0, select bank0
  2334  05F1  02CD               	subwf	(SendFloatSerially@i),f
  2335  05F2  1D03               	btfss	status,2
  2336  05F3  2DF5               	goto	u3581
  2337  05F4  2DF6               	goto	u3580
  2338  05F5                     u3581:
  2339  05F5  2DE3               	goto	l4344
  2340  05F6                     u3580:
  2341  05F6  2DF7               	goto	l4348
  2342                           	
  2343  05F7                     l1794:	
  2344                           	line	110
  2345                           	
  2346  05F7                     l4348:	
  2347                           ;serial.c: 110: if(Temp < 10)
  2348  05F7  084C               	movf	(SendFloatSerially@Temp+1),w
  2349  05F8  3A80               	xorlw	80h
  2350  05F9  00FF               	movwf	btemp+1
  2351  05FA  3080               	movlw	(high(0Ah))^80h
  2352  05FB  027F               	subwf	btemp+1,w
  2353  05FC  1D03               	skipz
  2354  05FD  2E00               	goto	u3595
  2355  05FE  300A               	movlw	low(0Ah)
  2356  05FF  024B               	subwf	(SendFloatSerially@Temp),w
  2357  0600                     u3595:
  2358                           
  2359  0600  1803               	skipnc
  2360  0601  2E03               	goto	u3591
  2361  0602  2E04               	goto	u3590
  2362  0603                     u3591:
  2363  0603  2E0B               	goto	l4352
  2364  0604                     u3590:
  2365                           	line	112
  2366                           	
  2367  0604                     l4350:	
  2368                           ;serial.c: 111: {
  2369                           ;serial.c: 112: SendByteSerially("  ");
  2370  0604  30A5               	movlw	(STR_13)&0ffh
  2371  0605  120A  158A  2386   	fcall	_SendByteSerially
              120A  118A         
  2372  060A  2E0B               	goto	l4352
  2373                           	line	114
  2374                           	
  2375  060B                     l1795:	
  2376                           	line	115
  2377                           	
  2378  060B                     l4352:	
  2379                           ;serial.c: 114: }
  2380                           ;serial.c: 115: if(Temp >= 10 && Temp < 100)
  2381  060B  1283               	bcf	status, 5	;RP0=0, select bank0
  2382  060C  1303               	bcf	status, 6	;RP1=0, select bank0
  2383  060D  084C               	movf	(SendFloatSerially@Temp+1),w
  2384  060E  3A80               	xorlw	80h
  2385  060F  00FF               	movwf	btemp+1
  2386  0610  3080               	movlw	(high(0Ah))^80h
  2387  0611  027F               	subwf	btemp+1,w
  2388  0612  1D03               	skipz
  2389  0613  2E16               	goto	u3605
  2390  0614  300A               	movlw	low(0Ah)
  2391  0615  024B               	subwf	(SendFloatSerially@Temp),w
  2392  0616                     u3605:
  2393                           
  2394  0616  1C03               	skipc
  2395  0617  2E19               	goto	u3601
  2396  0618  2E1A               	goto	u3600
  2397  0619                     u3601:
  2398  0619  2E30               	goto	l1797
  2399  061A                     u3600:
  2400                           	
  2401  061A                     l4354:	
  2402  061A  1283               	bcf	status, 5	;RP0=0, select bank0
  2403  061B  1303               	bcf	status, 6	;RP1=0, select bank0
  2404  061C  084C               	movf	(SendFloatSerially@Temp+1),w
  2405  061D  3A80               	xorlw	80h
  2406  061E  00FF               	movwf	btemp+1
  2407  061F  3080               	movlw	(high(064h))^80h
  2408  0620  027F               	subwf	btemp+1,w
  2409  0621  1D03               	skipz
  2410  0622  2E25               	goto	u3615
  2411  0623  3064               	movlw	low(064h)
  2412  0624  024B               	subwf	(SendFloatSerially@Temp),w
  2413  0625                     u3615:
  2414                           
  2415  0625  1803               	skipnc
  2416  0626  2E28               	goto	u3611
  2417  0627  2E29               	goto	u3610
  2418  0628                     u3611:
  2419  0628  2E30               	goto	l1797
  2420  0629                     u3610:
  2421                           	line	117
  2422                           	
  2423  0629                     l4356:	
  2424                           ;serial.c: 116: {
  2425                           ;serial.c: 117: SendByteSerially(" ");
  2426  0629  30A6               	movlw	(STR_14)&0ffh
  2427  062A  120A  158A  2386   	fcall	_SendByteSerially
              120A  118A         
  2428  062F  2E30               	goto	l1797
  2429                           	line	119
  2430                           	
  2431  0630                     l1796:	
  2432                           	line	120
  2433                           	
  2434  0630                     l1797:	
  2435  0630  0008               	return
  2436                           	opt stack 0
  2437                           GLOBAL	__end_of_SendFloatSerially
  2438  0631                     	__end_of_SendFloatSerially:
  2439 ;; =============== function _SendFloatSerially ends ============
  2440                           
  2441                           	signat	_SendFloatSerially,4216
  2442                           	global	_ADCReadData
  2443                           psect	text427,local,class=CODE,delta=2
  2444                           global __ptext427
  2445  0116                     __ptext427:
  2446                           
  2447 ;; *************** function _ADCReadData *****************
  2448 ;; Defined at:
  2449 ;;		line 13 in file "C:\Users\X4ROY\Desktop\URE\LCD Interfacing - Copy\adc.c"
  2450 ;; Parameters:    Size  Location     Type
  2451 ;;  ChannelNumbe    1    wreg     unsigned char 
  2452 ;; Auto vars:     Size  Location     Type
  2453 ;;  ChannelNumbe    1   48[BANK0 ] unsigned char 
  2454 ;;  p               3   49[BANK0 ] float 
  2455 ;;  f               3   37[BANK0 ] float 
  2456 ;;  z               2   46[BANK0 ] unsigned int 
  2457 ;;  c               2   44[BANK0 ] unsigned int 
  2458 ;;  y               2   42[BANK0 ] unsigned int 
  2459 ;;  x               2   40[BANK0 ] unsigned int 
  2460 ;;  count           1    0        unsigned char 
  2461 ;; Return value:  Size  Location     Type
  2462 ;;                  3   32[BANK0 ] float 
  2463 ;; Registers used:
  2464 ;;		wreg, status,2, status,0, pclath, cstack
  2465 ;; Tracked objects:
  2466 ;;		On entry : 0/0
  2467 ;;		On exit  : 0/0
  2468 ;;		Unchanged: 0/0
  2469 ;; Data sizes:     COMMON   BANK0   BANK1   BANK3   BANK2
  2470 ;;      Params:         0       3       0       0       0
  2471 ;;      Locals:         0      15       0       0       0
  2472 ;;      Temps:          0       2       0       0       0
  2473 ;;      Totals:         0      20       0       0       0
  2474 ;;Total ram usage:       20 bytes
  2475 ;; Hardware stack levels used:    1
  2476 ;; Hardware stack levels required when called:    2
  2477 ;; This function calls:
  2478 ;;		_Delay
  2479 ;;		___wmul
  2480 ;;		___lwtoft
  2481 ;;		___ftmul
  2482 ;;		___ftdiv
  2483 ;; This function is called by:
  2484 ;;		_main
  2485 ;; This function uses a non-reentrant model
  2486 ;;
  2487                           psect	text427
  2488                           	file	"C:\Users\X4ROY\Desktop\URE\LCD Interfacing - Copy\adc.c"
  2489                           	line	13
  2490                           	global	__size_of_ADCReadData
  2491  00AD                     	__size_of_ADCReadData	equ	__end_of_ADCReadData-_ADCReadData
  2492                           	
  2493  0116                     _ADCReadData:	
  2494                           	opt	stack 5
  2495                           ; Regs used in _ADCReadData: [wreg+status,2+status,0+pclath+cstack]
  2496                           ;ADCReadData@ChannelNumber stored from wreg
  2497                           	line	15
  2498  0116  1283               	bcf	status, 5	;RP0=0, select bank0
  2499  0117  1303               	bcf	status, 6	;RP1=0, select bank0
  2500  0118  00D0               	movwf	(ADCReadData@ChannelNumber)
  2501                           	
  2502  0119                     l4284:	
  2503                           ;adc.c: 14: unsigned char count;
  2504                           ;adc.c: 15: unsigned x,y,c=0xff,z;
  2505  0119  30FF               	movlw	low(0FFh)
  2506  011A  00CC               	movwf	(ADCReadData@c)
  2507  011B  3000               	movlw	high(0FFh)
  2508  011C  00CD               	movwf	((ADCReadData@c))+1
  2509                           	line	16
  2510                           ;adc.c: 16: float p=0,f;
  2511  011D  3000               	movlw	0x0
  2512  011E  00D1               	movwf	(ADCReadData@p)
  2513  011F  3000               	movlw	0x0
  2514  0120  00D2               	movwf	(ADCReadData@p+1)
  2515  0121  3000               	movlw	0x0
  2516  0122  00D3               	movwf	(ADCReadData@p+2)
  2517                           	line	18
  2518                           	
  2519  0123                     l4286:	
  2520                           ;adc.c: 18: ADCON0 = ((ADCON0 & 0xc7) | (ChannelNumber));
  2521  0123  081F               	movf	(31),w
  2522  0124  39C7               	andlw	0C7h
  2523  0125  0450               	iorwf	(ADCReadData@ChannelNumber),w
  2524  0126  009F               	movwf	(31)	;volatile
  2525                           	line	19
  2526                           	
  2527  0127                     l4288:	
  2528                           ;adc.c: 19: Delay(1);
  2529  0127  3001               	movlw	low(01h)
  2530  0128  00F0               	movwf	(?_Delay)
  2531  0129  3000               	movlw	high(01h)
  2532  012A  00F1               	movwf	((?_Delay))+1
  2533  012B  120A  158A  23EA   	fcall	_Delay
              120A  118A         
  2534                           	line	21
  2535                           	
  2536  0130                     l4290:	
  2537                           ;adc.c: 21: ADON = 1;
  2538  0130  1283               	bcf	status, 5	;RP0=0, select bank0
  2539  0131  1303               	bcf	status, 6	;RP1=0, select bank0
  2540  0132  141F               	bsf	(248/8),(248)&7
  2541                           	line	22
  2542                           	
  2543  0133                     l4292:	
  2544                           ;adc.c: 22: ADCON0 |= 0x04;
  2545  0133  151F               	bsf	(31)+(2/8),(2)&7	;volatile
  2546                           	line	23
  2547                           ;adc.c: 23: while( (ADCON0 & 0x02) == 1);
  2548  0134  2936               	goto	l4294
  2549                           	
  2550  0135                     l574:	
  2551  0135  2936               	goto	l4294
  2552                           	
  2553  0136                     l573:	
  2554                           	
  2555  0136                     l4294:	
  2556  0136  081F               	movf	(31),w
  2557  0137  3902               	andlw	02h
  2558  0138  3A01               	xorlw	01h
  2559  0139  1903               	skipnz
  2560  013A  293C               	goto	u3551
  2561  013B  293D               	goto	u3550
  2562  013C                     u3551:
  2563  013C  2936               	goto	l4294
  2564  013D                     u3550:
  2565  013D  293E               	goto	l4296
  2566                           	
  2567  013E                     l575:	
  2568                           	line	25
  2569                           	
  2570  013E                     l4296:	
  2571                           ;adc.c: 25: x=ADRESH;
  2572  013E  081E               	movf	(30),w	;volatile
  2573  013F  00C3               	movwf	(??_ADCReadData+0)+0
  2574  0140  01C4               	clrf	(??_ADCReadData+0)+0+1
  2575  0141  0843               	movf	0+(??_ADCReadData+0)+0,w
  2576  0142  00C8               	movwf	(ADCReadData@x)
  2577  0143  0844               	movf	1+(??_ADCReadData+0)+0,w
  2578  0144  00C9               	movwf	(ADCReadData@x+1)
  2579                           	line	26
  2580                           ;adc.c: 26: y=ADRESL;
  2581  0145  1683               	bsf	status, 5	;RP0=1, select bank1
  2582  0146  1303               	bcf	status, 6	;RP1=0, select bank1
  2583  0147  081E               	movf	(158)^080h,w	;volatile
  2584  0148  1283               	bcf	status, 5	;RP0=0, select bank0
  2585  0149  1303               	bcf	status, 6	;RP1=0, select bank0
  2586  014A  00C3               	movwf	(??_ADCReadData+0)+0
  2587  014B  01C4               	clrf	(??_ADCReadData+0)+0+1
  2588  014C  0843               	movf	0+(??_ADCReadData+0)+0,w
  2589  014D  00CA               	movwf	(ADCReadData@y)
  2590  014E  0844               	movf	1+(??_ADCReadData+0)+0,w
  2591  014F  00CB               	movwf	(ADCReadData@y+1)
  2592                           	line	28
  2593                           	
  2594  0150                     l4298:	
  2595                           ;adc.c: 28: z=(x*c)+y;
  2596  0150  0849               	movf	(ADCReadData@x+1),w
  2597  0151  01F1               	clrf	(?___wmul+1)
  2598  0152  07F1               	addwf	(?___wmul+1)
  2599  0153  0848               	movf	(ADCReadData@x),w
  2600  0154  01F0               	clrf	(?___wmul)
  2601  0155  07F0               	addwf	(?___wmul)
  2602                           
  2603  0156  084D               	movf	(ADCReadData@c+1),w
  2604  0157  01F3               	clrf	1+(?___wmul)+02h
  2605  0158  07F3               	addwf	1+(?___wmul)+02h
  2606  0159  084C               	movf	(ADCReadData@c),w
  2607  015A  01F2               	clrf	0+(?___wmul)+02h
  2608  015B  07F2               	addwf	0+(?___wmul)+02h
  2609                           
  2610  015C  120A  158A  242A   	fcall	___wmul
              120A  118A         
  2611  0161  1283               	bcf	status, 5	;RP0=0, select bank0
  2612  0162  1303               	bcf	status, 6	;RP1=0, select bank0
  2613  0163  084A               	movf	(ADCReadData@y),w
  2614  0164  0770               	addwf	(0+(?___wmul)),w
  2615  0165  00CE               	movwf	(ADCReadData@z)
  2616  0166  084B               	movf	(ADCReadData@y+1),w
  2617  0167  1803               	skipnc
  2618  0168  0A4B               	incf	(ADCReadData@y+1),w
  2619  0169  0771               	addwf	(1+(?___wmul)),w
  2620  016A  00CF               	movwf	1+(ADCReadData@z)
  2621                           	line	29
  2622                           	
  2623  016B                     l4300:	
  2624                           ;adc.c: 29: f=z;
  2625  016B  084F               	movf	(ADCReadData@z+1),w
  2626  016C  01F9               	clrf	(?___lwtoft+1)
  2627  016D  07F9               	addwf	(?___lwtoft+1)
  2628  016E  084E               	movf	(ADCReadData@z),w
  2629  016F  01F8               	clrf	(?___lwtoft)
  2630  0170  07F8               	addwf	(?___lwtoft)
  2631                           
  2632  0171  120A  158A  23CF   	fcall	___lwtoft
              120A  118A         
  2633  0176  0878               	movf	(0+(?___lwtoft)),w
  2634  0177  1283               	bcf	status, 5	;RP0=0, select bank0
  2635  0178  1303               	bcf	status, 6	;RP1=0, select bank0
  2636  0179  00C5               	movwf	(ADCReadData@f)
  2637  017A  0879               	movf	(1+(?___lwtoft)),w
  2638  017B  00C6               	movwf	(ADCReadData@f+1)
  2639  017C  087A               	movf	(2+(?___lwtoft)),w
  2640  017D  00C7               	movwf	(ADCReadData@f+2)
  2641                           	line	30
  2642                           	
  2643  017E                     l4302:	
  2644                           ;adc.c: 30: p =(f*5)/1023;
  2645  017E  3000               	movlw	0x0
  2646  017F  00B0               	movwf	(?___ftmul)
  2647  0180  30A0               	movlw	0xa0
  2648  0181  00B1               	movwf	(?___ftmul+1)
  2649  0182  3040               	movlw	0x40
  2650  0183  00B2               	movwf	(?___ftmul+2)
  2651  0184  0845               	movf	(ADCReadData@f),w
  2652  0185  00B3               	movwf	0+(?___ftmul)+03h
  2653  0186  0846               	movf	(ADCReadData@f+1),w
  2654  0187  00B4               	movwf	1+(?___ftmul)+03h
  2655  0188  0847               	movf	(ADCReadData@f+2),w
  2656  0189  00B5               	movwf	2+(?___ftmul)+03h
  2657  018A  120A  118A  2289   	fcall	___ftmul
              120A  118A         
  2658  018F  1283               	bcf	status, 5	;RP0=0, select bank0
  2659  0190  1303               	bcf	status, 6	;RP1=0, select bank0
  2660  0191  0830               	movf	(0+(?___ftmul)),w
  2661  0192  00D1               	movwf	(ADCReadData@p)
  2662  0193  0831               	movf	(1+(?___ftmul)),w
  2663  0194  00D2               	movwf	(ADCReadData@p+1)
  2664  0195  0832               	movf	(2+(?___ftmul)),w
  2665  0196  00D3               	movwf	(ADCReadData@p+2)
  2666                           	
  2667  0197                     l4304:	
  2668  0197  30C0               	movlw	0xc0
  2669  0198  00F8               	movwf	(?___ftdiv)
  2670  0199  307F               	movlw	0x7f
  2671  019A  00F9               	movwf	(?___ftdiv+1)
  2672  019B  3044               	movlw	0x44
  2673  019C  00FA               	movwf	(?___ftdiv+2)
  2674  019D  0851               	movf	(ADCReadData@p),w
  2675  019E  00FB               	movwf	0+(?___ftdiv)+03h
  2676  019F  0852               	movf	(ADCReadData@p+1),w
  2677  01A0  00FC               	movwf	1+(?___ftdiv)+03h
  2678  01A1  0853               	movf	(ADCReadData@p+2),w
  2679  01A2  00FD               	movwf	2+(?___ftdiv)+03h
  2680  01A3  120A  118A  21C3   	fcall	___ftdiv
              120A  118A         
  2681  01A8  0878               	movf	(0+(?___ftdiv)),w
  2682  01A9  1283               	bcf	status, 5	;RP0=0, select bank0
  2683  01AA  1303               	bcf	status, 6	;RP1=0, select bank0
  2684  01AB  00D1               	movwf	(ADCReadData@p)
  2685  01AC  0879               	movf	(1+(?___ftdiv)),w
  2686  01AD  00D2               	movwf	(ADCReadData@p+1)
  2687  01AE  087A               	movf	(2+(?___ftdiv)),w
  2688  01AF  00D3               	movwf	(ADCReadData@p+2)
  2689                           	line	32
  2690                           	
  2691  01B0                     l4306:	
  2692                           ;adc.c: 32: Delay(1);
  2693  01B0  3001               	movlw	low(01h)
  2694  01B1  00F0               	movwf	(?_Delay)
  2695  01B2  3000               	movlw	high(01h)
  2696  01B3  00F1               	movwf	((?_Delay))+1
  2697  01B4  120A  158A  23EA   	fcall	_Delay
              120A  118A         
  2698                           	line	33
  2699                           	
  2700  01B9                     l4308:	
  2701                           ;adc.c: 33: return p;
  2702  01B9  1283               	bcf	status, 5	;RP0=0, select bank0
  2703  01BA  1303               	bcf	status, 6	;RP1=0, select bank0
  2704  01BB  0851               	movf	(ADCReadData@p),w
  2705  01BC  00C0               	movwf	(?_ADCReadData)
  2706  01BD  0852               	movf	(ADCReadData@p+1),w
  2707  01BE  00C1               	movwf	(?_ADCReadData+1)
  2708  01BF  0853               	movf	(ADCReadData@p+2),w
  2709  01C0  00C2               	movwf	(?_ADCReadData+2)
  2710  01C1  29C2               	goto	l576
  2711                           	
  2712  01C2                     l4310:	
  2713                           	line	35
  2714                           	
  2715  01C2                     l576:	
  2716  01C2  0008               	return
  2717                           	opt stack 0
  2718                           GLOBAL	__end_of_ADCReadData
  2719  01C3                     	__end_of_ADCReadData:
  2720 ;; =============== function _ADCReadData ends ============
  2721                           
  2722                           	signat	_ADCReadData,4219
  2723                           	global	___lwtoft
  2724                           psect	text428,local,class=CODE,delta=2
  2725                           global __ptext428
  2726  0BCF                     __ptext428:
  2727                           
  2728 ;; *************** function ___lwtoft *****************
  2729 ;; Defined at:
  2730 ;;		line 29 in file "C:\Program Files (x86)\HI-TECH Software\PICC\9.80\sources\lwtoft.c"
  2731 ;; Parameters:    Size  Location     Type
  2732 ;;  c               2    8[COMMON] unsigned int 
  2733 ;; Auto vars:     Size  Location     Type
  2734 ;;		None
  2735 ;; Return value:  Size  Location     Type
  2736 ;;                  3    8[COMMON] float 
  2737 ;; Registers used:
  2738 ;;		wreg, status,2, status,0, pclath, cstack
  2739 ;; Tracked objects:
  2740 ;;		On entry : 0/0
  2741 ;;		On exit  : 0/0
  2742 ;;		Unchanged: 0/0
  2743 ;; Data sizes:     COMMON   BANK0   BANK1   BANK3   BANK2
  2744 ;;      Params:         3       0       0       0       0
  2745 ;;      Locals:         0       0       0       0       0
  2746 ;;      Temps:          1       0       0       0       0
  2747 ;;      Totals:         4       0       0       0       0
  2748 ;;Total ram usage:        4 bytes
  2749 ;; Hardware stack levels used:    1
  2750 ;; Hardware stack levels required when called:    1
  2751 ;; This function calls:
  2752 ;;		___ftpack
  2753 ;; This function is called by:
  2754 ;;		_ADCReadData
  2755 ;; This function uses a non-reentrant model
  2756 ;;
  2757                           psect	text428
  2758                           	file	"C:\Program Files (x86)\HI-TECH Software\PICC\9.80\sources\lwtoft.c"
  2759                           	line	29
  2760                           	global	__size_of___lwtoft
  2761  001B                     	__size_of___lwtoft	equ	__end_of___lwtoft-___lwtoft
  2762                           	
  2763  0BCF                     ___lwtoft:	
  2764                           	opt	stack 5
  2765                           ; Regs used in ___lwtoft: [wreg+status,2+status,0+pclath+cstack]
  2766                           	line	30
  2767                           	
  2768  0BCF                     l4280:	
  2769  0BCF  0878               	movf	(___lwtoft@c),w
  2770  0BD0  00F0               	movwf	(?___ftpack)
  2771  0BD1  0879               	movf	(___lwtoft@c+1),w
  2772  0BD2  00F1               	movwf	(?___ftpack+1)
  2773  0BD3  01F2               	clrf	(?___ftpack+2)
  2774  0BD4  308E               	movlw	(08Eh)
  2775  0BD5  00FB               	movwf	(??___lwtoft+0)+0
  2776  0BD6  087B               	movf	(??___lwtoft+0)+0,w
  2777  0BD7  00F3               	movwf	0+(?___ftpack)+03h
  2778  0BD8  1003               	clrc
  2779  0BD9  3000               	movlw	0
  2780  0BDA  1803               	btfsc	status,0
  2781  0BDB  3001               	movlw	1
  2782  0BDC  00F4               	movwf	0+(?___ftpack)+04h
  2783  0BDD  120A  158A  2660   	fcall	___ftpack
              120A  158A         
  2784  0BE2  0870               	movf	(0+(?___ftpack)),w
  2785  0BE3  00F8               	movwf	(?___lwtoft)
  2786  0BE4  0871               	movf	(1+(?___ftpack)),w
  2787  0BE5  00F9               	movwf	(?___lwtoft+1)
  2788  0BE6  0872               	movf	(2+(?___ftpack)),w
  2789  0BE7  00FA               	movwf	(?___lwtoft+2)
  2790  0BE8  2BE9               	goto	l2029
  2791                           	
  2792  0BE9                     l4282:	
  2793                           	line	31
  2794                           	
  2795  0BE9                     l2029:	
  2796  0BE9  0008               	return
  2797                           	opt stack 0
  2798                           GLOBAL	__end_of___lwtoft
  2799  0BEA                     	__end_of___lwtoft:
  2800 ;; =============== function ___lwtoft ends ============
  2801                           
  2802                           	signat	___lwtoft,4219
  2803                           	global	___awtoft
  2804                           psect	text429,local,class=CODE,delta=2
  2805                           global __ptext429
  2806  0C56                     __ptext429:
  2807                           
  2808 ;; *************** function ___awtoft *****************
  2809 ;; Defined at:
  2810 ;;		line 33 in file "C:\Program Files (x86)\HI-TECH Software\PICC\9.80\sources\awtoft.c"
  2811 ;; Parameters:    Size  Location     Type
  2812 ;;  c               2   11[COMMON] int 
  2813 ;; Auto vars:     Size  Location     Type
  2814 ;;  sign            1    2[BANK0 ] unsigned char 
  2815 ;; Return value:  Size  Location     Type
  2816 ;;                  3   11[COMMON] float 
  2817 ;; Registers used:
  2818 ;;		wreg, status,2, status,0, pclath, cstack
  2819 ;; Tracked objects:
  2820 ;;		On entry : 0/0
  2821 ;;		On exit  : 0/0
  2822 ;;		Unchanged: 0/0
  2823 ;; Data sizes:     COMMON   BANK0   BANK1   BANK3   BANK2
  2824 ;;      Params:         3       0       0       0       0
  2825 ;;      Locals:         0       1       0       0       0
  2826 ;;      Temps:          0       2       0       0       0
  2827 ;;      Totals:         3       3       0       0       0
  2828 ;;Total ram usage:        6 bytes
  2829 ;; Hardware stack levels used:    1
  2830 ;; Hardware stack levels required when called:    1
  2831 ;; This function calls:
  2832 ;;		___ftpack
  2833 ;; This function is called by:
  2834 ;;		_SendFloatSerially
  2835 ;; This function uses a non-reentrant model
  2836 ;;
  2837                           psect	text429
  2838                           	file	"C:\Program Files (x86)\HI-TECH Software\PICC\9.80\sources\awtoft.c"
  2839                           	line	33
  2840                           	global	__size_of___awtoft
  2841  002E                     	__size_of___awtoft	equ	__end_of___awtoft-___awtoft
  2842                           	
  2843  0C56                     ___awtoft:	
  2844                           	opt	stack 5
  2845                           ; Regs used in ___awtoft: [wreg+status,2+status,0+pclath+cstack]
  2846                           	line	36
  2847                           	
  2848  0C56                     l4270:	
  2849  0C56  1003               	clrc
  2850  0C57  3000               	movlw	0
  2851  0C58  1803               	btfsc	status,0
  2852  0C59  3001               	movlw	1
  2853  0C5A  1283               	bcf	status, 5	;RP0=0, select bank0
  2854  0C5B  1303               	bcf	status, 6	;RP1=0, select bank0
  2855  0C5C  00A2               	movwf	(___awtoft@sign)
  2856                           	line	37
  2857                           	
  2858  0C5D                     l4272:	
  2859  0C5D  1FFC               	btfss	(___awtoft@c+1),7
  2860  0C5E  2C60               	goto	u3541
  2861  0C5F  2C61               	goto	u3540
  2862  0C60                     u3541:
  2863  0C60  2C6A               	goto	l4276
  2864  0C61                     u3540:
  2865                           	line	38
  2866                           	
  2867  0C61                     l4274:	
  2868  0C61  09FB               	comf	(___awtoft@c),f
  2869  0C62  09FC               	comf	(___awtoft@c+1),f
  2870  0C63  0AFB               	incf	(___awtoft@c),f
  2871  0C64  1903               	skipnz
  2872  0C65  0AFC               	incf	(___awtoft@c+1),f
  2873                           	line	39
  2874  0C66  01A2               	clrf	(___awtoft@sign)
  2875  0C67  1403               	bsf	status,0
  2876  0C68  0DA2               	rlf	(___awtoft@sign),f
  2877  0C69  2C6A               	goto	l4276
  2878                           	line	40
  2879                           	
  2880  0C6A                     l1942:	
  2881                           	line	41
  2882                           	
  2883  0C6A                     l4276:	
  2884  0C6A  087B               	movf	(___awtoft@c),w
  2885  0C6B  00F0               	movwf	(?___ftpack)
  2886  0C6C  087C               	movf	(___awtoft@c+1),w
  2887  0C6D  00F1               	movwf	(?___ftpack+1)
  2888  0C6E  01F2               	clrf	(?___ftpack+2)
  2889  0C6F  308E               	movlw	(08Eh)
  2890  0C70  00A0               	movwf	(??___awtoft+0)+0
  2891  0C71  0820               	movf	(??___awtoft+0)+0,w
  2892  0C72  00F3               	movwf	0+(?___ftpack)+03h
  2893  0C73  0822               	movf	(___awtoft@sign),w
  2894  0C74  00A1               	movwf	(??___awtoft+1)+0
  2895  0C75  0821               	movf	(??___awtoft+1)+0,w
  2896  0C76  00F4               	movwf	0+(?___ftpack)+04h
  2897  0C77  120A  158A  2660   	fcall	___ftpack
              120A  158A         
  2898  0C7C  0870               	movf	(0+(?___ftpack)),w
  2899  0C7D  00FB               	movwf	(?___awtoft)
  2900  0C7E  0871               	movf	(1+(?___ftpack)),w
  2901  0C7F  00FC               	movwf	(?___awtoft+1)
  2902  0C80  0872               	movf	(2+(?___ftpack)),w
  2903  0C81  00FD               	movwf	(?___awtoft+2)
  2904  0C82  2C83               	goto	l1943
  2905                           	
  2906  0C83                     l4278:	
  2907                           	line	42
  2908                           	
  2909  0C83                     l1943:	
  2910  0C83  0008               	return
  2911                           	opt stack 0
  2912                           GLOBAL	__end_of___awtoft
  2913  0C84                     	__end_of___awtoft:
  2914 ;; =============== function ___awtoft ends ============
  2915                           
  2916                           	signat	___awtoft,4219
  2917                           	global	___ftmul
  2918                           psect	text430,local,class=CODE,delta=2
  2919                           global __ptext430
  2920  0289                     __ptext430:
  2921                           
  2922 ;; *************** function ___ftmul *****************
  2923 ;; Defined at:
  2924 ;;		line 52 in file "C:\Program Files (x86)\HI-TECH Software\PICC\9.80\sources\ftmul.c"
  2925 ;; Parameters:    Size  Location     Type
  2926 ;;  f1              3   16[BANK0 ] float 
  2927 ;;  f2              3   19[BANK0 ] float 
  2928 ;; Auto vars:     Size  Location     Type
  2929 ;;  f3_as_produc    3   27[BANK0 ] unsigned um
  2930 ;;  sign            1   31[BANK0 ] unsigned char 
  2931 ;;  cntr            1   30[BANK0 ] unsigned char 
  2932 ;;  exp             1   26[BANK0 ] unsigned char 
  2933 ;; Return value:  Size  Location     Type
  2934 ;;                  3   16[BANK0 ] float 
  2935 ;; Registers used:
  2936 ;;		wreg, status,2, status,0, pclath, cstack
  2937 ;; Tracked objects:
  2938 ;;		On entry : 0/0
  2939 ;;		On exit  : 0/0
  2940 ;;		Unchanged: 0/0
  2941 ;; Data sizes:     COMMON   BANK0   BANK1   BANK3   BANK2
  2942 ;;      Params:         0       6       0       0       0
  2943 ;;      Locals:         0       6       0       0       0
  2944 ;;      Temps:          0       4       0       0       0
  2945 ;;      Totals:         0      16       0       0       0
  2946 ;;Total ram usage:       16 bytes
  2947 ;; Hardware stack levels used:    1
  2948 ;; Hardware stack levels required when called:    1
  2949 ;; This function calls:
  2950 ;;		___ftpack
  2951 ;; This function is called by:
  2952 ;;		_ADCReadData
  2953 ;;		_main
  2954 ;;		_SendFloatSerially
  2955 ;; This function uses a non-reentrant model
  2956 ;;
  2957                           psect	text430
  2958                           	file	"C:\Program Files (x86)\HI-TECH Software\PICC\9.80\sources\ftmul.c"
  2959                           	line	52
  2960                           	global	__size_of___ftmul
  2961  00EE                     	__size_of___ftmul	equ	__end_of___ftmul-___ftmul
  2962                           	
  2963  0289                     ___ftmul:	
  2964                           	opt	stack 5
  2965                           ; Regs used in ___ftmul: [wreg+status,2+status,0+pclath+cstack]
  2966                           	line	56
  2967                           	
  2968  0289                     l4220:	
  2969  0289  1283               	bcf	status, 5	;RP0=0, select bank0
  2970  028A  1303               	bcf	status, 6	;RP1=0, select bank0
  2971  028B  0830               	movf	(___ftmul@f1),w
  2972  028C  00B6               	movwf	((??___ftmul+0)+0)
  2973  028D  0831               	movf	(___ftmul@f1+1),w
  2974  028E  00B7               	movwf	((??___ftmul+0)+0+1)
  2975  028F  0832               	movf	(___ftmul@f1+2),w
  2976  0290  00B8               	movwf	((??___ftmul+0)+0+2)
  2977  0291  1003               	clrc
  2978  0292  0D37               	rlf	(??___ftmul+0)+1,w
  2979  0293  0D38               	rlf	(??___ftmul+0)+2,w
  2980  0294  00B9               	movwf	(??___ftmul+3)+0
  2981  0295  0839               	movf	(??___ftmul+3)+0,w
  2982  0296  00BA               	movwf	(___ftmul@exp)
  2983  0297  08BA               	movf	((___ftmul@exp)),f
  2984  0298  1D03               	skipz
  2985  0299  2A9B               	goto	u3401
  2986  029A  2A9C               	goto	u3400
  2987  029B                     u3401:
  2988  029B  2AA4               	goto	l4226
  2989  029C                     u3400:
  2990                           	line	57
  2991                           	
  2992  029C                     l4222:	
  2993  029C  3000               	movlw	0x0
  2994  029D  00B0               	movwf	(?___ftmul)
  2995  029E  3000               	movlw	0x0
  2996  029F  00B1               	movwf	(?___ftmul+1)
  2997  02A0  3000               	movlw	0x0
  2998  02A1  00B2               	movwf	(?___ftmul+2)
  2999  02A2  2B76               	goto	l1905
  3000                           	
  3001  02A3                     l4224:	
  3002  02A3  2B76               	goto	l1905
  3003                           	
  3004  02A4                     l1904:	
  3005                           	line	58
  3006                           	
  3007  02A4                     l4226:	
  3008  02A4  0833               	movf	(___ftmul@f2),w
  3009  02A5  00B6               	movwf	((??___ftmul+0)+0)
  3010  02A6  0834               	movf	(___ftmul@f2+1),w
  3011  02A7  00B7               	movwf	((??___ftmul+0)+0+1)
  3012  02A8  0835               	movf	(___ftmul@f2+2),w
  3013  02A9  00B8               	movwf	((??___ftmul+0)+0+2)
  3014  02AA  1003               	clrc
  3015  02AB  0D37               	rlf	(??___ftmul+0)+1,w
  3016  02AC  0D38               	rlf	(??___ftmul+0)+2,w
  3017  02AD  00B9               	movwf	(??___ftmul+3)+0
  3018  02AE  0839               	movf	(??___ftmul+3)+0,w
  3019  02AF  00BF               	movwf	(___ftmul@sign)
  3020  02B0  08BF               	movf	((___ftmul@sign)),f
  3021  02B1  1D03               	skipz
  3022  02B2  2AB4               	goto	u3411
  3023  02B3  2AB5               	goto	u3410
  3024  02B4                     u3411:
  3025  02B4  2ABD               	goto	l4232
  3026  02B5                     u3410:
  3027                           	line	59
  3028                           	
  3029  02B5                     l4228:	
  3030  02B5  3000               	movlw	0x0
  3031  02B6  00B0               	movwf	(?___ftmul)
  3032  02B7  3000               	movlw	0x0
  3033  02B8  00B1               	movwf	(?___ftmul+1)
  3034  02B9  3000               	movlw	0x0
  3035  02BA  00B2               	movwf	(?___ftmul+2)
  3036  02BB  2B76               	goto	l1905
  3037                           	
  3038  02BC                     l4230:	
  3039  02BC  2B76               	goto	l1905
  3040                           	
  3041  02BD                     l1906:	
  3042                           	line	60
  3043                           	
  3044  02BD                     l4232:	
  3045  02BD  083F               	movf	(___ftmul@sign),w
  3046  02BE  3E7B               	addlw	07Bh
  3047  02BF  00B6               	movwf	(??___ftmul+0)+0
  3048  02C0  0836               	movf	(??___ftmul+0)+0,w
  3049  02C1  07BA               	addwf	(___ftmul@exp),f
  3050                           	line	61
  3051  02C2  0830               	movf	(___ftmul@f1),w
  3052  02C3  00B6               	movwf	((??___ftmul+0)+0)
  3053  02C4  0831               	movf	(___ftmul@f1+1),w
  3054  02C5  00B7               	movwf	((??___ftmul+0)+0+1)
  3055  02C6  0832               	movf	(___ftmul@f1+2),w
  3056  02C7  00B8               	movwf	((??___ftmul+0)+0+2)
  3057  02C8  3010               	movlw	010h
  3058  02C9                     u3425:
  3059  02C9  1003               	clrc
  3060  02CA  0CB8               	rrf	(??___ftmul+0)+2,f
  3061  02CB  0CB7               	rrf	(??___ftmul+0)+1,f
  3062  02CC  0CB6               	rrf	(??___ftmul+0)+0,f
  3063  02CD                     u3420:
  3064  02CD  3EFF               	addlw	-1
  3065  02CE  1D03               	skipz
  3066  02CF  2AC9               	goto	u3425
  3067  02D0  0836               	movf	0+(??___ftmul+0)+0,w
  3068  02D1  00B9               	movwf	(??___ftmul+3)+0
  3069  02D2  0839               	movf	(??___ftmul+3)+0,w
  3070  02D3  00BF               	movwf	(___ftmul@sign)
  3071                           	line	62
  3072  02D4  0833               	movf	(___ftmul@f2),w
  3073  02D5  00B6               	movwf	((??___ftmul+0)+0)
  3074  02D6  0834               	movf	(___ftmul@f2+1),w
  3075  02D7  00B7               	movwf	((??___ftmul+0)+0+1)
  3076  02D8  0835               	movf	(___ftmul@f2+2),w
  3077  02D9  00B8               	movwf	((??___ftmul+0)+0+2)
  3078  02DA  3010               	movlw	010h
  3079  02DB                     u3435:
  3080  02DB  1003               	clrc
  3081  02DC  0CB8               	rrf	(??___ftmul+0)+2,f
  3082  02DD  0CB7               	rrf	(??___ftmul+0)+1,f
  3083  02DE  0CB6               	rrf	(??___ftmul+0)+0,f
  3084  02DF                     u3430:
  3085  02DF  3EFF               	addlw	-1
  3086  02E0  1D03               	skipz
  3087  02E1  2ADB               	goto	u3435
  3088  02E2  0836               	movf	0+(??___ftmul+0)+0,w
  3089  02E3  00B9               	movwf	(??___ftmul+3)+0
  3090  02E4  0839               	movf	(??___ftmul+3)+0,w
  3091  02E5  06BF               	xorwf	(___ftmul@sign),f
  3092                           	line	63
  3093  02E6  3080               	movlw	(080h)
  3094  02E7  00B6               	movwf	(??___ftmul+0)+0
  3095  02E8  0836               	movf	(??___ftmul+0)+0,w
  3096  02E9  05BF               	andwf	(___ftmul@sign),f
  3097                           	line	64
  3098                           	
  3099  02EA                     l4234:	
  3100  02EA  17B1               	bsf	(___ftmul@f1)+(15/8),(15)&7
  3101                           	line	66
  3102                           	
  3103  02EB                     l4236:	
  3104  02EB  17B4               	bsf	(___ftmul@f2)+(15/8),(15)&7
  3105                           	line	67
  3106                           	
  3107  02EC                     l4238:	
  3108  02EC  30FF               	movlw	0FFh
  3109  02ED  05B3               	andwf	(___ftmul@f2),f
  3110  02EE  30FF               	movlw	0FFh
  3111  02EF  05B4               	andwf	(___ftmul@f2+1),f
  3112  02F0  3000               	movlw	0
  3113  02F1  05B5               	andwf	(___ftmul@f2+2),f
  3114                           	line	68
  3115                           	
  3116  02F2                     l4240:	
  3117  02F2  3000               	movlw	0
  3118  02F3  00BB               	movwf	(___ftmul@f3_as_product)
  3119  02F4  3000               	movlw	0
  3120  02F5  00BC               	movwf	(___ftmul@f3_as_product+1)
  3121  02F6  3000               	movlw	0
  3122  02F7  00BD               	movwf	(___ftmul@f3_as_product+2)
  3123                           	line	69
  3124                           	
  3125  02F8                     l4242:	
  3126  02F8  3007               	movlw	(07h)
  3127  02F9  00B6               	movwf	(??___ftmul+0)+0
  3128  02FA  0836               	movf	(??___ftmul+0)+0,w
  3129  02FB  00BE               	movwf	(___ftmul@cntr)
  3130  02FC  2AFD               	goto	l4244
  3131                           	line	70
  3132                           	
  3133  02FD                     l1907:	
  3134                           	line	71
  3135                           	
  3136  02FD                     l4244:	
  3137  02FD  1C30               	btfss	(___ftmul@f1),(0)&7
  3138  02FE  2B00               	goto	u3441
  3139  02FF  2B01               	goto	u3440
  3140  0300                     u3441:
  3141  0300  2B12               	goto	l4248
  3142  0301                     u3440:
  3143                           	line	72
  3144                           	
  3145  0301                     l4246:	
  3146  0301  0833               	movf	(___ftmul@f2),w
  3147  0302  07BB               	addwf	(___ftmul@f3_as_product),f
  3148  0303  0834               	movf	(___ftmul@f2+1),w
  3149  0304  1103               	clrz
  3150  0305  1803               	skipnc
  3151  0306  0A34               	incf	(___ftmul@f2+1),w
  3152  0307  1903               	skipnz
  3153  0308  2B0A               	goto	u3451
  3154  0309  07BC               	addwf	(___ftmul@f3_as_product+1),f
  3155  030A                     u3451:
  3156  030A  0835               	movf	(___ftmul@f2+2),w
  3157  030B  1103               	clrz
  3158  030C  1803               	skipnc
  3159  030D  0A35               	incf	(___ftmul@f2+2),w
  3160  030E  1903               	skipnz
  3161  030F  2B11               	goto	u3452
  3162  0310  07BD               	addwf	(___ftmul@f3_as_product+2),f
  3163  0311                     u3452:
  3164                           
  3165  0311  2B12               	goto	l4248
  3166                           	
  3167  0312                     l1908:	
  3168                           	line	73
  3169                           	
  3170  0312                     l4248:	
  3171  0312  3001               	movlw	01h
  3172  0313                     u3465:
  3173  0313  1003               	clrc
  3174  0314  0CB2               	rrf	(___ftmul@f1+2),f
  3175  0315  0CB1               	rrf	(___ftmul@f1+1),f
  3176  0316  0CB0               	rrf	(___ftmul@f1),f
  3177  0317  3EFF               	addlw	-1
  3178  0318  1D03               	skipz
  3179  0319  2B13               	goto	u3465
  3180                           
  3181                           	line	74
  3182                           	
  3183  031A                     l4250:	
  3184  031A  3001               	movlw	01h
  3185  031B                     u3475:
  3186  031B  1003               	clrc
  3187  031C  0DB3               	rlf	(___ftmul@f2),f
  3188  031D  0DB4               	rlf	(___ftmul@f2+1),f
  3189  031E  0DB5               	rlf	(___ftmul@f2+2),f
  3190  031F  3EFF               	addlw	-1
  3191  0320  1D03               	skipz
  3192  0321  2B1B               	goto	u3475
  3193                           	line	75
  3194                           	
  3195  0322                     l4252:	
  3196  0322  3001               	movlw	low(01h)
  3197  0323  02BE               	subwf	(___ftmul@cntr),f
  3198  0324  1D03               	btfss	status,2
  3199  0325  2B27               	goto	u3481
  3200  0326  2B28               	goto	u3480
  3201  0327                     u3481:
  3202  0327  2AFD               	goto	l4244
  3203  0328                     u3480:
  3204  0328  2B29               	goto	l4254
  3205                           	
  3206  0329                     l1909:	
  3207                           	line	76
  3208                           	
  3209  0329                     l4254:	
  3210  0329  3009               	movlw	(09h)
  3211  032A  00B6               	movwf	(??___ftmul+0)+0
  3212  032B  0836               	movf	(??___ftmul+0)+0,w
  3213  032C  00BE               	movwf	(___ftmul@cntr)
  3214  032D  2B2E               	goto	l4256
  3215                           	line	77
  3216                           	
  3217  032E                     l1910:	
  3218                           	line	78
  3219                           	
  3220  032E                     l4256:	
  3221  032E  1C30               	btfss	(___ftmul@f1),(0)&7
  3222  032F  2B31               	goto	u3491
  3223  0330  2B32               	goto	u3490
  3224  0331                     u3491:
  3225  0331  2B43               	goto	l4260
  3226  0332                     u3490:
  3227                           	line	79
  3228                           	
  3229  0332                     l4258:	
  3230  0332  0833               	movf	(___ftmul@f2),w
  3231  0333  07BB               	addwf	(___ftmul@f3_as_product),f
  3232  0334  0834               	movf	(___ftmul@f2+1),w
  3233  0335  1103               	clrz
  3234  0336  1803               	skipnc
  3235  0337  0A34               	incf	(___ftmul@f2+1),w
  3236  0338  1903               	skipnz
  3237  0339  2B3B               	goto	u3501
  3238  033A  07BC               	addwf	(___ftmul@f3_as_product+1),f
  3239  033B                     u3501:
  3240  033B  0835               	movf	(___ftmul@f2+2),w
  3241  033C  1103               	clrz
  3242  033D  1803               	skipnc
  3243  033E  0A35               	incf	(___ftmul@f2+2),w
  3244  033F  1903               	skipnz
  3245  0340  2B42               	goto	u3502
  3246  0341  07BD               	addwf	(___ftmul@f3_as_product+2),f
  3247  0342                     u3502:
  3248                           
  3249  0342  2B43               	goto	l4260
  3250                           	
  3251  0343                     l1911:	
  3252                           	line	80
  3253                           	
  3254  0343                     l4260:	
  3255  0343  3001               	movlw	01h
  3256  0344                     u3515:
  3257  0344  1003               	clrc
  3258  0345  0CB2               	rrf	(___ftmul@f1+2),f
  3259  0346  0CB1               	rrf	(___ftmul@f1+1),f
  3260  0347  0CB0               	rrf	(___ftmul@f1),f
  3261  0348  3EFF               	addlw	-1
  3262  0349  1D03               	skipz
  3263  034A  2B44               	goto	u3515
  3264                           
  3265                           	line	81
  3266                           	
  3267  034B                     l4262:	
  3268  034B  3001               	movlw	01h
  3269  034C                     u3525:
  3270  034C  1003               	clrc
  3271  034D  0CBD               	rrf	(___ftmul@f3_as_product+2),f
  3272  034E  0CBC               	rrf	(___ftmul@f3_as_product+1),f
  3273  034F  0CBB               	rrf	(___ftmul@f3_as_product),f
  3274  0350  3EFF               	addlw	-1
  3275  0351  1D03               	skipz
  3276  0352  2B4C               	goto	u3525
  3277                           
  3278                           	line	82
  3279                           	
  3280  0353                     l4264:	
  3281  0353  3001               	movlw	low(01h)
  3282  0354  02BE               	subwf	(___ftmul@cntr),f
  3283  0355  1D03               	btfss	status,2
  3284  0356  2B58               	goto	u3531
  3285  0357  2B59               	goto	u3530
  3286  0358                     u3531:
  3287  0358  2B2E               	goto	l4256
  3288  0359                     u3530:
  3289  0359  2B5A               	goto	l4266
  3290                           	
  3291  035A                     l1912:	
  3292                           	line	83
  3293                           	
  3294  035A                     l4266:	
  3295  035A  083B               	movf	(___ftmul@f3_as_product),w
  3296  035B  00F0               	movwf	(?___ftpack)
  3297  035C  083C               	movf	(___ftmul@f3_as_product+1),w
  3298  035D  00F1               	movwf	(?___ftpack+1)
  3299  035E  083D               	movf	(___ftmul@f3_as_product+2),w
  3300  035F  00F2               	movwf	(?___ftpack+2)
  3301  0360  083A               	movf	(___ftmul@exp),w
  3302  0361  00B6               	movwf	(??___ftmul+0)+0
  3303  0362  0836               	movf	(??___ftmul+0)+0,w
  3304  0363  00F3               	movwf	0+(?___ftpack)+03h
  3305  0364  083F               	movf	(___ftmul@sign),w
  3306  0365  00B7               	movwf	(??___ftmul+1)+0
  3307  0366  0837               	movf	(??___ftmul+1)+0,w
  3308  0367  00F4               	movwf	0+(?___ftpack)+04h
  3309  0368  120A  158A  2660   	fcall	___ftpack
              120A  118A         
  3310  036D  0870               	movf	(0+(?___ftpack)),w
  3311  036E  1283               	bcf	status, 5	;RP0=0, select bank0
  3312  036F  1303               	bcf	status, 6	;RP1=0, select bank0
  3313  0370  00B0               	movwf	(?___ftmul)
  3314  0371  0871               	movf	(1+(?___ftpack)),w
  3315  0372  00B1               	movwf	(?___ftmul+1)
  3316  0373  0872               	movf	(2+(?___ftpack)),w
  3317  0374  00B2               	movwf	(?___ftmul+2)
  3318  0375  2B76               	goto	l1905
  3319                           	
  3320  0376                     l4268:	
  3321                           	line	84
  3322                           	
  3323  0376                     l1905:	
  3324  0376  0008               	return
  3325                           	opt stack 0
  3326                           GLOBAL	__end_of___ftmul
  3327  0377                     	__end_of___ftmul:
  3328 ;; =============== function ___ftmul ends ============
  3329                           
  3330                           	signat	___ftmul,8315
  3331                           	global	___ftdiv
  3332                           psect	text431,local,class=CODE,delta=2
  3333                           global __ptext431
  3334  01C3                     __ptext431:
  3335                           
  3336 ;; *************** function ___ftdiv *****************
  3337 ;; Defined at:
  3338 ;;		line 50 in file "C:\Program Files (x86)\HI-TECH Software\PICC\9.80\sources\ftdiv.c"
  3339 ;; Parameters:    Size  Location     Type
  3340 ;;  f2              3    8[COMMON] float 
  3341 ;;  f1              3   11[COMMON] float 
  3342 ;; Auto vars:     Size  Location     Type
  3343 ;;  f3              3    5[BANK0 ] float 
  3344 ;;  sign            1    9[BANK0 ] unsigned char 
  3345 ;;  exp             1    8[BANK0 ] unsigned char 
  3346 ;;  cntr            1    4[BANK0 ] unsigned char 
  3347 ;; Return value:  Size  Location     Type
  3348 ;;                  3    8[COMMON] float 
  3349 ;; Registers used:
  3350 ;;		wreg, status,2, status,0, pclath, cstack
  3351 ;; Tracked objects:
  3352 ;;		On entry : 0/0
  3353 ;;		On exit  : 0/0
  3354 ;;		Unchanged: 0/0
  3355 ;; Data sizes:     COMMON   BANK0   BANK1   BANK3   BANK2
  3356 ;;      Params:         6       0       0       0       0
  3357 ;;      Locals:         0       6       0       0       0
  3358 ;;      Temps:          0       4       0       0       0
  3359 ;;      Totals:         6      10       0       0       0
  3360 ;;Total ram usage:       16 bytes
  3361 ;; Hardware stack levels used:    1
  3362 ;; Hardware stack levels required when called:    1
  3363 ;; This function calls:
  3364 ;;		___ftpack
  3365 ;; This function is called by:
  3366 ;;		_ADCReadData
  3367 ;;		_main
  3368 ;; This function uses a non-reentrant model
  3369 ;;
  3370                           psect	text431
  3371                           	file	"C:\Program Files (x86)\HI-TECH Software\PICC\9.80\sources\ftdiv.c"
  3372                           	line	50
  3373                           	global	__size_of___ftdiv
  3374  00C6                     	__size_of___ftdiv	equ	__end_of___ftdiv-___ftdiv
  3375                           	
  3376  01C3                     ___ftdiv:	
  3377                           	opt	stack 6
  3378                           ; Regs used in ___ftdiv: [wreg+status,2+status,0+pclath+cstack]
  3379                           	line	55
  3380                           	
  3381  01C3                     l4178:	
  3382  01C3  087B               	movf	(___ftdiv@f1),w
  3383  01C4  1283               	bcf	status, 5	;RP0=0, select bank0
  3384  01C5  1303               	bcf	status, 6	;RP1=0, select bank0
  3385  01C6  00A0               	movwf	((??___ftdiv+0)+0)
  3386  01C7  087C               	movf	(___ftdiv@f1+1),w
  3387  01C8  00A1               	movwf	((??___ftdiv+0)+0+1)
  3388  01C9  087D               	movf	(___ftdiv@f1+2),w
  3389  01CA  00A2               	movwf	((??___ftdiv+0)+0+2)
  3390  01CB  1003               	clrc
  3391  01CC  0D21               	rlf	(??___ftdiv+0)+1,w
  3392  01CD  0D22               	rlf	(??___ftdiv+0)+2,w
  3393  01CE  00A3               	movwf	(??___ftdiv+3)+0
  3394  01CF  0823               	movf	(??___ftdiv+3)+0,w
  3395  01D0  00A8               	movwf	(___ftdiv@exp)
  3396  01D1  08A8               	movf	((___ftdiv@exp)),f
  3397  01D2  1D03               	skipz
  3398  01D3  29D5               	goto	u3321
  3399  01D4  29D6               	goto	u3320
  3400  01D5                     u3321:
  3401  01D5  29DE               	goto	l4184
  3402  01D6                     u3320:
  3403                           	line	56
  3404                           	
  3405  01D6                     l4180:	
  3406  01D6  3000               	movlw	0x0
  3407  01D7  00F8               	movwf	(?___ftdiv)
  3408  01D8  3000               	movlw	0x0
  3409  01D9  00F9               	movwf	(?___ftdiv+1)
  3410  01DA  3000               	movlw	0x0
  3411  01DB  00FA               	movwf	(?___ftdiv+2)
  3412  01DC  2A88               	goto	l1895
  3413                           	
  3414  01DD                     l4182:	
  3415  01DD  2A88               	goto	l1895
  3416                           	
  3417  01DE                     l1894:	
  3418                           	line	57
  3419                           	
  3420  01DE                     l4184:	
  3421  01DE  0878               	movf	(___ftdiv@f2),w
  3422  01DF  00A0               	movwf	((??___ftdiv+0)+0)
  3423  01E0  0879               	movf	(___ftdiv@f2+1),w
  3424  01E1  00A1               	movwf	((??___ftdiv+0)+0+1)
  3425  01E2  087A               	movf	(___ftdiv@f2+2),w
  3426  01E3  00A2               	movwf	((??___ftdiv+0)+0+2)
  3427  01E4  1003               	clrc
  3428  01E5  0D21               	rlf	(??___ftdiv+0)+1,w
  3429  01E6  0D22               	rlf	(??___ftdiv+0)+2,w
  3430  01E7  00A3               	movwf	(??___ftdiv+3)+0
  3431  01E8  0823               	movf	(??___ftdiv+3)+0,w
  3432  01E9  00A9               	movwf	(___ftdiv@sign)
  3433  01EA  08A9               	movf	((___ftdiv@sign)),f
  3434  01EB  1D03               	skipz
  3435  01EC  29EE               	goto	u3331
  3436  01ED  29EF               	goto	u3330
  3437  01EE                     u3331:
  3438  01EE  29F7               	goto	l4190
  3439  01EF                     u3330:
  3440                           	line	58
  3441                           	
  3442  01EF                     l4186:	
  3443  01EF  3000               	movlw	0x0
  3444  01F0  00F8               	movwf	(?___ftdiv)
  3445  01F1  3000               	movlw	0x0
  3446  01F2  00F9               	movwf	(?___ftdiv+1)
  3447  01F3  3000               	movlw	0x0
  3448  01F4  00FA               	movwf	(?___ftdiv+2)
  3449  01F5  2A88               	goto	l1895
  3450                           	
  3451  01F6                     l4188:	
  3452  01F6  2A88               	goto	l1895
  3453                           	
  3454  01F7                     l1896:	
  3455                           	line	59
  3456                           	
  3457  01F7                     l4190:	
  3458  01F7  3000               	movlw	0
  3459  01F8  00A5               	movwf	(___ftdiv@f3)
  3460  01F9  3000               	movlw	0
  3461  01FA  00A6               	movwf	(___ftdiv@f3+1)
  3462  01FB  3000               	movlw	0
  3463  01FC  00A7               	movwf	(___ftdiv@f3+2)
  3464                           	line	60
  3465                           	
  3466  01FD                     l4192:	
  3467  01FD  3089               	movlw	(089h)
  3468  01FE  0729               	addwf	(___ftdiv@sign),w
  3469  01FF  00A0               	movwf	(??___ftdiv+0)+0
  3470  0200  0820               	movf	0+(??___ftdiv+0)+0,w
  3471  0201  02A8               	subwf	(___ftdiv@exp),f
  3472                           	line	61
  3473                           	
  3474  0202                     l4194:	
  3475  0202  087B               	movf	(___ftdiv@f1),w
  3476  0203  00A0               	movwf	((??___ftdiv+0)+0)
  3477  0204  087C               	movf	(___ftdiv@f1+1),w
  3478  0205  00A1               	movwf	((??___ftdiv+0)+0+1)
  3479  0206  087D               	movf	(___ftdiv@f1+2),w
  3480  0207  00A2               	movwf	((??___ftdiv+0)+0+2)
  3481  0208  3010               	movlw	010h
  3482  0209                     u3345:
  3483  0209  1003               	clrc
  3484  020A  0CA2               	rrf	(??___ftdiv+0)+2,f
  3485  020B  0CA1               	rrf	(??___ftdiv+0)+1,f
  3486  020C  0CA0               	rrf	(??___ftdiv+0)+0,f
  3487  020D                     u3340:
  3488  020D  3EFF               	addlw	-1
  3489  020E  1D03               	skipz
  3490  020F  2A09               	goto	u3345
  3491  0210  0820               	movf	0+(??___ftdiv+0)+0,w
  3492  0211  00A3               	movwf	(??___ftdiv+3)+0
  3493  0212  0823               	movf	(??___ftdiv+3)+0,w
  3494  0213  00A9               	movwf	(___ftdiv@sign)
  3495                           	line	62
  3496                           	
  3497  0214                     l4196:	
  3498  0214  0878               	movf	(___ftdiv@f2),w
  3499  0215  00A0               	movwf	((??___ftdiv+0)+0)
  3500  0216  0879               	movf	(___ftdiv@f2+1),w
  3501  0217  00A1               	movwf	((??___ftdiv+0)+0+1)
  3502  0218  087A               	movf	(___ftdiv@f2+2),w
  3503  0219  00A2               	movwf	((??___ftdiv+0)+0+2)
  3504  021A  3010               	movlw	010h
  3505  021B                     u3355:
  3506  021B  1003               	clrc
  3507  021C  0CA2               	rrf	(??___ftdiv+0)+2,f
  3508  021D  0CA1               	rrf	(??___ftdiv+0)+1,f
  3509  021E  0CA0               	rrf	(??___ftdiv+0)+0,f
  3510  021F                     u3350:
  3511  021F  3EFF               	addlw	-1
  3512  0220  1D03               	skipz
  3513  0221  2A1B               	goto	u3355
  3514  0222  0820               	movf	0+(??___ftdiv+0)+0,w
  3515  0223  00A3               	movwf	(??___ftdiv+3)+0
  3516  0224  0823               	movf	(??___ftdiv+3)+0,w
  3517  0225  06A9               	xorwf	(___ftdiv@sign),f
  3518                           	line	63
  3519                           	
  3520  0226                     l4198:	
  3521  0226  3080               	movlw	(080h)
  3522  0227  00A0               	movwf	(??___ftdiv+0)+0
  3523  0228  0820               	movf	(??___ftdiv+0)+0,w
  3524  0229  05A9               	andwf	(___ftdiv@sign),f
  3525                           	line	64
  3526                           	
  3527  022A                     l4200:	
  3528  022A  17FC               	bsf	(___ftdiv@f1)+(15/8),(15)&7
  3529                           	line	65
  3530  022B  30FF               	movlw	0FFh
  3531  022C  05FB               	andwf	(___ftdiv@f1),f
  3532  022D  30FF               	movlw	0FFh
  3533  022E  05FC               	andwf	(___ftdiv@f1+1),f
  3534  022F  3000               	movlw	0
  3535  0230  05FD               	andwf	(___ftdiv@f1+2),f
  3536                           	line	66
  3537                           	
  3538  0231                     l4202:	
  3539  0231  17F9               	bsf	(___ftdiv@f2)+(15/8),(15)&7
  3540                           	line	67
  3541  0232  30FF               	movlw	0FFh
  3542  0233  05F8               	andwf	(___ftdiv@f2),f
  3543  0234  30FF               	movlw	0FFh
  3544  0235  05F9               	andwf	(___ftdiv@f2+1),f
  3545  0236  3000               	movlw	0
  3546  0237  05FA               	andwf	(___ftdiv@f2+2),f
  3547                           	line	68
  3548  0238  3018               	movlw	(018h)
  3549  0239  00A0               	movwf	(??___ftdiv+0)+0
  3550  023A  0820               	movf	(??___ftdiv+0)+0,w
  3551  023B  00A4               	movwf	(___ftdiv@cntr)
  3552  023C  2A3D               	goto	l4204
  3553                           	line	69
  3554                           	
  3555  023D                     l1897:	
  3556                           	line	70
  3557                           	
  3558  023D                     l4204:	
  3559  023D  3001               	movlw	01h
  3560  023E                     u3365:
  3561  023E  1003               	clrc
  3562  023F  0DA5               	rlf	(___ftdiv@f3),f
  3563  0240  0DA6               	rlf	(___ftdiv@f3+1),f
  3564  0241  0DA7               	rlf	(___ftdiv@f3+2),f
  3565  0242  3EFF               	addlw	-1
  3566  0243  1D03               	skipz
  3567  0244  2A3E               	goto	u3365
  3568                           	line	71
  3569                           	
  3570  0245                     l4206:	
  3571  0245  087A               	movf	(___ftdiv@f2+2),w
  3572  0246  027D               	subwf	(___ftdiv@f1+2),w
  3573  0247  1D03               	skipz
  3574  0248  2A4F               	goto	u3375
  3575  0249  0879               	movf	(___ftdiv@f2+1),w
  3576  024A  027C               	subwf	(___ftdiv@f1+1),w
  3577  024B  1D03               	skipz
  3578  024C  2A4F               	goto	u3375
  3579  024D  0878               	movf	(___ftdiv@f2),w
  3580  024E  027B               	subwf	(___ftdiv@f1),w
  3581  024F                     u3375:
  3582  024F  1C03               	skipc
  3583  0250  2A52               	goto	u3371
  3584  0251  2A53               	goto	u3370
  3585  0252                     u3371:
  3586  0252  2A5F               	goto	l4212
  3587  0253                     u3370:
  3588                           	line	72
  3589                           	
  3590  0253                     l4208:	
  3591  0253  0878               	movf	(___ftdiv@f2),w
  3592  0254  02FB               	subwf	(___ftdiv@f1),f
  3593  0255  0879               	movf	(___ftdiv@f2+1),w
  3594  0256  1C03               	skipc
  3595  0257  0F79               	incfsz	(___ftdiv@f2+1),w
  3596  0258  02FC               	subwf	(___ftdiv@f1+1),f
  3597  0259  087A               	movf	(___ftdiv@f2+2),w
  3598  025A  1C03               	skipc
  3599  025B  0A7A               	incf	(___ftdiv@f2+2),w
  3600  025C  02FD               	subwf	(___ftdiv@f1+2),f
  3601                           	line	73
  3602                           	
  3603  025D                     l4210:	
  3604  025D  1425               	bsf	(___ftdiv@f3)+(0/8),(0)&7
  3605  025E  2A5F               	goto	l4212
  3606                           	line	74
  3607                           	
  3608  025F                     l1898:	
  3609                           	line	75
  3610                           	
  3611  025F                     l4212:	
  3612  025F  3001               	movlw	01h
  3613  0260                     u3385:
  3614  0260  1003               	clrc
  3615  0261  0DFB               	rlf	(___ftdiv@f1),f
  3616  0262  0DFC               	rlf	(___ftdiv@f1+1),f
  3617  0263  0DFD               	rlf	(___ftdiv@f1+2),f
  3618  0264  3EFF               	addlw	-1
  3619  0265  1D03               	skipz
  3620  0266  2A60               	goto	u3385
  3621                           	line	76
  3622                           	
  3623  0267                     l4214:	
  3624  0267  3001               	movlw	low(01h)
  3625  0268  02A4               	subwf	(___ftdiv@cntr),f
  3626  0269  1D03               	btfss	status,2
  3627  026A  2A6C               	goto	u3391
  3628  026B  2A6D               	goto	u3390
  3629  026C                     u3391:
  3630  026C  2A3D               	goto	l4204
  3631  026D                     u3390:
  3632  026D  2A6E               	goto	l4216
  3633                           	
  3634  026E                     l1899:	
  3635                           	line	77
  3636                           	
  3637  026E                     l4216:	
  3638  026E  0825               	movf	(___ftdiv@f3),w
  3639  026F  00F0               	movwf	(?___ftpack)
  3640  0270  0826               	movf	(___ftdiv@f3+1),w
  3641  0271  00F1               	movwf	(?___ftpack+1)
  3642  0272  0827               	movf	(___ftdiv@f3+2),w
  3643  0273  00F2               	movwf	(?___ftpack+2)
  3644  0274  0828               	movf	(___ftdiv@exp),w
  3645  0275  00A0               	movwf	(??___ftdiv+0)+0
  3646  0276  0820               	movf	(??___ftdiv+0)+0,w
  3647  0277  00F3               	movwf	0+(?___ftpack)+03h
  3648  0278  0829               	movf	(___ftdiv@sign),w
  3649  0279  00A1               	movwf	(??___ftdiv+1)+0
  3650  027A  0821               	movf	(??___ftdiv+1)+0,w
  3651  027B  00F4               	movwf	0+(?___ftpack)+04h
  3652  027C  120A  158A  2660   	fcall	___ftpack
              120A  118A         
  3653  0281  0870               	movf	(0+(?___ftpack)),w
  3654  0282  00F8               	movwf	(?___ftdiv)
  3655  0283  0871               	movf	(1+(?___ftpack)),w
  3656  0284  00F9               	movwf	(?___ftdiv+1)
  3657  0285  0872               	movf	(2+(?___ftpack)),w
  3658  0286  00FA               	movwf	(?___ftdiv+2)
  3659  0287  2A88               	goto	l1895
  3660                           	
  3661  0288                     l4218:	
  3662                           	line	78
  3663                           	
  3664  0288                     l1895:	
  3665  0288  0008               	return
  3666                           	opt stack 0
  3667                           GLOBAL	__end_of___ftdiv
  3668  0289                     	__end_of___ftdiv:
  3669 ;; =============== function ___ftdiv ends ============
  3670                           
  3671                           	signat	___ftdiv,8315
  3672                           	global	___ftadd
  3673                           psect	text432,local,class=CODE,delta=2
  3674                           global __ptext432
  3675  0377                     __ptext432:
  3676                           
  3677 ;; *************** function ___ftadd *****************
  3678 ;; Defined at:
  3679 ;;		line 87 in file "C:\Program Files (x86)\HI-TECH Software\PICC\9.80\sources\ftadd.c"
  3680 ;; Parameters:    Size  Location     Type
  3681 ;;  f1              3    3[BANK0 ] float 
  3682 ;;  f2              3    6[BANK0 ] float 
  3683 ;; Auto vars:     Size  Location     Type
  3684 ;;  exp1            1   15[BANK0 ] unsigned char 
  3685 ;;  exp2            1   14[BANK0 ] unsigned char 
  3686 ;;  sign            1   13[BANK0 ] unsigned char 
  3687 ;; Return value:  Size  Location     Type
  3688 ;;                  3    3[BANK0 ] float 
  3689 ;; Registers used:
  3690 ;;		wreg, status,2, status,0, pclath, cstack
  3691 ;; Tracked objects:
  3692 ;;		On entry : 0/0
  3693 ;;		On exit  : 0/0
  3694 ;;		Unchanged: 0/0
  3695 ;; Data sizes:     COMMON   BANK0   BANK1   BANK3   BANK2
  3696 ;;      Params:         0       6       0       0       0
  3697 ;;      Locals:         0       3       0       0       0
  3698 ;;      Temps:          0       4       0       0       0
  3699 ;;      Totals:         0      13       0       0       0
  3700 ;;Total ram usage:       13 bytes
  3701 ;; Hardware stack levels used:    1
  3702 ;; Hardware stack levels required when called:    1
  3703 ;; This function calls:
  3704 ;;		___ftpack
  3705 ;; This function is called by:
  3706 ;;		_SendFloatSerially
  3707 ;;		___ftsub
  3708 ;; This function uses a non-reentrant model
  3709 ;;
  3710                           psect	text432
  3711                           	file	"C:\Program Files (x86)\HI-TECH Software\PICC\9.80\sources\ftadd.c"
  3712                           	line	87
  3713                           	global	__size_of___ftadd
  3714  014A                     	__size_of___ftadd	equ	__end_of___ftadd-___ftadd
  3715                           	
  3716  0377                     ___ftadd:	
  3717                           	opt	stack 5
  3718                           ; Regs used in ___ftadd: [wreg+status,2+status,0+pclath+cstack]
  3719                           	line	90
  3720                           	
  3721  0377                     l4106:	
  3722  0377  1283               	bcf	status, 5	;RP0=0, select bank0
  3723  0378  1303               	bcf	status, 6	;RP1=0, select bank0
  3724  0379  0823               	movf	(___ftadd@f1),w
  3725  037A  00A9               	movwf	((??___ftadd+0)+0)
  3726  037B  0824               	movf	(___ftadd@f1+1),w
  3727  037C  00AA               	movwf	((??___ftadd+0)+0+1)
  3728  037D  0825               	movf	(___ftadd@f1+2),w
  3729  037E  00AB               	movwf	((??___ftadd+0)+0+2)
  3730  037F  1003               	clrc
  3731  0380  0D2A               	rlf	(??___ftadd+0)+1,w
  3732  0381  0D2B               	rlf	(??___ftadd+0)+2,w
  3733  0382  00AC               	movwf	(??___ftadd+3)+0
  3734  0383  082C               	movf	(??___ftadd+3)+0,w
  3735  0384  00AF               	movwf	(___ftadd@exp1)
  3736                           	line	91
  3737  0385  0826               	movf	(___ftadd@f2),w
  3738  0386  00A9               	movwf	((??___ftadd+0)+0)
  3739  0387  0827               	movf	(___ftadd@f2+1),w
  3740  0388  00AA               	movwf	((??___ftadd+0)+0+1)
  3741  0389  0828               	movf	(___ftadd@f2+2),w
  3742  038A  00AB               	movwf	((??___ftadd+0)+0+2)
  3743  038B  1003               	clrc
  3744  038C  0D2A               	rlf	(??___ftadd+0)+1,w
  3745  038D  0D2B               	rlf	(??___ftadd+0)+2,w
  3746  038E  00AC               	movwf	(??___ftadd+3)+0
  3747  038F  082C               	movf	(??___ftadd+3)+0,w
  3748  0390  00AE               	movwf	(___ftadd@exp2)
  3749                           	line	92
  3750                           	
  3751  0391                     l4108:	
  3752  0391  082F               	movf	(___ftadd@exp1),w
  3753  0392  1D03               	skipz
  3754  0393  2B95               	goto	u3080
  3755  0394  2BA6               	goto	l4114
  3756  0395                     u3080:
  3757                           	
  3758  0395                     l4110:	
  3759  0395  082E               	movf	(___ftadd@exp2),w
  3760  0396  022F               	subwf	(___ftadd@exp1),w
  3761  0397  1803               	skipnc
  3762  0398  2B9A               	goto	u3091
  3763  0399  2B9B               	goto	u3090
  3764  039A                     u3091:
  3765  039A  2BAE               	goto	l4118
  3766  039B                     u3090:
  3767                           	
  3768  039B                     l4112:	
  3769  039B  032F               	decf	(___ftadd@exp1),w
  3770  039C  3AFF               	xorlw	0ffh
  3771  039D  072E               	addwf	(___ftadd@exp2),w
  3772  039E  00A9               	movwf	(??___ftadd+0)+0
  3773  039F  3019               	movlw	(019h)
  3774  03A0  0229               	subwf	0+(??___ftadd+0)+0,w
  3775  03A1  1C03               	skipc
  3776  03A2  2BA4               	goto	u3101
  3777  03A3  2BA5               	goto	u3100
  3778  03A4                     u3101:
  3779  03A4  2BAE               	goto	l4118
  3780  03A5                     u3100:
  3781  03A5  2BA6               	goto	l4114
  3782                           	
  3783  03A6                     l1852:	
  3784                           	line	93
  3785                           	
  3786  03A6                     l4114:	
  3787  03A6  0826               	movf	(___ftadd@f2),w
  3788  03A7  00A3               	movwf	(?___ftadd)
  3789  03A8  0827               	movf	(___ftadd@f2+1),w
  3790  03A9  00A4               	movwf	(?___ftadd+1)
  3791  03AA  0828               	movf	(___ftadd@f2+2),w
  3792  03AB  00A5               	movwf	(?___ftadd+2)
  3793  03AC  2CC0               	goto	l1853
  3794                           	
  3795  03AD                     l4116:	
  3796  03AD  2CC0               	goto	l1853
  3797                           	
  3798  03AE                     l1850:	
  3799                           	line	94
  3800                           	
  3801  03AE                     l4118:	
  3802  03AE  082E               	movf	(___ftadd@exp2),w
  3803  03AF  1D03               	skipz
  3804  03B0  2BB2               	goto	u3110
  3805  03B1  2BC2               	goto	l1856
  3806  03B2                     u3110:
  3807                           	
  3808  03B2                     l4120:	
  3809  03B2  082F               	movf	(___ftadd@exp1),w
  3810  03B3  022E               	subwf	(___ftadd@exp2),w
  3811  03B4  1803               	skipnc
  3812  03B5  2BB7               	goto	u3121
  3813  03B6  2BB8               	goto	u3120
  3814  03B7                     u3121:
  3815  03B7  2BC3               	goto	l4124
  3816  03B8                     u3120:
  3817                           	
  3818  03B8                     l4122:	
  3819  03B8  032E               	decf	(___ftadd@exp2),w
  3820  03B9  3AFF               	xorlw	0ffh
  3821  03BA  072F               	addwf	(___ftadd@exp1),w
  3822  03BB  00A9               	movwf	(??___ftadd+0)+0
  3823  03BC  3019               	movlw	(019h)
  3824  03BD  0229               	subwf	0+(??___ftadd+0)+0,w
  3825  03BE  1C03               	skipc
  3826  03BF  2BC1               	goto	u3131
  3827  03C0  2BC2               	goto	u3130
  3828  03C1                     u3131:
  3829  03C1  2BC3               	goto	l4124
  3830  03C2                     u3130:
  3831                           	
  3832  03C2                     l1856:	
  3833                           	line	95
  3834  03C2  2CC0               	goto	l1853
  3835                           	
  3836  03C3                     l1854:	
  3837                           	line	96
  3838                           	
  3839  03C3                     l4124:	
  3840  03C3  3006               	movlw	(06h)
  3841  03C4  00A9               	movwf	(??___ftadd+0)+0
  3842  03C5  0829               	movf	(??___ftadd+0)+0,w
  3843  03C6  00AD               	movwf	(___ftadd@sign)
  3844                           	line	97
  3845                           	
  3846  03C7                     l4126:	
  3847  03C7  1FA5               	btfss	(___ftadd@f1+2),(23)&7
  3848  03C8  2BCA               	goto	u3141
  3849  03C9  2BCB               	goto	u3140
  3850  03CA                     u3141:
  3851  03CA  2BCC               	goto	l1857
  3852  03CB                     u3140:
  3853                           	line	98
  3854                           	
  3855  03CB                     l4128:	
  3856  03CB  17AD               	bsf	(___ftadd@sign)+(7/8),(7)&7
  3857                           	
  3858  03CC                     l1857:	
  3859                           	line	99
  3860  03CC  1FA8               	btfss	(___ftadd@f2+2),(23)&7
  3861  03CD  2BCF               	goto	u3151
  3862  03CE  2BD0               	goto	u3150
  3863  03CF                     u3151:
  3864  03CF  2BD1               	goto	l1858
  3865  03D0                     u3150:
  3866                           	line	100
  3867                           	
  3868  03D0                     l4130:	
  3869  03D0  172D               	bsf	(___ftadd@sign)+(6/8),(6)&7
  3870                           	
  3871  03D1                     l1858:	
  3872                           	line	101
  3873  03D1  17A4               	bsf	(___ftadd@f1)+(15/8),(15)&7
  3874                           	line	102
  3875                           	
  3876  03D2                     l4132:	
  3877  03D2  30FF               	movlw	0FFh
  3878  03D3  05A3               	andwf	(___ftadd@f1),f
  3879  03D4  30FF               	movlw	0FFh
  3880  03D5  05A4               	andwf	(___ftadd@f1+1),f
  3881  03D6  3000               	movlw	0
  3882  03D7  05A5               	andwf	(___ftadd@f1+2),f
  3883                           	line	103
  3884                           	
  3885  03D8                     l4134:	
  3886  03D8  17A7               	bsf	(___ftadd@f2)+(15/8),(15)&7
  3887                           	line	104
  3888  03D9  30FF               	movlw	0FFh
  3889  03DA  05A6               	andwf	(___ftadd@f2),f
  3890  03DB  30FF               	movlw	0FFh
  3891  03DC  05A7               	andwf	(___ftadd@f2+1),f
  3892  03DD  3000               	movlw	0
  3893  03DE  05A8               	andwf	(___ftadd@f2+2),f
  3894                           	line	106
  3895  03DF  082E               	movf	(___ftadd@exp2),w
  3896  03E0  022F               	subwf	(___ftadd@exp1),w
  3897  03E1  1803               	skipnc
  3898  03E2  2BE4               	goto	u3161
  3899  03E3  2BE5               	goto	u3160
  3900  03E4                     u3161:
  3901  03E4  2C16               	goto	l4146
  3902  03E5                     u3160:
  3903  03E5  2BE6               	goto	l4136
  3904                           	line	109
  3905                           	
  3906  03E6                     l1860:	
  3907                           	line	110
  3908                           	
  3909  03E6                     l4136:	
  3910  03E6  3001               	movlw	01h
  3911  03E7                     u3175:
  3912  03E7  1003               	clrc
  3913  03E8  0DA6               	rlf	(___ftadd@f2),f
  3914  03E9  0DA7               	rlf	(___ftadd@f2+1),f
  3915  03EA  0DA8               	rlf	(___ftadd@f2+2),f
  3916  03EB  3EFF               	addlw	-1
  3917  03EC  1D03               	skipz
  3918  03ED  2BE7               	goto	u3175
  3919                           	line	111
  3920  03EE  3001               	movlw	low(01h)
  3921  03EF  02AE               	subwf	(___ftadd@exp2),f
  3922                           	line	112
  3923                           	
  3924  03F0                     l4138:	
  3925  03F0  082E               	movf	(___ftadd@exp2),w
  3926  03F1  062F               	xorwf	(___ftadd@exp1),w
  3927  03F2  1903               	skipnz
  3928  03F3  2BF5               	goto	u3181
  3929  03F4  2BF6               	goto	u3180
  3930  03F5                     u3181:
  3931  03F5  2C0E               	goto	l4144
  3932  03F6                     u3180:
  3933                           	
  3934  03F6                     l4140:	
  3935  03F6  3001               	movlw	low(01h)
  3936  03F7  02AD               	subwf	(___ftadd@sign),f
  3937  03F8  082D               	movf	((___ftadd@sign)),w
  3938  03F9  3907               	andlw	07h
  3939  03FA  1D03               	btfss	status,2
  3940  03FB  2BFD               	goto	u3191
  3941  03FC  2BFE               	goto	u3190
  3942  03FD                     u3191:
  3943  03FD  2BE6               	goto	l4136
  3944  03FE                     u3190:
  3945  03FE  2C0E               	goto	l4144
  3946                           	
  3947  03FF                     l1862:	
  3948  03FF  2C0E               	goto	l4144
  3949                           	
  3950  0400                     l1863:	
  3951                           	line	113
  3952  0400  2C0E               	goto	l4144
  3953                           	
  3954  0401                     l1865:	
  3955                           	line	114
  3956                           	
  3957  0401                     l4142:	
  3958  0401  3001               	movlw	01h
  3959  0402                     u3205:
  3960  0402  1003               	clrc
  3961  0403  0CA5               	rrf	(___ftadd@f1+2),f
  3962  0404  0CA4               	rrf	(___ftadd@f1+1),f
  3963  0405  0CA3               	rrf	(___ftadd@f1),f
  3964  0406  3EFF               	addlw	-1
  3965  0407  1D03               	skipz
  3966  0408  2C02               	goto	u3205
  3967                           
  3968                           	line	115
  3969  0409  3001               	movlw	(01h)
  3970  040A  00A9               	movwf	(??___ftadd+0)+0
  3971  040B  0829               	movf	(??___ftadd+0)+0,w
  3972  040C  07AF               	addwf	(___ftadd@exp1),f
  3973  040D  2C0E               	goto	l4144
  3974                           	line	116
  3975                           	
  3976  040E                     l1864:	
  3977                           	line	113
  3978                           	
  3979  040E                     l4144:	
  3980  040E  082F               	movf	(___ftadd@exp1),w
  3981  040F  062E               	xorwf	(___ftadd@exp2),w
  3982  0410  1D03               	skipz
  3983  0411  2C13               	goto	u3211
  3984  0412  2C14               	goto	u3210
  3985  0413                     u3211:
  3986  0413  2C01               	goto	l4142
  3987  0414                     u3210:
  3988  0414  2C4D               	goto	l1867
  3989                           	
  3990  0415                     l1866:	
  3991                           	line	117
  3992  0415  2C4D               	goto	l1867
  3993                           	
  3994  0416                     l1859:	
  3995                           	
  3996  0416                     l4146:	
  3997  0416  082F               	movf	(___ftadd@exp1),w
  3998  0417  022E               	subwf	(___ftadd@exp2),w
  3999  0418  1803               	skipnc
  4000  0419  2C1B               	goto	u3221
  4001  041A  2C1C               	goto	u3220
  4002  041B                     u3221:
  4003  041B  2C4D               	goto	l1867
  4004  041C                     u3220:
  4005  041C  2C1D               	goto	l4148
  4006                           	line	120
  4007                           	
  4008  041D                     l1869:	
  4009                           	line	121
  4010                           	
  4011  041D                     l4148:	
  4012  041D  3001               	movlw	01h
  4013  041E                     u3235:
  4014  041E  1003               	clrc
  4015  041F  0DA3               	rlf	(___ftadd@f1),f
  4016  0420  0DA4               	rlf	(___ftadd@f1+1),f
  4017  0421  0DA5               	rlf	(___ftadd@f1+2),f
  4018  0422  3EFF               	addlw	-1
  4019  0423  1D03               	skipz
  4020  0424  2C1E               	goto	u3235
  4021                           	line	122
  4022  0425  3001               	movlw	low(01h)
  4023  0426  02AF               	subwf	(___ftadd@exp1),f
  4024                           	line	123
  4025                           	
  4026  0427                     l4150:	
  4027  0427  082E               	movf	(___ftadd@exp2),w
  4028  0428  062F               	xorwf	(___ftadd@exp1),w
  4029  0429  1903               	skipnz
  4030  042A  2C2C               	goto	u3241
  4031  042B  2C2D               	goto	u3240
  4032  042C                     u3241:
  4033  042C  2C45               	goto	l4156
  4034  042D                     u3240:
  4035                           	
  4036  042D                     l4152:	
  4037  042D  3001               	movlw	low(01h)
  4038  042E  02AD               	subwf	(___ftadd@sign),f
  4039  042F  082D               	movf	((___ftadd@sign)),w
  4040  0430  3907               	andlw	07h
  4041  0431  1D03               	btfss	status,2
  4042  0432  2C34               	goto	u3251
  4043  0433  2C35               	goto	u3250
  4044  0434                     u3251:
  4045  0434  2C1D               	goto	l4148
  4046  0435                     u3250:
  4047  0435  2C45               	goto	l4156
  4048                           	
  4049  0436                     l1871:	
  4050  0436  2C45               	goto	l4156
  4051                           	
  4052  0437                     l1872:	
  4053                           	line	124
  4054  0437  2C45               	goto	l4156
  4055                           	
  4056  0438                     l1874:	
  4057                           	line	125
  4058                           	
  4059  0438                     l4154:	
  4060  0438  3001               	movlw	01h
  4061  0439                     u3265:
  4062  0439  1003               	clrc
  4063  043A  0CA8               	rrf	(___ftadd@f2+2),f
  4064  043B  0CA7               	rrf	(___ftadd@f2+1),f
  4065  043C  0CA6               	rrf	(___ftadd@f2),f
  4066  043D  3EFF               	addlw	-1
  4067  043E  1D03               	skipz
  4068  043F  2C39               	goto	u3265
  4069                           
  4070                           	line	126
  4071  0440  3001               	movlw	(01h)
  4072  0441  00A9               	movwf	(??___ftadd+0)+0
  4073  0442  0829               	movf	(??___ftadd+0)+0,w
  4074  0443  07AE               	addwf	(___ftadd@exp2),f
  4075  0444  2C45               	goto	l4156
  4076                           	line	127
  4077                           	
  4078  0445                     l1873:	
  4079                           	line	124
  4080                           	
  4081  0445                     l4156:	
  4082  0445  082F               	movf	(___ftadd@exp1),w
  4083  0446  062E               	xorwf	(___ftadd@exp2),w
  4084  0447  1D03               	skipz
  4085  0448  2C4A               	goto	u3271
  4086  0449  2C4B               	goto	u3270
  4087  044A                     u3271:
  4088  044A  2C38               	goto	l4154
  4089  044B                     u3270:
  4090  044B  2C4D               	goto	l1867
  4091                           	
  4092  044C                     l1875:	
  4093  044C  2C4D               	goto	l1867
  4094                           	line	128
  4095                           	
  4096  044D                     l1868:	
  4097                           	line	129
  4098                           	
  4099  044D                     l1867:	
  4100  044D  1FAD               	btfss	(___ftadd@sign),(7)&7
  4101  044E  2C50               	goto	u3281
  4102  044F  2C51               	goto	u3280
  4103  0450                     u3281:
  4104  0450  2C62               	goto	l4160
  4105  0451                     u3280:
  4106                           	line	131
  4107                           	
  4108  0451                     l4158:	
  4109  0451  30FF               	movlw	0FFh
  4110  0452  06A3               	xorwf	(___ftadd@f1),f
  4111  0453  30FF               	movlw	0FFh
  4112  0454  06A4               	xorwf	(___ftadd@f1+1),f
  4113  0455  30FF               	movlw	0FFh
  4114  0456  06A5               	xorwf	(___ftadd@f1+2),f
  4115                           	line	132
  4116  0457  3001               	movlw	01h
  4117  0458  07A3               	addwf	(___ftadd@f1),f
  4118  0459  3000               	movlw	0
  4119  045A  1803               	skipnc
  4120  045B  3001               movlw 1
  4121  045C  07A4               	addwf	(___ftadd@f1+1),f
  4122  045D  3000               	movlw	0
  4123  045E  1803               	skipnc
  4124  045F  3001               movlw 1
  4125  0460  07A5               	addwf	(___ftadd@f1+2),f
  4126  0461  2C62               	goto	l4160
  4127                           	line	133
  4128                           	
  4129  0462                     l1876:	
  4130                           	line	134
  4131                           	
  4132  0462                     l4160:	
  4133  0462  1F2D               	btfss	(___ftadd@sign),(6)&7
  4134  0463  2C65               	goto	u3291
  4135  0464  2C66               	goto	u3290
  4136  0465                     u3291:
  4137  0465  2C77               	goto	l4164
  4138  0466                     u3290:
  4139                           	line	136
  4140                           	
  4141  0466                     l4162:	
  4142  0466  30FF               	movlw	0FFh
  4143  0467  06A6               	xorwf	(___ftadd@f2),f
  4144  0468  30FF               	movlw	0FFh
  4145  0469  06A7               	xorwf	(___ftadd@f2+1),f
  4146  046A  30FF               	movlw	0FFh
  4147  046B  06A8               	xorwf	(___ftadd@f2+2),f
  4148                           	line	137
  4149  046C  3001               	movlw	01h
  4150  046D  07A6               	addwf	(___ftadd@f2),f
  4151  046E  3000               	movlw	0
  4152  046F  1803               	skipnc
  4153  0470  3001               movlw 1
  4154  0471  07A7               	addwf	(___ftadd@f2+1),f
  4155  0472  3000               	movlw	0
  4156  0473  1803               	skipnc
  4157  0474  3001               movlw 1
  4158  0475  07A8               	addwf	(___ftadd@f2+2),f
  4159  0476  2C77               	goto	l4164
  4160                           	line	138
  4161                           	
  4162  0477                     l1877:	
  4163                           	line	139
  4164                           	
  4165  0477                     l4164:	
  4166  0477  1003               	clrc
  4167  0478  3000               	movlw	0
  4168  0479  1803               	btfsc	status,0
  4169  047A  3001               	movlw	1
  4170  047B  00AD               	movwf	(___ftadd@sign)
  4171                           	line	140
  4172                           	
  4173  047C                     l4166:	
  4174  047C  0823               	movf	(___ftadd@f1),w
  4175  047D  07A6               	addwf	(___ftadd@f2),f
  4176  047E  0824               	movf	(___ftadd@f1+1),w
  4177  047F  1103               	clrz
  4178  0480  1803               	skipnc
  4179  0481  0A24               	incf	(___ftadd@f1+1),w
  4180  0482  1903               	skipnz
  4181  0483  2C85               	goto	u3301
  4182  0484  07A7               	addwf	(___ftadd@f2+1),f
  4183  0485                     u3301:
  4184  0485  0825               	movf	(___ftadd@f1+2),w
  4185  0486  1103               	clrz
  4186  0487  1803               	skipnc
  4187  0488  0A25               	incf	(___ftadd@f1+2),w
  4188  0489  1903               	skipnz
  4189  048A  2C8C               	goto	u3302
  4190  048B  07A8               	addwf	(___ftadd@f2+2),f
  4191  048C                     u3302:
  4192                           
  4193                           	line	141
  4194                           	
  4195  048C                     l4168:	
  4196  048C  1FA8               	btfss	(___ftadd@f2+2),(23)&7
  4197  048D  2C8F               	goto	u3311
  4198  048E  2C90               	goto	u3310
  4199  048F                     u3311:
  4200  048F  2CA4               	goto	l4174
  4201  0490                     u3310:
  4202                           	line	142
  4203                           	
  4204  0490                     l4170:	
  4205  0490  30FF               	movlw	0FFh
  4206  0491  06A6               	xorwf	(___ftadd@f2),f
  4207  0492  30FF               	movlw	0FFh
  4208  0493  06A7               	xorwf	(___ftadd@f2+1),f
  4209  0494  30FF               	movlw	0FFh
  4210  0495  06A8               	xorwf	(___ftadd@f2+2),f
  4211                           	line	143
  4212  0496  3001               	movlw	01h
  4213  0497  07A6               	addwf	(___ftadd@f2),f
  4214  0498  3000               	movlw	0
  4215  0499  1803               	skipnc
  4216  049A  3001               movlw 1
  4217  049B  07A7               	addwf	(___ftadd@f2+1),f
  4218  049C  3000               	movlw	0
  4219  049D  1803               	skipnc
  4220  049E  3001               movlw 1
  4221  049F  07A8               	addwf	(___ftadd@f2+2),f
  4222                           	line	144
  4223                           	
  4224  04A0                     l4172:	
  4225  04A0  01AD               	clrf	(___ftadd@sign)
  4226  04A1  1403               	bsf	status,0
  4227  04A2  0DAD               	rlf	(___ftadd@sign),f
  4228  04A3  2CA4               	goto	l4174
  4229                           	line	145
  4230                           	
  4231  04A4                     l1878:	
  4232                           	line	146
  4233                           	
  4234  04A4                     l4174:	
  4235  04A4  0826               	movf	(___ftadd@f2),w
  4236  04A5  00F0               	movwf	(?___ftpack)
  4237  04A6  0827               	movf	(___ftadd@f2+1),w
  4238  04A7  00F1               	movwf	(?___ftpack+1)
  4239  04A8  0828               	movf	(___ftadd@f2+2),w
  4240  04A9  00F2               	movwf	(?___ftpack+2)
  4241  04AA  082F               	movf	(___ftadd@exp1),w
  4242  04AB  00A9               	movwf	(??___ftadd+0)+0
  4243  04AC  0829               	movf	(??___ftadd+0)+0,w
  4244  04AD  00F3               	movwf	0+(?___ftpack)+03h
  4245  04AE  082D               	movf	(___ftadd@sign),w
  4246  04AF  00AA               	movwf	(??___ftadd+1)+0
  4247  04B0  082A               	movf	(??___ftadd+1)+0,w
  4248  04B1  00F4               	movwf	0+(?___ftpack)+04h
  4249  04B2  120A  158A  2660   	fcall	___ftpack
              120A  118A         
  4250  04B7  0870               	movf	(0+(?___ftpack)),w
  4251  04B8  1283               	bcf	status, 5	;RP0=0, select bank0
  4252  04B9  1303               	bcf	status, 6	;RP1=0, select bank0
  4253  04BA  00A3               	movwf	(?___ftadd)
  4254  04BB  0871               	movf	(1+(?___ftpack)),w
  4255  04BC  00A4               	movwf	(?___ftadd+1)
  4256  04BD  0872               	movf	(2+(?___ftpack)),w
  4257  04BE  00A5               	movwf	(?___ftadd+2)
  4258  04BF  2CC0               	goto	l1853
  4259                           	
  4260  04C0                     l4176:	
  4261                           	line	148
  4262                           	
  4263  04C0                     l1853:	
  4264  04C0  0008               	return
  4265                           	opt stack 0
  4266                           GLOBAL	__end_of___ftadd
  4267  04C1                     	__end_of___ftadd:
  4268 ;; =============== function ___ftadd ends ============
  4269                           
  4270                           	signat	___ftadd,8315
  4271                           	global	_SendIntegerSerially
  4272                           psect	text433,local,class=CODE,delta=2
  4273                           global __ptext433
  4274  0EDB                     __ptext433:
  4275                           
  4276 ;; *************** function _SendIntegerSerially *****************
  4277 ;; Defined at:
  4278 ;;		line 58 in file "C:\Users\X4ROY\Desktop\URE\LCD Interfacing - Copy\serial.c"
  4279 ;; Parameters:    Size  Location     Type
  4280 ;;  IntegerNumbe    2    9[COMMON] int 
  4281 ;; Auto vars:     Size  Location     Type
  4282 ;;  c               6    0[BANK0 ] unsigned char [6]
  4283 ;;  i               1    6[BANK0 ] unsigned char 
  4284 ;; Return value:  Size  Location     Type
  4285 ;;		None               void
  4286 ;; Registers used:
  4287 ;;		wreg, fsr0l, fsr0h, status,2, status,0, btemp+1, pclath, cstack
  4288 ;; Tracked objects:
  4289 ;;		On entry : 0/0
  4290 ;;		On exit  : 0/0
  4291 ;;		Unchanged: 0/0
  4292 ;; Data sizes:     COMMON   BANK0   BANK1   BANK3   BANK2
  4293 ;;      Params:         2       0       0       0       0
  4294 ;;      Locals:         0       7       0       0       0
  4295 ;;      Temps:          1       0       0       0       0
  4296 ;;      Totals:         3       7       0       0       0
  4297 ;;Total ram usage:       10 bytes
  4298 ;; Hardware stack levels used:    1
  4299 ;; Hardware stack levels required when called:    1
  4300 ;; This function calls:
  4301 ;;		_SendByteSerially
  4302 ;;		___awmod
  4303 ;;		___awdiv
  4304 ;; This function is called by:
  4305 ;;		_main
  4306 ;;		_SendFloatSerially
  4307 ;; This function uses a non-reentrant model
  4308 ;;
  4309                           psect	text433
  4310                           	file	"C:\Users\X4ROY\Desktop\URE\LCD Interfacing - Copy\serial.c"
  4311                           	line	58
  4312                           	global	__size_of_SendIntegerSerially
  4313  0081                     	__size_of_SendIntegerSerially	equ	__end_of_SendIntegerSerially-_SendIntegerSerially
  4314                           	
  4315  0EDB                     _SendIntegerSerially:	
  4316                           	opt	stack 6
  4317                           ; Regs used in _SendIntegerSerially: [wreg-fsr0h+status,2+status,0+btemp+1+pclath+cstack
                                 ]
  4318                           	line	60
  4319                           	
  4320  0EDB                     l4082:	
  4321                           ;serial.c: 59: unsigned char c[6];
  4322                           ;serial.c: 60: unsigned char i = 0;
  4323  0EDB  1003               	clrc
  4324  0EDC  3000               	movlw	0
  4325  0EDD  1803               	btfsc	status,0
  4326  0EDE  3001               	movlw	1
  4327  0EDF  1283               	bcf	status, 5	;RP0=0, select bank0
  4328  0EE0  1303               	bcf	status, 6	;RP1=0, select bank0
  4329  0EE1  00A6               	movwf	(SendIntegerSerially@i)
  4330                           	line	62
  4331                           	
  4332  0EE2                     l4084:	
  4333                           ;serial.c: 62: if(IntegerNumber < 0)
  4334  0EE2  1FFA               	btfss	(SendIntegerSerially@IntegerNumber+1),7
  4335  0EE3  2EE5               	goto	u3041
  4336  0EE4  2EE6               	goto	u3040
  4337  0EE5                     u3041:
  4338  0EE5  2EF2               	goto	l4090
  4339  0EE6                     u3040:
  4340                           	line	64
  4341                           	
  4342  0EE6                     l4086:	
  4343                           ;serial.c: 63: {
  4344                           ;serial.c: 64: SendByteSerially('-');
  4345  0EE6  302D               	movlw	(02Dh)
  4346  0EE7  120A  158A  2386   	fcall	_SendByteSerially
              120A  158A         
  4347                           	line	65
  4348                           	
  4349  0EEC                     l4088:	
  4350                           ;serial.c: 65: IntegerNumber = - (IntegerNumber);
  4351  0EEC  09F9               	comf	(SendIntegerSerially@IntegerNumber),f
  4352  0EED  09FA               	comf	(SendIntegerSerially@IntegerNumber+1),f
  4353  0EEE  0AF9               	incf	(SendIntegerSerially@IntegerNumber),f
  4354  0EEF  1903               	skipnz
  4355  0EF0  0AFA               	incf	(SendIntegerSerially@IntegerNumber+1),f
  4356  0EF1  2EF2               	goto	l4090
  4357                           	line	66
  4358                           	
  4359  0EF2                     l1777:	
  4360                           	line	68
  4361                           	
  4362  0EF2                     l4090:	
  4363                           ;serial.c: 66: }
  4364                           ;serial.c: 68: if(IntegerNumber == 0)
  4365  0EF2  087A               	movf	((SendIntegerSerially@IntegerNumber+1)),w
  4366  0EF3  0479               	iorwf	((SendIntegerSerially@IntegerNumber)),w
  4367  0EF4  1D03               	skipz
  4368  0EF5  2EF7               	goto	u3051
  4369  0EF6  2EF8               	goto	u3050
  4370  0EF7                     u3051:
  4371  0EF7  2F34               	goto	l4100
  4372  0EF8                     u3050:
  4373                           	line	69
  4374                           	
  4375  0EF8                     l4092:	
  4376                           ;serial.c: 69: SendByteSerially(0x30);
  4377  0EF8  3030               	movlw	(030h)
  4378  0EF9  120A  158A  2386   	fcall	_SendByteSerially
              120A  158A         
  4379  0EFE  2F34               	goto	l4100
  4380                           	
  4381  0EFF                     l1778:	
  4382                           	line	71
  4383                           ;serial.c: 71: while( IntegerNumber > 0)
  4384  0EFF  2F34               	goto	l4100
  4385                           	
  4386  0F00                     l1780:	
  4387                           	line	73
  4388                           	
  4389  0F00                     l4094:	
  4390                           ;serial.c: 72: {
  4391                           ;serial.c: 73: c[i++] = ((IntegerNumber % 10) | 0x30);
  4392  0F00  300A               	movlw	low(0Ah)
  4393  0F01  00F0               	movwf	(?___awmod)
  4394  0F02  3000               	movlw	high(0Ah)
  4395  0F03  00F1               	movwf	((?___awmod))+1
  4396  0F04  087A               	movf	(SendIntegerSerially@IntegerNumber+1),w
  4397  0F05  01F3               	clrf	1+(?___awmod)+02h
  4398  0F06  07F3               	addwf	1+(?___awmod)+02h
  4399  0F07  0879               	movf	(SendIntegerSerially@IntegerNumber),w
  4400  0F08  01F2               	clrf	0+(?___awmod)+02h
  4401  0F09  07F2               	addwf	0+(?___awmod)+02h
  4402                           
  4403  0F0A  120A  158A  257D   	fcall	___awmod
              120A  158A         
  4404  0F0F  0870               	movf	(0+(?___awmod)),w
  4405  0F10  3830               	iorlw	030h
  4406  0F11  00FB               	movwf	(??_SendIntegerSerially+0)+0
  4407  0F12  1283               	bcf	status, 5	;RP0=0, select bank0
  4408  0F13  1303               	bcf	status, 6	;RP1=0, select bank0
  4409  0F14  0826               	movf	(SendIntegerSerially@i),w
  4410  0F15  3E20               	addlw	SendIntegerSerially@c&0ffh
  4411  0F16  0084               	movwf	fsr0
  4412  0F17  087B               	movf	(??_SendIntegerSerially+0)+0,w
  4413  0F18  1383               	bcf	status, 7	;select IRP bank0
  4414  0F19  0080               	movwf	indf
  4415                           	
  4416  0F1A                     l4096:	
  4417  0F1A  3001               	movlw	(01h)
  4418  0F1B  00FB               	movwf	(??_SendIntegerSerially+0)+0
  4419  0F1C  087B               	movf	(??_SendIntegerSerially+0)+0,w
  4420  0F1D  07A6               	addwf	(SendIntegerSerially@i),f
  4421                           	line	74
  4422                           	
  4423  0F1E                     l4098:	
  4424                           ;serial.c: 74: IntegerNumber /= 10;
  4425  0F1E  300A               	movlw	low(0Ah)
  4426  0F1F  00F0               	movwf	(?___awdiv)
  4427  0F20  3000               	movlw	high(0Ah)
  4428  0F21  00F1               	movwf	((?___awdiv))+1
  4429  0F22  087A               	movf	(SendIntegerSerially@IntegerNumber+1),w
  4430  0F23  01F3               	clrf	1+(?___awdiv)+02h
  4431  0F24  07F3               	addwf	1+(?___awdiv)+02h
  4432  0F25  0879               	movf	(SendIntegerSerially@IntegerNumber),w
  4433  0F26  01F2               	clrf	0+(?___awdiv)+02h
  4434  0F27  07F2               	addwf	0+(?___awdiv)+02h
  4435                           
  4436  0F28  120A  158A  25E7   	fcall	___awdiv
              120A  158A         
  4437  0F2D  0871               	movf	(1+(?___awdiv)),w
  4438  0F2E  01FA               	clrf	(SendIntegerSerially@IntegerNumber+1)
  4439  0F2F  07FA               	addwf	(SendIntegerSerially@IntegerNumber+1)
  4440  0F30  0870               	movf	(0+(?___awdiv)),w
  4441  0F31  01F9               	clrf	(SendIntegerSerially@IntegerNumber)
  4442  0F32  07F9               	addwf	(SendIntegerSerially@IntegerNumber)
  4443                           
  4444  0F33  2F34               	goto	l4100
  4445                           	line	75
  4446                           	
  4447  0F34                     l1779:	
  4448                           	line	71
  4449                           	
  4450  0F34                     l4100:	
  4451  0F34  087A               	movf	(SendIntegerSerially@IntegerNumber+1),w
  4452  0F35  3A80               	xorlw	80h
  4453  0F36  00FF               	movwf	btemp+1
  4454  0F37  3080               	movlw	(high(01h))^80h
  4455  0F38  027F               	subwf	btemp+1,w
  4456  0F39  1D03               	skipz
  4457  0F3A  2F3D               	goto	u3065
  4458  0F3B  3001               	movlw	low(01h)
  4459  0F3C  0279               	subwf	(SendIntegerSerially@IntegerNumber),w
  4460  0F3D                     u3065:
  4461                           
  4462  0F3D  1803               	skipnc
  4463  0F3E  2F40               	goto	u3061
  4464  0F3F  2F41               	goto	u3060
  4465  0F40                     u3061:
  4466  0F40  2F00               	goto	l4094
  4467  0F41                     u3060:
  4468  0F41  2F50               	goto	l4104
  4469                           	
  4470  0F42                     l1781:	
  4471                           	line	77
  4472                           ;serial.c: 75: }
  4473                           ;serial.c: 77: while(i-- > 0)
  4474  0F42  2F50               	goto	l4104
  4475                           	
  4476  0F43                     l1783:	
  4477                           	line	78
  4478                           	
  4479  0F43                     l4102:	
  4480                           ;serial.c: 78: SendByteSerially(c[i]);
  4481  0F43  1283               	bcf	status, 5	;RP0=0, select bank0
  4482  0F44  1303               	bcf	status, 6	;RP1=0, select bank0
  4483  0F45  0826               	movf	(SendIntegerSerially@i),w
  4484  0F46  3E20               	addlw	SendIntegerSerially@c&0ffh
  4485  0F47  0084               	movwf	fsr0
  4486  0F48  1383               	bcf	status, 7	;select IRP bank0
  4487  0F49  0800               	movf	indf,w
  4488  0F4A  120A  158A  2386   	fcall	_SendByteSerially
              120A  158A         
  4489  0F4F  2F50               	goto	l4104
  4490                           	
  4491  0F50                     l1782:	
  4492                           	line	77
  4493                           	
  4494  0F50                     l4104:	
  4495  0F50  3001               	movlw	low(01h)
  4496  0F51  1283               	bcf	status, 5	;RP0=0, select bank0
  4497  0F52  1303               	bcf	status, 6	;RP1=0, select bank0
  4498  0F53  02A6               	subwf	(SendIntegerSerially@i),f
  4499  0F54  0826               	movf	((SendIntegerSerially@i)),w
  4500  0F55  3AFF               	xorlw	0FFh
  4501  0F56  1D03               	skipz
  4502  0F57  2F59               	goto	u3071
  4503  0F58  2F5A               	goto	u3070
  4504  0F59                     u3071:
  4505  0F59  2F43               	goto	l4102
  4506  0F5A                     u3070:
  4507  0F5A  2F5B               	goto	l1785
  4508                           	
  4509  0F5B                     l1784:	
  4510                           	line	81
  4511                           	
  4512  0F5B                     l1785:	
  4513  0F5B  0008               	return
  4514                           	opt stack 0
  4515                           GLOBAL	__end_of_SendIntegerSerially
  4516  0F5C                     	__end_of_SendIntegerSerially:
  4517 ;; =============== function _SendIntegerSerially ends ============
  4518                           
  4519                           	signat	_SendIntegerSerially,4216
  4520                           	global	_SendStringSerially
  4521                           psect	text434,local,class=CODE,delta=2
  4522                           global __ptext434
  4523  0C09                     __ptext434:
  4524                           
  4525 ;; *************** function _SendStringSerially *****************
  4526 ;; Defined at:
  4527 ;;		line 31 in file "C:\Users\X4ROY\Desktop\URE\LCD Interfacing - Copy\serial.c"
  4528 ;; Parameters:    Size  Location     Type
  4529 ;;  serial_strin    1    wreg     PTR const unsigned char 
  4530 ;;		 -> STR_12(10), STR_11(14), STR_10(7), STR_9(11), 
  4531 ;;		 -> STR_8(19), STR_7(21), STR_6(9), STR_5(21), 
  4532 ;;		 -> STR_4(16), STR_3(18), STR_2(9), STR_1(14), 
  4533 ;; Auto vars:     Size  Location     Type
  4534 ;;  serial_strin    1    2[COMMON] PTR const unsigned char 
  4535 ;;		 -> STR_12(10), STR_11(14), STR_10(7), STR_9(11), 
  4536 ;;		 -> STR_8(19), STR_7(21), STR_6(9), STR_5(21), 
  4537 ;;		 -> STR_4(16), STR_3(18), STR_2(9), STR_1(14), 
  4538 ;; Return value:  Size  Location     Type
  4539 ;;		None               void
  4540 ;; Registers used:
  4541 ;;		wreg, fsr0l, fsr0h, status,2, status,0, pclath, cstack
  4542 ;; Tracked objects:
  4543 ;;		On entry : 0/0
  4544 ;;		On exit  : 0/0
  4545 ;;		Unchanged: 0/0
  4546 ;; Data sizes:     COMMON   BANK0   BANK1   BANK3   BANK2
  4547 ;;      Params:         0       0       0       0       0
  4548 ;;      Locals:         1       0       0       0       0
  4549 ;;      Temps:          1       0       0       0       0
  4550 ;;      Totals:         2       0       0       0       0
  4551 ;;Total ram usage:        2 bytes
  4552 ;; Hardware stack levels used:    1
  4553 ;; Hardware stack levels required when called:    1
  4554 ;; This function calls:
  4555 ;;		_SendByteSerially
  4556 ;; This function is called by:
  4557 ;;		_main
  4558 ;; This function uses a non-reentrant model
  4559 ;;
  4560                           psect	text434
  4561                           	file	"C:\Users\X4ROY\Desktop\URE\LCD Interfacing - Copy\serial.c"
  4562                           	line	31
  4563                           	global	__size_of_SendStringSerially
  4564  0021                     	__size_of_SendStringSerially	equ	__end_of_SendStringSerially-_SendStringSerially
  4565                           	
  4566  0C09                     _SendStringSerially:	
  4567                           	opt	stack 6
  4568                           ; Regs used in _SendStringSerially: [wreg-fsr0h+status,2+status,0+pclath+cstack]
  4569                           ;SendStringSerially@serial_string stored from wreg
  4570  0C09  00F2               	movwf	(SendStringSerially@serial_string)
  4571                           	
  4572  0C0A                     l4074:	
  4573  0C0A  2C1C               	goto	l4080
  4574                           	
  4575  0C0B                     l1763:	
  4576                           	line	33
  4577                           	
  4578  0C0B                     l4076:	
  4579                           ;serial.c: 32: {
  4580                           ;serial.c: 33: SendByteSerially(*serial_string);
  4581  0C0B  0872               	movf	(SendStringSerially@serial_string),w
  4582  0C0C  0084               	movwf	fsr0
  4583  0C0D  120A  118A  2003   	fcall	stringdir
              120A  158A         
  4584  0C12  120A  158A  2386   	fcall	_SendByteSerially
              120A  158A         
  4585                           	line	34
  4586                           	
  4587  0C17                     l4078:	
  4588                           ;serial.c: 34: serial_string++;
  4589  0C17  3001               	movlw	(01h)
  4590  0C18  00F1               	movwf	(??_SendStringSerially+0)+0
  4591  0C19  0871               	movf	(??_SendStringSerially+0)+0,w
  4592  0C1A  07F2               	addwf	(SendStringSerially@serial_string),f
  4593  0C1B  2C1C               	goto	l4080
  4594                           	line	35
  4595                           	
  4596  0C1C                     l1762:	
  4597                           	line	31
  4598                           	
  4599  0C1C                     l4080:	
  4600  0C1C  0872               	movf	(SendStringSerially@serial_string),w
  4601  0C1D  0084               	movwf	fsr0
  4602  0C1E  120A  118A  2003   	fcall	stringdir
              120A  158A         
  4603  0C23  3800               	iorlw	0
  4604  0C24  1D03               	skipz
  4605  0C25  2C27               	goto	u3031
  4606  0C26  2C28               	goto	u3030
  4607  0C27                     u3031:
  4608  0C27  2C0B               	goto	l4076
  4609  0C28                     u3030:
  4610  0C28  2C29               	goto	l1765
  4611                           	
  4612  0C29                     l1764:	
  4613                           	line	36
  4614                           	
  4615  0C29                     l1765:	
  4616  0C29  0008               	return
  4617                           	opt stack 0
  4618                           GLOBAL	__end_of_SendStringSerially
  4619  0C2A                     	__end_of_SendStringSerially:
  4620 ;; =============== function _SendStringSerially ends ============
  4621                           
  4622                           	signat	_SendStringSerially,4216
  4623                           	global	_MainSystemInitialize
  4624                           psect	text435,local,class=CODE,delta=2
  4625                           global __ptext435
  4626  0B7B                     __ptext435:
  4627                           
  4628 ;; *************** function _MainSystemInitialize *****************
  4629 ;; Defined at:
  4630 ;;		line 78 in file "C:\Users\X4ROY\Desktop\URE\LCD Interfacing - Copy\main1.c"
  4631 ;; Parameters:    Size  Location     Type
  4632 ;;		None
  4633 ;; Auto vars:     Size  Location     Type
  4634 ;;		None
  4635 ;; Return value:  Size  Location     Type
  4636 ;;		None               void
  4637 ;; Registers used:
  4638 ;;		wreg, status,2, status,0, pclath, cstack
  4639 ;; Tracked objects:
  4640 ;;		On entry : 0/0
  4641 ;;		On exit  : 0/0
  4642 ;;		Unchanged: 0/0
  4643 ;; Data sizes:     COMMON   BANK0   BANK1   BANK3   BANK2
  4644 ;;      Params:         0       0       0       0       0
  4645 ;;      Locals:         0       0       0       0       0
  4646 ;;      Temps:          0       0       0       0       0
  4647 ;;      Totals:         0       0       0       0       0
  4648 ;;Total ram usage:        0 bytes
  4649 ;; Hardware stack levels used:    1
  4650 ;; Hardware stack levels required when called:    1
  4651 ;; This function calls:
  4652 ;;		_ADCInitialize
  4653 ;;		_InitializeSerialCommunication
  4654 ;; This function is called by:
  4655 ;;		_main
  4656 ;; This function uses a non-reentrant model
  4657 ;;
  4658                           psect	text435
  4659                           	file	"C:\Users\X4ROY\Desktop\URE\LCD Interfacing - Copy\main1.c"
  4660                           	line	78
  4661                           	global	__size_of_MainSystemInitialize
  4662  000B                     	__size_of_MainSystemInitialize	equ	__end_of_MainSystemInitialize-_MainSystemInitialize
  4663                           	
  4664  0B7B                     _MainSystemInitialize:	
  4665                           	opt	stack 6
  4666                           ; Regs used in _MainSystemInitialize: [wreg+status,2+status,0+pclath+cstack]
  4667                           	line	79
  4668                           	
  4669  0B7B                     l4070:	
  4670                           ;main1.c: 79: ADCInitialize();
  4671  0B7B  120A  158A  23BD   	fcall	_ADCInitialize
              120A  158A         
  4672                           	line	80
  4673                           	
  4674  0B80                     l4072:	
  4675                           ;main1.c: 80: InitializeSerialCommunication();
  4676  0B80  120A  158A  239E   	fcall	_InitializeSerialCommunication
              120A  158A         
  4677                           	line	81
  4678                           	
  4679  0B85                     l1186:	
  4680  0B85  0008               	return
  4681                           	opt stack 0
  4682                           GLOBAL	__end_of_MainSystemInitialize
  4683  0B86                     	__end_of_MainSystemInitialize:
  4684 ;; =============== function _MainSystemInitialize ends ============
  4685                           
  4686                           	signat	_MainSystemInitialize,88
  4687                           	global	___awmod
  4688                           psect	text436,local,class=CODE,delta=2
  4689                           global __ptext436
  4690  0D7D                     __ptext436:
  4691                           
  4692 ;; *************** function ___awmod *****************
  4693 ;; Defined at:
  4694 ;;		line 5 in file "C:\Program Files (x86)\HI-TECH Software\PICC\9.80\sources\awmod.c"
  4695 ;; Parameters:    Size  Location     Type
  4696 ;;  divisor         2    0[COMMON] int 
  4697 ;;  dividend        2    2[COMMON] int 
  4698 ;; Auto vars:     Size  Location     Type
  4699 ;;  sign            1    6[COMMON] unsigned char 
  4700 ;;  counter         1    5[COMMON] unsigned char 
  4701 ;; Return value:  Size  Location     Type
  4702 ;;                  2    0[COMMON] int 
  4703 ;; Registers used:
  4704 ;;		wreg, status,2, status,0
  4705 ;; Tracked objects:
  4706 ;;		On entry : 0/0
  4707 ;;		On exit  : 0/0
  4708 ;;		Unchanged: 0/0
  4709 ;; Data sizes:     COMMON   BANK0   BANK1   BANK3   BANK2
  4710 ;;      Params:         4       0       0       0       0
  4711 ;;      Locals:         2       0       0       0       0
  4712 ;;      Temps:          1       0       0       0       0
  4713 ;;      Totals:         7       0       0       0       0
  4714 ;;Total ram usage:        7 bytes
  4715 ;; Hardware stack levels used:    1
  4716 ;; This function calls:
  4717 ;;		Nothing
  4718 ;; This function is called by:
  4719 ;;		_SendIntegerSerially
  4720 ;;		_SendFloatSerially
  4721 ;;		_SendCharSerially
  4722 ;; This function uses a non-reentrant model
  4723 ;;
  4724                           psect	text436
  4725                           	file	"C:\Program Files (x86)\HI-TECH Software\PICC\9.80\sources\awmod.c"
  4726                           	line	5
  4727                           	global	__size_of___awmod
  4728  006A                     	__size_of___awmod	equ	__end_of___awmod-___awmod
  4729                           	
  4730  0D7D                     ___awmod:	
  4731                           	opt	stack 6
  4732                           ; Regs used in ___awmod: [wreg+status,2+status,0]
  4733                           	line	8
  4734                           	
  4735  0D7D                     l3990:	
  4736  0D7D  1003               	clrc
  4737  0D7E  3000               	movlw	0
  4738  0D7F  1803               	btfsc	status,0
  4739  0D80  3001               	movlw	1
  4740  0D81  00F6               	movwf	(___awmod@sign)
  4741                           	line	9
  4742                           	
  4743  0D82                     l3992:	
  4744  0D82  1FF3               	btfss	(___awmod@dividend+1),7
  4745  0D83  2D85               	goto	u2881
  4746  0D84  2D86               	goto	u2880
  4747  0D85                     u2881:
  4748  0D85  2D8F               	goto	l3996
  4749  0D86                     u2880:
  4750                           	line	10
  4751                           	
  4752  0D86                     l3994:	
  4753  0D86  09F2               	comf	(___awmod@dividend),f
  4754  0D87  09F3               	comf	(___awmod@dividend+1),f
  4755  0D88  0AF2               	incf	(___awmod@dividend),f
  4756  0D89  1903               	skipnz
  4757  0D8A  0AF3               	incf	(___awmod@dividend+1),f
  4758                           	line	11
  4759  0D8B  01F6               	clrf	(___awmod@sign)
  4760  0D8C  1403               	bsf	status,0
  4761  0D8D  0DF6               	rlf	(___awmod@sign),f
  4762  0D8E  2D8F               	goto	l3996
  4763                           	line	12
  4764                           	
  4765  0D8F                     l2014:	
  4766                           	line	13
  4767                           	
  4768  0D8F                     l3996:	
  4769  0D8F  1FF1               	btfss	(___awmod@divisor+1),7
  4770  0D90  2D92               	goto	u2891
  4771  0D91  2D93               	goto	u2890
  4772  0D92                     u2891:
  4773  0D92  2D99               	goto	l4000
  4774  0D93                     u2890:
  4775                           	line	14
  4776                           	
  4777  0D93                     l3998:	
  4778  0D93  09F0               	comf	(___awmod@divisor),f
  4779  0D94  09F1               	comf	(___awmod@divisor+1),f
  4780  0D95  0AF0               	incf	(___awmod@divisor),f
  4781  0D96  1903               	skipnz
  4782  0D97  0AF1               	incf	(___awmod@divisor+1),f
  4783  0D98  2D99               	goto	l4000
  4784                           	
  4785  0D99                     l2015:	
  4786                           	line	15
  4787                           	
  4788  0D99                     l4000:	
  4789  0D99  0871               	movf	(___awmod@divisor+1),w
  4790  0D9A  0470               	iorwf	(___awmod@divisor),w
  4791  0D9B  1903               	skipnz
  4792  0D9C  2D9E               	goto	u2901
  4793  0D9D  2D9F               	goto	u2900
  4794  0D9E                     u2901:
  4795  0D9E  2DD5               	goto	l4018
  4796  0D9F                     u2900:
  4797                           	line	16
  4798                           	
  4799  0D9F                     l4002:	
  4800  0D9F  01F5               	clrf	(___awmod@counter)
  4801  0DA0  1403               	bsf	status,0
  4802  0DA1  0DF5               	rlf	(___awmod@counter),f
  4803                           	line	17
  4804  0DA2  2DAF               	goto	l4008
  4805                           	
  4806  0DA3                     l2018:	
  4807                           	line	18
  4808                           	
  4809  0DA3                     l4004:	
  4810  0DA3  3001               	movlw	01h
  4811                           	
  4812  0DA4                     u2915:
  4813  0DA4  1003               	clrc
  4814  0DA5  0DF0               	rlf	(___awmod@divisor),f
  4815  0DA6  0DF1               	rlf	(___awmod@divisor+1),f
  4816  0DA7  3EFF               	addlw	-1
  4817  0DA8  1D03               	skipz
  4818  0DA9  2DA4               	goto	u2915
  4819                           	line	19
  4820                           	
  4821  0DAA                     l4006:	
  4822  0DAA  3001               	movlw	(01h)
  4823  0DAB  00F4               	movwf	(??___awmod+0)+0
  4824  0DAC  0874               	movf	(??___awmod+0)+0,w
  4825  0DAD  07F5               	addwf	(___awmod@counter),f
  4826  0DAE  2DAF               	goto	l4008
  4827                           	line	20
  4828                           	
  4829  0DAF                     l2017:	
  4830                           	line	17
  4831                           	
  4832  0DAF                     l4008:	
  4833  0DAF  1FF1               	btfss	(___awmod@divisor+1),(15)&7
  4834  0DB0  2DB2               	goto	u2921
  4835  0DB1  2DB3               	goto	u2920
  4836  0DB2                     u2921:
  4837  0DB2  2DA3               	goto	l4004
  4838  0DB3                     u2920:
  4839  0DB3  2DB5               	goto	l4010
  4840                           	
  4841  0DB4                     l2019:	
  4842  0DB4  2DB5               	goto	l4010
  4843                           	line	21
  4844                           	
  4845  0DB5                     l2020:	
  4846                           	line	22
  4847                           	
  4848  0DB5                     l4010:	
  4849  0DB5  0871               	movf	(___awmod@divisor+1),w
  4850  0DB6  0273               	subwf	(___awmod@dividend+1),w
  4851  0DB7  1D03               	skipz
  4852  0DB8  2DBB               	goto	u2935
  4853  0DB9  0870               	movf	(___awmod@divisor),w
  4854  0DBA  0272               	subwf	(___awmod@dividend),w
  4855  0DBB                     u2935:
  4856  0DBB  1C03               	skipc
  4857  0DBC  2DBE               	goto	u2931
  4858  0DBD  2DBF               	goto	u2930
  4859  0DBE                     u2931:
  4860  0DBE  2DC6               	goto	l4014
  4861  0DBF                     u2930:
  4862                           	line	23
  4863                           	
  4864  0DBF                     l4012:	
  4865  0DBF  0870               	movf	(___awmod@divisor),w
  4866  0DC0  02F2               	subwf	(___awmod@dividend),f
  4867  0DC1  0871               	movf	(___awmod@divisor+1),w
  4868  0DC2  1C03               	skipc
  4869  0DC3  03F3               	decf	(___awmod@dividend+1),f
  4870  0DC4  02F3               	subwf	(___awmod@dividend+1),f
  4871  0DC5  2DC6               	goto	l4014
  4872                           	
  4873  0DC6                     l2021:	
  4874                           	line	24
  4875                           	
  4876  0DC6                     l4014:	
  4877  0DC6  3001               	movlw	01h
  4878                           	
  4879  0DC7                     u2945:
  4880  0DC7  1003               	clrc
  4881  0DC8  0CF1               	rrf	(___awmod@divisor+1),f
  4882  0DC9  0CF0               	rrf	(___awmod@divisor),f
  4883  0DCA  3EFF               	addlw	-1
  4884  0DCB  1D03               	skipz
  4885  0DCC  2DC7               	goto	u2945
  4886                           	line	25
  4887                           	
  4888  0DCD                     l4016:	
  4889  0DCD  3001               	movlw	low(01h)
  4890  0DCE  02F5               	subwf	(___awmod@counter),f
  4891  0DCF  1D03               	btfss	status,2
  4892  0DD0  2DD2               	goto	u2951
  4893  0DD1  2DD3               	goto	u2950
  4894  0DD2                     u2951:
  4895  0DD2  2DB5               	goto	l4010
  4896  0DD3                     u2950:
  4897  0DD3  2DD5               	goto	l4018
  4898                           	
  4899  0DD4                     l2022:	
  4900  0DD4  2DD5               	goto	l4018
  4901                           	line	26
  4902                           	
  4903  0DD5                     l2016:	
  4904                           	line	27
  4905                           	
  4906  0DD5                     l4018:	
  4907  0DD5  0876               	movf	(___awmod@sign),w
  4908  0DD6  1D03               	skipz
  4909  0DD7  2DD9               	goto	u2960
  4910  0DD8  2DDF               	goto	l4022
  4911  0DD9                     u2960:
  4912                           	line	28
  4913                           	
  4914  0DD9                     l4020:	
  4915  0DD9  09F2               	comf	(___awmod@dividend),f
  4916  0DDA  09F3               	comf	(___awmod@dividend+1),f
  4917  0DDB  0AF2               	incf	(___awmod@dividend),f
  4918  0DDC  1903               	skipnz
  4919  0DDD  0AF3               	incf	(___awmod@dividend+1),f
  4920  0DDE  2DDF               	goto	l4022
  4921                           	
  4922  0DDF                     l2023:	
  4923                           	line	29
  4924                           	
  4925  0DDF                     l4022:	
  4926  0DDF  0873               	movf	(___awmod@dividend+1),w
  4927  0DE0  01F1               	clrf	(?___awmod+1)
  4928  0DE1  07F1               	addwf	(?___awmod+1)
  4929  0DE2  0872               	movf	(___awmod@dividend),w
  4930  0DE3  01F0               	clrf	(?___awmod)
  4931  0DE4  07F0               	addwf	(?___awmod)
  4932                           
  4933  0DE5  2DE6               	goto	l2024
  4934                           	
  4935  0DE6                     l4024:	
  4936                           	line	30
  4937                           	
  4938  0DE6                     l2024:	
  4939  0DE6  0008               	return
  4940                           	opt stack 0
  4941                           GLOBAL	__end_of___awmod
  4942  0DE7                     	__end_of___awmod:
  4943 ;; =============== function ___awmod ends ============
  4944                           
  4945                           	signat	___awmod,8314
  4946                           	global	___ftge
  4947                           psect	text437,local,class=CODE,delta=2
  4948                           global __ptext437
  4949  00AA                     __ptext437:
  4950                           
  4951 ;; *************** function ___ftge *****************
  4952 ;; Defined at:
  4953 ;;		line 5 in file "C:\Program Files (x86)\HI-TECH Software\PICC\9.80\sources\ftge.c"
  4954 ;; Parameters:    Size  Location     Type
  4955 ;;  ff1             3    0[COMMON] float 
  4956 ;;  ff2             3    3[COMMON] float 
  4957 ;; Auto vars:     Size  Location     Type
  4958 ;;		None
  4959 ;; Return value:  Size  Location     Type
  4960 ;;		None               void
  4961 ;; Registers used:
  4962 ;;		wreg, status,2, status,0
  4963 ;; Tracked objects:
  4964 ;;		On entry : 0/0
  4965 ;;		On exit  : 0/0
  4966 ;;		Unchanged: 0/0
  4967 ;; Data sizes:     COMMON   BANK0   BANK1   BANK3   BANK2
  4968 ;;      Params:         6       0       0       0       0
  4969 ;;      Locals:         0       0       0       0       0
  4970 ;;      Temps:          6       0       0       0       0
  4971 ;;      Totals:        12       0       0       0       0
  4972 ;;Total ram usage:       12 bytes
  4973 ;; Hardware stack levels used:    1
  4974 ;; This function calls:
  4975 ;;		Nothing
  4976 ;; This function is called by:
  4977 ;;		_main
  4978 ;;		_SendFloatSerially
  4979 ;; This function uses a non-reentrant model
  4980 ;;
  4981                           psect	text437
  4982                           	file	"C:\Program Files (x86)\HI-TECH Software\PICC\9.80\sources\ftge.c"
  4983                           	line	5
  4984                           	global	__size_of___ftge
  4985  006C                     	__size_of___ftge	equ	__end_of___ftge-___ftge
  4986                           	
  4987  00AA                     ___ftge:	
  4988                           	opt	stack 7
  4989                           ; Regs used in ___ftge: [wreg+status,2+status,0]
  4990                           	line	6
  4991                           	
  4992  00AA                     l3970:	
  4993  00AA  1FF2               	btfss	(___ftge@ff1+2),(23)&7
  4994  00AB  28AD               	goto	u2831
  4995  00AC  28AE               	goto	u2830
  4996  00AD                     u2831:
  4997  00AD  28D4               	goto	l3974
  4998  00AE                     u2830:
  4999                           	line	7
  5000                           	
  5001  00AE                     l3972:	
  5002  00AE  3000               	movlw	0
  5003  00AF  00F6               	movwf	((??___ftge+0)+0)
  5004  00B0  3000               	movlw	0
  5005  00B1  00F7               	movwf	((??___ftge+0)+0+1)
  5006  00B2  3080               	movlw	080h
  5007  00B3  00F8               	movwf	((??___ftge+0)+0+2)
  5008  00B4  0970               	comf	(___ftge@ff1),w
  5009  00B5  00F9               	movwf	(??___ftge+3)+0
  5010  00B6  0971               	comf	(___ftge@ff1+1),w
  5011  00B7  00FA               	movwf	((??___ftge+3)+0+1)
  5012  00B8  0972               	comf	(___ftge@ff1+2),w
  5013  00B9  00FB               	movwf	((??___ftge+3)+0+2)
  5014  00BA  0AF9               	incf	(??___ftge+3)+0,f
  5015  00BB  1903               	skipnz
  5016  00BC  0AFA               	incf	((??___ftge+3)+0+1),f
  5017  00BD  1903               	skipnz
  5018  00BE  0AFB               	incf	((??___ftge+3)+0+2),f
  5019  00BF  0879               	movf	0+(??___ftge+3)+0,w
  5020  00C0  07F6               	addwf	(??___ftge+0)+0,f
  5021  00C1  087A               	movf	1+(??___ftge+3)+0,w
  5022  00C2  1803               	skipnc
  5023  00C3  0F7A               	incfsz	1+(??___ftge+3)+0,w
  5024  00C4  28C6               	goto	u2841
  5025  00C5  28C7               	goto	u2842
  5026  00C6                     u2841:
  5027  00C6  07F7               	addwf	(??___ftge+0)+1,f
  5028                           	
  5029  00C7                     u2842:
  5030  00C7  087B               	movf	2+(??___ftge+3)+0,w
  5031  00C8  1803               	skipnc
  5032  00C9  0F7B               	incfsz	2+(??___ftge+3)+0,w
  5033  00CA  28CC               	goto	u2843
  5034  00CB  28CD               	goto	u2844
  5035  00CC                     u2843:
  5036  00CC  07F8               	addwf	(??___ftge+0)+2,f
  5037                           	
  5038  00CD                     u2844:
  5039  00CD  0876               	movf	0+(??___ftge+0)+0,w
  5040  00CE  00F0               	movwf	(___ftge@ff1)
  5041  00CF  0877               	movf	1+(??___ftge+0)+0,w
  5042  00D0  00F1               	movwf	(___ftge@ff1+1)
  5043  00D1  0878               	movf	2+(??___ftge+0)+0,w
  5044  00D2  00F2               	movwf	(___ftge@ff1+2)
  5045  00D3  28D4               	goto	l3974
  5046                           	
  5047  00D4                     l1973:	
  5048                           	line	8
  5049                           	
  5050  00D4                     l3974:	
  5051  00D4  1FF5               	btfss	(___ftge@ff2+2),(23)&7
  5052  00D5  28D7               	goto	u2851
  5053  00D6  28D8               	goto	u2850
  5054  00D7                     u2851:
  5055  00D7  28FE               	goto	l3978
  5056  00D8                     u2850:
  5057                           	line	9
  5058                           	
  5059  00D8                     l3976:	
  5060  00D8  3000               	movlw	0
  5061  00D9  00F6               	movwf	((??___ftge+0)+0)
  5062  00DA  3000               	movlw	0
  5063  00DB  00F7               	movwf	((??___ftge+0)+0+1)
  5064  00DC  3080               	movlw	080h
  5065  00DD  00F8               	movwf	((??___ftge+0)+0+2)
  5066  00DE  0973               	comf	(___ftge@ff2),w
  5067  00DF  00F9               	movwf	(??___ftge+3)+0
  5068  00E0  0974               	comf	(___ftge@ff2+1),w
  5069  00E1  00FA               	movwf	((??___ftge+3)+0+1)
  5070  00E2  0975               	comf	(___ftge@ff2+2),w
  5071  00E3  00FB               	movwf	((??___ftge+3)+0+2)
  5072  00E4  0AF9               	incf	(??___ftge+3)+0,f
  5073  00E5  1903               	skipnz
  5074  00E6  0AFA               	incf	((??___ftge+3)+0+1),f
  5075  00E7  1903               	skipnz
  5076  00E8  0AFB               	incf	((??___ftge+3)+0+2),f
  5077  00E9  0879               	movf	0+(??___ftge+3)+0,w
  5078  00EA  07F6               	addwf	(??___ftge+0)+0,f
  5079  00EB  087A               	movf	1+(??___ftge+3)+0,w
  5080  00EC  1803               	skipnc
  5081  00ED  0F7A               	incfsz	1+(??___ftge+3)+0,w
  5082  00EE  28F0               	goto	u2861
  5083  00EF  28F1               	goto	u2862
  5084  00F0                     u2861:
  5085  00F0  07F7               	addwf	(??___ftge+0)+1,f
  5086                           	
  5087  00F1                     u2862:
  5088  00F1  087B               	movf	2+(??___ftge+3)+0,w
  5089  00F2  1803               	skipnc
  5090  00F3  0F7B               	incfsz	2+(??___ftge+3)+0,w
  5091  00F4  28F6               	goto	u2863
  5092  00F5  28F7               	goto	u2864
  5093  00F6                     u2863:
  5094  00F6  07F8               	addwf	(??___ftge+0)+2,f
  5095                           	
  5096  00F7                     u2864:
  5097  00F7  0876               	movf	0+(??___ftge+0)+0,w
  5098  00F8  00F3               	movwf	(___ftge@ff2)
  5099  00F9  0877               	movf	1+(??___ftge+0)+0,w
  5100  00FA  00F4               	movwf	(___ftge@ff2+1)
  5101  00FB  0878               	movf	2+(??___ftge+0)+0,w
  5102  00FC  00F5               	movwf	(___ftge@ff2+2)
  5103  00FD  28FE               	goto	l3978
  5104                           	
  5105  00FE                     l1974:	
  5106                           	line	10
  5107                           	
  5108  00FE                     l3978:	
  5109  00FE  3080               	movlw	080h
  5110  00FF  06F2               	xorwf	(___ftge@ff1+2),f
  5111                           	line	11
  5112                           	
  5113  0100                     l3980:	
  5114  0100  3080               	movlw	080h
  5115  0101  06F5               	xorwf	(___ftge@ff2+2),f
  5116                           	line	12
  5117                           	
  5118  0102                     l3982:	
  5119  0102  0875               	movf	(___ftge@ff2+2),w
  5120  0103  0272               	subwf	(___ftge@ff1+2),w
  5121  0104  1D03               	skipz
  5122  0105  290C               	goto	u2875
  5123  0106  0874               	movf	(___ftge@ff2+1),w
  5124  0107  0271               	subwf	(___ftge@ff1+1),w
  5125  0108  1D03               	skipz
  5126  0109  290C               	goto	u2875
  5127  010A  0873               	movf	(___ftge@ff2),w
  5128  010B  0270               	subwf	(___ftge@ff1),w
  5129  010C                     u2875:
  5130  010C  1803               	skipnc
  5131  010D  290F               	goto	u2871
  5132  010E  2910               	goto	u2870
  5133  010F                     u2871:
  5134  010F  2912               	goto	l3986
  5135  0110                     u2870:
  5136                           	
  5137  0110                     l3984:	
  5138  0110  1003               	clrc
  5139                           	
  5140  0111  2915               	goto	l1975
  5141                           	
  5142  0112                     l3780:	
  5143                           	
  5144  0112                     l3986:	
  5145  0112  1403               	setc
  5146                           	
  5147  0113  2915               	goto	l1975
  5148                           	
  5149  0114                     l3782:	
  5150  0114  2915               	goto	l1975
  5151                           	
  5152  0115                     l3988:	
  5153                           	line	13
  5154                           	
  5155  0115                     l1975:	
  5156  0115  0008               	return
  5157                           	opt stack 0
  5158                           GLOBAL	__end_of___ftge
  5159  0116                     	__end_of___ftge:
  5160 ;; =============== function ___ftge ends ============
  5161                           
  5162                           	signat	___ftge,8312
  5163                           	global	___ftneg
  5164                           psect	text438,local,class=CODE,delta=2
  5165                           global __ptext438
  5166  0B92                     __ptext438:
  5167                           
  5168 ;; *************** function ___ftneg *****************
  5169 ;; Defined at:
  5170 ;;		line 16 in file "C:\Program Files (x86)\HI-TECH Software\PICC\9.80\sources\ftneg.c"
  5171 ;; Parameters:    Size  Location     Type
  5172 ;;  f1              3    8[COMMON] float 
  5173 ;; Auto vars:     Size  Location     Type
  5174 ;;		None
  5175 ;; Return value:  Size  Location     Type
  5176 ;;                  3    8[COMMON] float 
  5177 ;; Registers used:
  5178 ;;		wreg
  5179 ;; Tracked objects:
  5180 ;;		On entry : 0/0
  5181 ;;		On exit  : 0/0
  5182 ;;		Unchanged: 0/0
  5183 ;; Data sizes:     COMMON   BANK0   BANK1   BANK3   BANK2
  5184 ;;      Params:         3       0       0       0       0
  5185 ;;      Locals:         0       0       0       0       0
  5186 ;;      Temps:          0       0       0       0       0
  5187 ;;      Totals:         3       0       0       0       0
  5188 ;;Total ram usage:        3 bytes
  5189 ;; Hardware stack levels used:    1
  5190 ;; This function calls:
  5191 ;;		Nothing
  5192 ;; This function is called by:
  5193 ;;		_SendFloatSerially
  5194 ;; This function uses a non-reentrant model
  5195 ;;
  5196                           psect	text438
  5197                           	file	"C:\Program Files (x86)\HI-TECH Software\PICC\9.80\sources\ftneg.c"
  5198                           	line	16
  5199                           	global	__size_of___ftneg
  5200  000C                     	__size_of___ftneg	equ	__end_of___ftneg-___ftneg
  5201                           	
  5202  0B92                     ___ftneg:	
  5203                           	opt	stack 6
  5204                           ; Regs used in ___ftneg: [wreg]
  5205                           	line	17
  5206                           	
  5207  0B92                     l3962:	
  5208  0B92  087A               	movf	(___ftneg@f1+2),w
  5209  0B93  0479               	iorwf	(___ftneg@f1+1),w
  5210  0B94  0478               	iorwf	(___ftneg@f1),w
  5211  0B95  1903               	skipnz
  5212  0B96  2B98               	goto	u2821
  5213  0B97  2B99               	goto	u2820
  5214  0B98                     u2821:
  5215  0B98  2B9C               	goto	l3966
  5216  0B99                     u2820:
  5217                           	line	18
  5218                           	
  5219  0B99                     l3964:	
  5220  0B99  3080               	movlw	080h
  5221  0B9A  06FA               	xorwf	(___ftneg@f1+2),f
  5222  0B9B  2B9C               	goto	l3966
  5223                           	
  5224  0B9C                     l1969:	
  5225                           	line	19
  5226                           	
  5227  0B9C                     l3966:	
  5228  0B9C  2B9D               	goto	l1970
  5229                           	
  5230  0B9D                     l3968:	
  5231                           	line	20
  5232                           	
  5233  0B9D                     l1970:	
  5234  0B9D  0008               	return
  5235                           	opt stack 0
  5236                           GLOBAL	__end_of___ftneg
  5237  0B9E                     	__end_of___ftneg:
  5238 ;; =============== function ___ftneg ends ============
  5239                           
  5240                           	signat	___ftneg,4219
  5241                           	global	___awdiv
  5242                           psect	text439,local,class=CODE,delta=2
  5243                           global __ptext439
  5244  0DE7                     __ptext439:
  5245                           
  5246 ;; *************** function ___awdiv *****************
  5247 ;; Defined at:
  5248 ;;		line 5 in file "C:\Program Files (x86)\HI-TECH Software\PICC\9.80\sources\awdiv.c"
  5249 ;; Parameters:    Size  Location     Type
  5250 ;;  divisor         2    0[COMMON] int 
  5251 ;;  dividend        2    2[COMMON] int 
  5252 ;; Auto vars:     Size  Location     Type
  5253 ;;  quotient        2    7[COMMON] int 
  5254 ;;  sign            1    6[COMMON] unsigned char 
  5255 ;;  counter         1    5[COMMON] unsigned char 
  5256 ;; Return value:  Size  Location     Type
  5257 ;;                  2    0[COMMON] int 
  5258 ;; Registers used:
  5259 ;;		wreg, status,2, status,0
  5260 ;; Tracked objects:
  5261 ;;		On entry : 0/0
  5262 ;;		On exit  : 0/0
  5263 ;;		Unchanged: 0/0
  5264 ;; Data sizes:     COMMON   BANK0   BANK1   BANK3   BANK2
  5265 ;;      Params:         4       0       0       0       0
  5266 ;;      Locals:         4       0       0       0       0
  5267 ;;      Temps:          1       0       0       0       0
  5268 ;;      Totals:         9       0       0       0       0
  5269 ;;Total ram usage:        9 bytes
  5270 ;; Hardware stack levels used:    1
  5271 ;; This function calls:
  5272 ;;		Nothing
  5273 ;; This function is called by:
  5274 ;;		_SendIntegerSerially
  5275 ;;		_SendFloatSerially
  5276 ;;		_SendCharSerially
  5277 ;; This function uses a non-reentrant model
  5278 ;;
  5279                           psect	text439
  5280                           	file	"C:\Program Files (x86)\HI-TECH Software\PICC\9.80\sources\awdiv.c"
  5281                           	line	5
  5282                           	global	__size_of___awdiv
  5283  0079                     	__size_of___awdiv	equ	__end_of___awdiv-___awdiv
  5284                           	
  5285  0DE7                     ___awdiv:	
  5286                           	opt	stack 6
  5287                           ; Regs used in ___awdiv: [wreg+status,2+status,0]
  5288                           	line	9
  5289                           	
  5290  0DE7                     l3924:	
  5291  0DE7  1003               	clrc
  5292  0DE8  3000               	movlw	0
  5293  0DE9  1803               	btfsc	status,0
  5294  0DEA  3001               	movlw	1
  5295  0DEB  00F6               	movwf	(___awdiv@sign)
  5296                           	line	10
  5297                           	
  5298  0DEC                     l3926:	
  5299  0DEC  1FF1               	btfss	(___awdiv@divisor+1),7
  5300  0DED  2DEF               	goto	u2721
  5301  0DEE  2DF0               	goto	u2720
  5302  0DEF                     u2721:
  5303  0DEF  2DF9               	goto	l3930
  5304  0DF0                     u2720:
  5305                           	line	11
  5306                           	
  5307  0DF0                     l3928:	
  5308  0DF0  09F0               	comf	(___awdiv@divisor),f
  5309  0DF1  09F1               	comf	(___awdiv@divisor+1),f
  5310  0DF2  0AF0               	incf	(___awdiv@divisor),f
  5311  0DF3  1903               	skipnz
  5312  0DF4  0AF1               	incf	(___awdiv@divisor+1),f
  5313                           	line	12
  5314  0DF5  01F6               	clrf	(___awdiv@sign)
  5315  0DF6  1403               	bsf	status,0
  5316  0DF7  0DF6               	rlf	(___awdiv@sign),f
  5317  0DF8  2DF9               	goto	l3930
  5318                           	line	13
  5319                           	
  5320  0DF9                     l1946:	
  5321                           	line	14
  5322                           	
  5323  0DF9                     l3930:	
  5324  0DF9  1FF3               	btfss	(___awdiv@dividend+1),7
  5325  0DFA  2DFC               	goto	u2731
  5326  0DFB  2DFD               	goto	u2730
  5327  0DFC                     u2731:
  5328  0DFC  2E06               	goto	l1947
  5329  0DFD                     u2730:
  5330                           	line	15
  5331                           	
  5332  0DFD                     l3932:	
  5333  0DFD  09F2               	comf	(___awdiv@dividend),f
  5334  0DFE  09F3               	comf	(___awdiv@dividend+1),f
  5335  0DFF  0AF2               	incf	(___awdiv@dividend),f
  5336  0E00  1903               	skipnz
  5337  0E01  0AF3               	incf	(___awdiv@dividend+1),f
  5338                           	line	16
  5339                           	
  5340  0E02                     l3934:	
  5341  0E02  3001               	movlw	(01h)
  5342  0E03  00F4               	movwf	(??___awdiv+0)+0
  5343  0E04  0874               	movf	(??___awdiv+0)+0,w
  5344  0E05  06F6               	xorwf	(___awdiv@sign),f
  5345                           	line	17
  5346                           	
  5347  0E06                     l1947:	
  5348                           	line	18
  5349  0E06  3000               	movlw	low(0)
  5350  0E07  00F7               	movwf	(___awdiv@quotient)
  5351  0E08  3000               	movlw	high(0)
  5352  0E09  00F8               	movwf	((___awdiv@quotient))+1
  5353                           	line	19
  5354  0E0A  0871               	movf	(___awdiv@divisor+1),w
  5355  0E0B  0470               	iorwf	(___awdiv@divisor),w
  5356  0E0C  1903               	skipnz
  5357  0E0D  2E0F               	goto	u2741
  5358  0E0E  2E10               	goto	u2740
  5359  0E0F                     u2741:
  5360  0E0F  2E4E               	goto	l3954
  5361  0E10                     u2740:
  5362                           	line	20
  5363                           	
  5364  0E10                     l3936:	
  5365  0E10  01F5               	clrf	(___awdiv@counter)
  5366  0E11  1403               	bsf	status,0
  5367  0E12  0DF5               	rlf	(___awdiv@counter),f
  5368                           	line	21
  5369  0E13  2E20               	goto	l3942
  5370                           	
  5371  0E14                     l1950:	
  5372                           	line	22
  5373                           	
  5374  0E14                     l3938:	
  5375  0E14  3001               	movlw	01h
  5376                           	
  5377  0E15                     u2755:
  5378  0E15  1003               	clrc
  5379  0E16  0DF0               	rlf	(___awdiv@divisor),f
  5380  0E17  0DF1               	rlf	(___awdiv@divisor+1),f
  5381  0E18  3EFF               	addlw	-1
  5382  0E19  1D03               	skipz
  5383  0E1A  2E15               	goto	u2755
  5384                           	line	23
  5385                           	
  5386  0E1B                     l3940:	
  5387  0E1B  3001               	movlw	(01h)
  5388  0E1C  00F4               	movwf	(??___awdiv+0)+0
  5389  0E1D  0874               	movf	(??___awdiv+0)+0,w
  5390  0E1E  07F5               	addwf	(___awdiv@counter),f
  5391  0E1F  2E20               	goto	l3942
  5392                           	line	24
  5393                           	
  5394  0E20                     l1949:	
  5395                           	line	21
  5396                           	
  5397  0E20                     l3942:	
  5398  0E20  1FF1               	btfss	(___awdiv@divisor+1),(15)&7
  5399  0E21  2E23               	goto	u2761
  5400  0E22  2E24               	goto	u2760
  5401  0E23                     u2761:
  5402  0E23  2E14               	goto	l3938
  5403  0E24                     u2760:
  5404  0E24  2E26               	goto	l3944
  5405                           	
  5406  0E25                     l1951:	
  5407  0E25  2E26               	goto	l3944
  5408                           	line	25
  5409                           	
  5410  0E26                     l1952:	
  5411                           	line	26
  5412                           	
  5413  0E26                     l3944:	
  5414  0E26  3001               	movlw	01h
  5415                           	
  5416  0E27                     u2775:
  5417  0E27  1003               	clrc
  5418  0E28  0DF7               	rlf	(___awdiv@quotient),f
  5419  0E29  0DF8               	rlf	(___awdiv@quotient+1),f
  5420  0E2A  3EFF               	addlw	-1
  5421  0E2B  1D03               	skipz
  5422  0E2C  2E27               	goto	u2775
  5423                           	line	27
  5424  0E2D  0871               	movf	(___awdiv@divisor+1),w
  5425  0E2E  0273               	subwf	(___awdiv@dividend+1),w
  5426  0E2F  1D03               	skipz
  5427  0E30  2E33               	goto	u2785
  5428  0E31  0870               	movf	(___awdiv@divisor),w
  5429  0E32  0272               	subwf	(___awdiv@dividend),w
  5430  0E33                     u2785:
  5431  0E33  1C03               	skipc
  5432  0E34  2E36               	goto	u2781
  5433  0E35  2E37               	goto	u2780
  5434  0E36                     u2781:
  5435  0E36  2E3F               	goto	l3950
  5436  0E37                     u2780:
  5437                           	line	28
  5438                           	
  5439  0E37                     l3946:	
  5440  0E37  0870               	movf	(___awdiv@divisor),w
  5441  0E38  02F2               	subwf	(___awdiv@dividend),f
  5442  0E39  0871               	movf	(___awdiv@divisor+1),w
  5443  0E3A  1C03               	skipc
  5444  0E3B  03F3               	decf	(___awdiv@dividend+1),f
  5445  0E3C  02F3               	subwf	(___awdiv@dividend+1),f
  5446                           	line	29
  5447                           	
  5448  0E3D                     l3948:	
  5449  0E3D  1477               	bsf	(___awdiv@quotient)+(0/8),(0)&7
  5450  0E3E  2E3F               	goto	l3950
  5451                           	line	30
  5452                           	
  5453  0E3F                     l1953:	
  5454                           	line	31
  5455                           	
  5456  0E3F                     l3950:	
  5457  0E3F  3001               	movlw	01h
  5458                           	
  5459  0E40                     u2795:
  5460  0E40  1003               	clrc
  5461  0E41  0CF1               	rrf	(___awdiv@divisor+1),f
  5462  0E42  0CF0               	rrf	(___awdiv@divisor),f
  5463  0E43  3EFF               	addlw	-1
  5464  0E44  1D03               	skipz
  5465  0E45  2E40               	goto	u2795
  5466                           	line	32
  5467                           	
  5468  0E46                     l3952:	
  5469  0E46  3001               	movlw	low(01h)
  5470  0E47  02F5               	subwf	(___awdiv@counter),f
  5471  0E48  1D03               	btfss	status,2
  5472  0E49  2E4B               	goto	u2801
  5473  0E4A  2E4C               	goto	u2800
  5474  0E4B                     u2801:
  5475  0E4B  2E26               	goto	l3944
  5476  0E4C                     u2800:
  5477  0E4C  2E4E               	goto	l3954
  5478                           	
  5479  0E4D                     l1954:	
  5480  0E4D  2E4E               	goto	l3954
  5481                           	line	33
  5482                           	
  5483  0E4E                     l1948:	
  5484                           	line	34
  5485                           	
  5486  0E4E                     l3954:	
  5487  0E4E  0876               	movf	(___awdiv@sign),w
  5488  0E4F  1D03               	skipz
  5489  0E50  2E52               	goto	u2810
  5490  0E51  2E58               	goto	l3958
  5491  0E52                     u2810:
  5492                           	line	35
  5493                           	
  5494  0E52                     l3956:	
  5495  0E52  09F7               	comf	(___awdiv@quotient),f
  5496  0E53  09F8               	comf	(___awdiv@quotient+1),f
  5497  0E54  0AF7               	incf	(___awdiv@quotient),f
  5498  0E55  1903               	skipnz
  5499  0E56  0AF8               	incf	(___awdiv@quotient+1),f
  5500  0E57  2E58               	goto	l3958
  5501                           	
  5502  0E58                     l1955:	
  5503                           	line	36
  5504                           	
  5505  0E58                     l3958:	
  5506  0E58  0878               	movf	(___awdiv@quotient+1),w
  5507  0E59  01F1               	clrf	(?___awdiv+1)
  5508  0E5A  07F1               	addwf	(?___awdiv+1)
  5509  0E5B  0877               	movf	(___awdiv@quotient),w
  5510  0E5C  01F0               	clrf	(?___awdiv)
  5511  0E5D  07F0               	addwf	(?___awdiv)
  5512                           
  5513  0E5E  2E5F               	goto	l1956
  5514                           	
  5515  0E5F                     l3960:	
  5516                           	line	37
  5517                           	
  5518  0E5F                     l1956:	
  5519  0E5F  0008               	return
  5520                           	opt stack 0
  5521                           GLOBAL	__end_of___awdiv
  5522  0E60                     	__end_of___awdiv:
  5523 ;; =============== function ___awdiv ends ============
  5524                           
  5525                           	signat	___awdiv,8314
  5526                           	global	___fttol
  5527                           psect	text440,local,class=CODE,delta=2
  5528                           global __ptext440
  5529  0F5C                     __ptext440:
  5530                           
  5531 ;; *************** function ___fttol *****************
  5532 ;; Defined at:
  5533 ;;		line 45 in file "C:\Program Files (x86)\HI-TECH Software\PICC\9.80\sources\fttol.c"
  5534 ;; Parameters:    Size  Location     Type
  5535 ;;  f1              3    0[COMMON] float 
  5536 ;; Auto vars:     Size  Location     Type
  5537 ;;  lval            4    9[COMMON] unsigned long 
  5538 ;;  exp1            1   13[COMMON] unsigned char 
  5539 ;;  sign1           1    8[COMMON] unsigned char 
  5540 ;; Return value:  Size  Location     Type
  5541 ;;                  4    0[COMMON] long 
  5542 ;; Registers used:
  5543 ;;		wreg, status,2, status,0
  5544 ;; Tracked objects:
  5545 ;;		On entry : 0/0
  5546 ;;		On exit  : 0/0
  5547 ;;		Unchanged: 0/0
  5548 ;; Data sizes:     COMMON   BANK0   BANK1   BANK3   BANK2
  5549 ;;      Params:         4       0       0       0       0
  5550 ;;      Locals:         6       0       0       0       0
  5551 ;;      Temps:          4       0       0       0       0
  5552 ;;      Totals:        14       0       0       0       0
  5553 ;;Total ram usage:       14 bytes
  5554 ;; Hardware stack levels used:    1
  5555 ;; This function calls:
  5556 ;;		Nothing
  5557 ;; This function is called by:
  5558 ;;		_main
  5559 ;;		_SendFloatSerially
  5560 ;; This function uses a non-reentrant model
  5561 ;;
  5562                           psect	text440
  5563                           	file	"C:\Program Files (x86)\HI-TECH Software\PICC\9.80\sources\fttol.c"
  5564                           	line	45
  5565                           	global	__size_of___fttol
  5566  00A4                     	__size_of___fttol	equ	__end_of___fttol-___fttol
  5567                           	
  5568  0F5C                     ___fttol:	
  5569                           	opt	stack 7
  5570                           ; Regs used in ___fttol: [wreg+status,2+status,0]
  5571                           	line	49
  5572                           	
  5573  0F5C                     l3866:	
  5574  0F5C  0870               	movf	(___fttol@f1),w
  5575  0F5D  00F4               	movwf	((??___fttol+0)+0)
  5576  0F5E  0871               	movf	(___fttol@f1+1),w
  5577  0F5F  00F5               	movwf	((??___fttol+0)+0+1)
  5578  0F60  0872               	movf	(___fttol@f1+2),w
  5579  0F61  00F6               	movwf	((??___fttol+0)+0+2)
  5580  0F62  1003               	clrc
  5581  0F63  0D75               	rlf	(??___fttol+0)+1,w
  5582  0F64  0D76               	rlf	(??___fttol+0)+2,w
  5583  0F65  00F7               	movwf	(??___fttol+3)+0
  5584  0F66  0877               	movf	(??___fttol+3)+0,w
  5585  0F67  00FD               	movwf	(___fttol@exp1)
  5586  0F68  08FD               	movf	((___fttol@exp1)),f
  5587  0F69  1D03               	skipz
  5588  0F6A  2F6C               	goto	u2611
  5589  0F6B  2F6D               	goto	u2610
  5590  0F6C                     u2611:
  5591  0F6C  2F77               	goto	l3872
  5592  0F6D                     u2610:
  5593                           	line	50
  5594                           	
  5595  0F6D                     l3868:	
  5596  0F6D  3000               	movlw	0
  5597  0F6E  00F3               	movwf	(?___fttol+3)
  5598  0F6F  3000               	movlw	0
  5599  0F70  00F2               	movwf	(?___fttol+2)
  5600  0F71  3000               	movlw	0
  5601  0F72  00F1               	movwf	(?___fttol+1)
  5602  0F73  3000               	movlw	0
  5603  0F74  00F0               	movwf	(?___fttol)
  5604                           
  5605  0F75  2FFF               	goto	l1916
  5606                           	
  5607  0F76                     l3870:	
  5608  0F76  2FFF               	goto	l1916
  5609                           	
  5610  0F77                     l1915:	
  5611                           	line	51
  5612                           	
  5613  0F77                     l3872:	
  5614  0F77  0870               	movf	(___fttol@f1),w
  5615  0F78  00F4               	movwf	((??___fttol+0)+0)
  5616  0F79  0871               	movf	(___fttol@f1+1),w
  5617  0F7A  00F5               	movwf	((??___fttol+0)+0+1)
  5618  0F7B  0872               	movf	(___fttol@f1+2),w
  5619  0F7C  00F6               	movwf	((??___fttol+0)+0+2)
  5620  0F7D  3017               	movlw	017h
  5621  0F7E                     u2625:
  5622  0F7E  1003               	clrc
  5623  0F7F  0CF6               	rrf	(??___fttol+0)+2,f
  5624  0F80  0CF5               	rrf	(??___fttol+0)+1,f
  5625  0F81  0CF4               	rrf	(??___fttol+0)+0,f
  5626  0F82                     u2620:
  5627  0F82  3EFF               	addlw	-1
  5628  0F83  1D03               	skipz
  5629  0F84  2F7E               	goto	u2625
  5630  0F85  0874               	movf	0+(??___fttol+0)+0,w
  5631  0F86  00F7               	movwf	(??___fttol+3)+0
  5632  0F87  0877               	movf	(??___fttol+3)+0,w
  5633  0F88  00F8               	movwf	(___fttol@sign1)
  5634                           	line	52
  5635                           	
  5636  0F89                     l3874:	
  5637  0F89  17F1               	bsf	(___fttol@f1)+(15/8),(15)&7
  5638                           	line	53
  5639                           	
  5640  0F8A                     l3876:	
  5641  0F8A  30FF               	movlw	0FFh
  5642  0F8B  05F0               	andwf	(___fttol@f1),f
  5643  0F8C  30FF               	movlw	0FFh
  5644  0F8D  05F1               	andwf	(___fttol@f1+1),f
  5645  0F8E  3000               	movlw	0
  5646  0F8F  05F2               	andwf	(___fttol@f1+2),f
  5647                           	line	54
  5648                           	
  5649  0F90                     l3878:	
  5650  0F90  0870               	movf	(___fttol@f1),w
  5651  0F91  00F9               	movwf	(___fttol@lval)
  5652  0F92  0871               	movf	(___fttol@f1+1),w
  5653  0F93  00FA               	movwf	((___fttol@lval))+1
  5654  0F94  0872               	movf	(___fttol@f1+2),w
  5655  0F95  00FB               	movwf	((___fttol@lval))+2
  5656  0F96  01FC               	clrf	((___fttol@lval))+3
  5657                           	line	55
  5658                           	
  5659  0F97                     l3880:	
  5660  0F97  308E               	movlw	low(08Eh)
  5661  0F98  02FD               	subwf	(___fttol@exp1),f
  5662                           	line	56
  5663                           	
  5664  0F99                     l3882:	
  5665  0F99  1FFD               	btfss	(___fttol@exp1),7
  5666  0F9A  2F9C               	goto	u2631
  5667  0F9B  2F9D               	goto	u2630
  5668  0F9C                     u2631:
  5669  0F9C  2FC2               	goto	l3892
  5670  0F9D                     u2630:
  5671                           	line	57
  5672                           	
  5673  0F9D                     l3884:	
  5674  0F9D  087D               	movf	(___fttol@exp1),w
  5675  0F9E  3A80               	xorlw	80h
  5676  0F9F  3E8F               	addlw	-((-15)^80h)
  5677  0FA0  1803               	skipnc
  5678  0FA1  2FA3               	goto	u2641
  5679  0FA2  2FA4               	goto	u2640
  5680  0FA3                     u2641:
  5681  0FA3  2FAF               	goto	l3890
  5682  0FA4                     u2640:
  5683                           	line	58
  5684                           	
  5685  0FA4                     l3886:	
  5686  0FA4  3000               	movlw	0
  5687  0FA5  00F3               	movwf	(?___fttol+3)
  5688  0FA6  3000               	movlw	0
  5689  0FA7  00F2               	movwf	(?___fttol+2)
  5690  0FA8  3000               	movlw	0
  5691  0FA9  00F1               	movwf	(?___fttol+1)
  5692  0FAA  3000               	movlw	0
  5693  0FAB  00F0               	movwf	(?___fttol)
  5694                           
  5695  0FAC  2FFF               	goto	l1916
  5696                           	
  5697  0FAD                     l3888:	
  5698  0FAD  2FFF               	goto	l1916
  5699                           	
  5700  0FAE                     l1918:	
  5701  0FAE  2FAF               	goto	l3890
  5702                           	line	59
  5703                           	
  5704  0FAF                     l1919:	
  5705                           	line	60
  5706                           	
  5707  0FAF                     l3890:	
  5708  0FAF  3001               	movlw	01h
  5709  0FB0                     u2655:
  5710  0FB0  1003               	clrc
  5711  0FB1  0CFC               	rrf	(___fttol@lval+3),f
  5712  0FB2  0CFB               	rrf	(___fttol@lval+2),f
  5713  0FB3  0CFA               	rrf	(___fttol@lval+1),f
  5714  0FB4  0CF9               	rrf	(___fttol@lval),f
  5715  0FB5  3EFF               	addlw	-1
  5716  0FB6  1D03               	skipz
  5717  0FB7  2FB0               	goto	u2655
  5718                           
  5719                           	line	61
  5720  0FB8  3001               	movlw	(01h)
  5721  0FB9  00F4               	movwf	(??___fttol+0)+0
  5722  0FBA  0874               	movf	(??___fttol+0)+0,w
  5723  0FBB  07FD               	addwf	(___fttol@exp1),f
  5724  0FBC  1D03               	btfss	status,2
  5725  0FBD  2FBF               	goto	u2661
  5726  0FBE  2FC0               	goto	u2660
  5727  0FBF                     u2661:
  5728  0FBF  2FAF               	goto	l3890
  5729  0FC0                     u2660:
  5730  0FC0  2FE6               	goto	l3902
  5731                           	
  5732  0FC1                     l1920:	
  5733                           	line	62
  5734  0FC1  2FE6               	goto	l3902
  5735                           	
  5736  0FC2                     l1917:	
  5737                           	line	63
  5738                           	
  5739  0FC2                     l3892:	
  5740  0FC2  3018               	movlw	(018h)
  5741  0FC3  027D               	subwf	(___fttol@exp1),w
  5742  0FC4  1C03               	skipc
  5743  0FC5  2FC7               	goto	u2671
  5744  0FC6  2FC8               	goto	u2670
  5745  0FC7                     u2671:
  5746  0FC7  2FDF               	goto	l3900
  5747  0FC8                     u2670:
  5748                           	line	64
  5749                           	
  5750  0FC8                     l3894:	
  5751  0FC8  3000               	movlw	0
  5752  0FC9  00F3               	movwf	(?___fttol+3)
  5753  0FCA  3000               	movlw	0
  5754  0FCB  00F2               	movwf	(?___fttol+2)
  5755  0FCC  3000               	movlw	0
  5756  0FCD  00F1               	movwf	(?___fttol+1)
  5757  0FCE  3000               	movlw	0
  5758  0FCF  00F0               	movwf	(?___fttol)
  5759                           
  5760  0FD0  2FFF               	goto	l1916
  5761                           	
  5762  0FD1                     l3896:	
  5763  0FD1  2FFF               	goto	l1916
  5764                           	
  5765  0FD2                     l1922:	
  5766                           	line	65
  5767  0FD2  2FDF               	goto	l3900
  5768                           	
  5769  0FD3                     l1924:	
  5770                           	line	66
  5771                           	
  5772  0FD3                     l3898:	
  5773  0FD3  3001               	movlw	01h
  5774  0FD4  00F4               	movwf	(??___fttol+0)+0
  5775  0FD5                     u2685:
  5776  0FD5  1003               	clrc
  5777  0FD6  0DF9               	rlf	(___fttol@lval),f
  5778  0FD7  0DFA               	rlf	(___fttol@lval+1),f
  5779  0FD8  0DFB               	rlf	(___fttol@lval+2),f
  5780  0FD9  0DFC               	rlf	(___fttol@lval+3),f
  5781  0FDA  0BF4               	decfsz	(??___fttol+0)+0
  5782  0FDB  2FD5               	goto	u2685
  5783                           	line	67
  5784  0FDC  3001               	movlw	low(01h)
  5785  0FDD  02FD               	subwf	(___fttol@exp1),f
  5786  0FDE  2FDF               	goto	l3900
  5787                           	line	68
  5788                           	
  5789  0FDF                     l1923:	
  5790                           	line	65
  5791                           	
  5792  0FDF                     l3900:	
  5793  0FDF  08FD               	movf	(___fttol@exp1),f
  5794  0FE0  1D03               	skipz
  5795  0FE1  2FE3               	goto	u2691
  5796  0FE2  2FE4               	goto	u2690
  5797  0FE3                     u2691:
  5798  0FE3  2FD3               	goto	l3898
  5799  0FE4                     u2690:
  5800  0FE4  2FE6               	goto	l3902
  5801                           	
  5802  0FE5                     l1925:	
  5803  0FE5  2FE6               	goto	l3902
  5804                           	line	69
  5805                           	
  5806  0FE6                     l1921:	
  5807                           	line	70
  5808                           	
  5809  0FE6                     l3902:	
  5810  0FE6  0878               	movf	(___fttol@sign1),w
  5811  0FE7  1D03               	skipz
  5812  0FE8  2FEA               	goto	u2700
  5813  0FE9  2FF6               	goto	l3906
  5814  0FEA                     u2700:
  5815                           	line	71
  5816                           	
  5817  0FEA                     l3904:	
  5818  0FEA  09F9               	comf	(___fttol@lval),f
  5819  0FEB  09FA               	comf	(___fttol@lval+1),f
  5820  0FEC  09FB               	comf	(___fttol@lval+2),f
  5821  0FED  09FC               	comf	(___fttol@lval+3),f
  5822  0FEE  0AF9               	incf	(___fttol@lval),f
  5823  0FEF  1903               	skipnz
  5824  0FF0  0AFA               	incf	(___fttol@lval+1),f
  5825  0FF1  1903               	skipnz
  5826  0FF2  0AFB               	incf	(___fttol@lval+2),f
  5827  0FF3  1903               	skipnz
  5828  0FF4  0AFC               	incf	(___fttol@lval+3),f
  5829  0FF5  2FF6               	goto	l3906
  5830                           	
  5831  0FF6                     l1926:	
  5832                           	line	72
  5833                           	
  5834  0FF6                     l3906:	
  5835  0FF6  087C               	movf	(___fttol@lval+3),w
  5836  0FF7  00F3               	movwf	(?___fttol+3)
  5837  0FF8  087B               	movf	(___fttol@lval+2),w
  5838  0FF9  00F2               	movwf	(?___fttol+2)
  5839  0FFA  087A               	movf	(___fttol@lval+1),w
  5840  0FFB  00F1               	movwf	(?___fttol+1)
  5841  0FFC  0879               	movf	(___fttol@lval),w
  5842  0FFD  00F0               	movwf	(?___fttol)
  5843                           
  5844  0FFE  2FFF               	goto	l1916
  5845                           	
  5846  0FFF                     l3908:	
  5847                           	line	73
  5848                           	
  5849  0FFF                     l1916:	
  5850  0FFF  0008               	return
  5851                           	opt stack 0
  5852                           GLOBAL	__end_of___fttol
  5853  1000                     	__end_of___fttol:
  5854 ;; =============== function ___fttol ends ============
  5855                           
  5856                           	signat	___fttol,4220
  5857                           	global	___ftpack
  5858                           psect	text441,local,class=CODE,delta=2
  5859                           global __ptext441
  5860  0E60                     __ptext441:
  5861                           
  5862 ;; *************** function ___ftpack *****************
  5863 ;; Defined at:
  5864 ;;		line 63 in file "C:\Program Files (x86)\HI-TECH Software\PICC\9.80\sources\float.c"
  5865 ;; Parameters:    Size  Location     Type
  5866 ;;  arg             3    0[COMMON] unsigned um
  5867 ;;  exp             1    3[COMMON] unsigned char 
  5868 ;;  sign            1    4[COMMON] unsigned char 
  5869 ;; Auto vars:     Size  Location     Type
  5870 ;;		None
  5871 ;; Return value:  Size  Location     Type
  5872 ;;                  3    0[COMMON] float 
  5873 ;; Registers used:
  5874 ;;		wreg, status,2, status,0
  5875 ;; Tracked objects:
  5876 ;;		On entry : 0/0
  5877 ;;		On exit  : 0/0
  5878 ;;		Unchanged: 0/0
  5879 ;; Data sizes:     COMMON   BANK0   BANK1   BANK3   BANK2
  5880 ;;      Params:         5       0       0       0       0
  5881 ;;      Locals:         0       0       0       0       0
  5882 ;;      Temps:          3       0       0       0       0
  5883 ;;      Totals:         8       0       0       0       0
  5884 ;;Total ram usage:        8 bytes
  5885 ;; Hardware stack levels used:    1
  5886 ;; This function calls:
  5887 ;;		Nothing
  5888 ;; This function is called by:
  5889 ;;		___ftadd
  5890 ;;		___ftdiv
  5891 ;;		___ftmul
  5892 ;;		___awtoft
  5893 ;;		___lwtoft
  5894 ;;		___lbtoft
  5895 ;;		___abtoft
  5896 ;;		___altoft
  5897 ;;		___lltoft
  5898 ;;		___attoft
  5899 ;;		___lttoft
  5900 ;; This function uses a non-reentrant model
  5901 ;;
  5902                           psect	text441
  5903                           	file	"C:\Program Files (x86)\HI-TECH Software\PICC\9.80\sources\float.c"
  5904                           	line	63
  5905                           	global	__size_of___ftpack
  5906  007B                     	__size_of___ftpack	equ	__end_of___ftpack-___ftpack
  5907                           	
  5908  0E60                     ___ftpack:	
  5909                           	opt	stack 5
  5910                           ; Regs used in ___ftpack: [wreg+status,2+status,0]
  5911                           	line	64
  5912                           	
  5913  0E60                     l3830:	
  5914  0E60  0873               	movf	(___ftpack@exp),w
  5915  0E61  1D03               	skipz
  5916  0E62  2E64               	goto	u2500
  5917  0E63  2E6C               	goto	l3834
  5918  0E64                     u2500:
  5919                           	
  5920  0E64                     l3832:	
  5921  0E64  0872               	movf	(___ftpack@arg+2),w
  5922  0E65  0471               	iorwf	(___ftpack@arg+1),w
  5923  0E66  0470               	iorwf	(___ftpack@arg),w
  5924  0E67  1D03               	skipz
  5925  0E68  2E6A               	goto	u2511
  5926  0E69  2E6B               	goto	u2510
  5927  0E6A                     u2511:
  5928  0E6A  2E82               	goto	l3840
  5929  0E6B                     u2510:
  5930  0E6B  2E6C               	goto	l3834
  5931                           	
  5932  0E6C                     l2140:	
  5933                           	line	65
  5934                           	
  5935  0E6C                     l3834:	
  5936  0E6C  3000               	movlw	0x0
  5937  0E6D  00F0               	movwf	(?___ftpack)
  5938  0E6E  3000               	movlw	0x0
  5939  0E6F  00F1               	movwf	(?___ftpack+1)
  5940  0E70  3000               	movlw	0x0
  5941  0E71  00F2               	movwf	(?___ftpack+2)
  5942  0E72  2EDA               	goto	l2141
  5943                           	
  5944  0E73                     l3836:	
  5945  0E73  2EDA               	goto	l2141
  5946                           	
  5947  0E74                     l2138:	
  5948                           	line	66
  5949  0E74  2E82               	goto	l3840
  5950                           	
  5951  0E75                     l2143:	
  5952                           	line	67
  5953                           	
  5954  0E75                     l3838:	
  5955  0E75  3001               	movlw	(01h)
  5956  0E76  00F5               	movwf	(??___ftpack+0)+0
  5957  0E77  0875               	movf	(??___ftpack+0)+0,w
  5958  0E78  07F3               	addwf	(___ftpack@exp),f
  5959                           	line	68
  5960  0E79  3001               	movlw	01h
  5961  0E7A                     u2525:
  5962  0E7A  1003               	clrc
  5963  0E7B  0CF2               	rrf	(___ftpack@arg+2),f
  5964  0E7C  0CF1               	rrf	(___ftpack@arg+1),f
  5965  0E7D  0CF0               	rrf	(___ftpack@arg),f
  5966  0E7E  3EFF               	addlw	-1
  5967  0E7F  1D03               	skipz
  5968  0E80  2E7A               	goto	u2525
  5969                           
  5970  0E81  2E82               	goto	l3840
  5971                           	line	69
  5972                           	
  5973  0E82                     l2142:	
  5974                           	line	66
  5975                           	
  5976  0E82                     l3840:	
  5977  0E82  30FE               	movlw	low highword(0FE0000h)
  5978  0E83  0572               	andwf	(___ftpack@arg+2),w
  5979  0E84  1D03               	btfss	status,2
  5980  0E85  2E87               	goto	u2531
  5981  0E86  2E88               	goto	u2530
  5982  0E87                     u2531:
  5983  0E87  2E75               	goto	l3838
  5984  0E88                     u2530:
  5985  0E88  2EA0               	goto	l2145
  5986                           	
  5987  0E89                     l2144:	
  5988                           	line	70
  5989  0E89  2EA0               	goto	l2145
  5990                           	
  5991  0E8A                     l2146:	
  5992                           	line	71
  5993                           	
  5994  0E8A                     l3842:	
  5995  0E8A  3001               	movlw	(01h)
  5996  0E8B  00F5               	movwf	(??___ftpack+0)+0
  5997  0E8C  0875               	movf	(??___ftpack+0)+0,w
  5998  0E8D  07F3               	addwf	(___ftpack@exp),f
  5999                           	line	72
  6000                           	
  6001  0E8E                     l3844:	
  6002  0E8E  3001               	movlw	01h
  6003  0E8F  07F0               	addwf	(___ftpack@arg),f
  6004  0E90  3000               	movlw	0
  6005  0E91  1803               	skipnc
  6006  0E92  3001               movlw 1
  6007  0E93  07F1               	addwf	(___ftpack@arg+1),f
  6008  0E94  3000               	movlw	0
  6009  0E95  1803               	skipnc
  6010  0E96  3001               movlw 1
  6011  0E97  07F2               	addwf	(___ftpack@arg+2),f
  6012                           	line	73
  6013                           	
  6014  0E98                     l3846:	
  6015  0E98  3001               	movlw	01h
  6016  0E99                     u2545:
  6017  0E99  1003               	clrc
  6018  0E9A  0CF2               	rrf	(___ftpack@arg+2),f
  6019  0E9B  0CF1               	rrf	(___ftpack@arg+1),f
  6020  0E9C  0CF0               	rrf	(___ftpack@arg),f
  6021  0E9D  3EFF               	addlw	-1
  6022  0E9E  1D03               	skipz
  6023  0E9F  2E99               	goto	u2545
  6024                           
  6025                           	line	74
  6026                           	
  6027  0EA0                     l2145:	
  6028                           	line	70
  6029  0EA0  30FF               	movlw	low highword(0FF0000h)
  6030  0EA1  0572               	andwf	(___ftpack@arg+2),w
  6031  0EA2  1D03               	btfss	status,2
  6032  0EA3  2EA5               	goto	u2551
  6033  0EA4  2EA6               	goto	u2550
  6034  0EA5                     u2551:
  6035  0EA5  2E8A               	goto	l3842
  6036  0EA6                     u2550:
  6037  0EA6  2EB3               	goto	l3850
  6038                           	
  6039  0EA7                     l2147:	
  6040                           	line	75
  6041  0EA7  2EB3               	goto	l3850
  6042                           	
  6043  0EA8                     l2149:	
  6044                           	line	76
  6045                           	
  6046  0EA8                     l3848:	
  6047  0EA8  3001               	movlw	low(01h)
  6048  0EA9  02F3               	subwf	(___ftpack@exp),f
  6049                           	line	77
  6050  0EAA  3001               	movlw	01h
  6051  0EAB                     u2565:
  6052  0EAB  1003               	clrc
  6053  0EAC  0DF0               	rlf	(___ftpack@arg),f
  6054  0EAD  0DF1               	rlf	(___ftpack@arg+1),f
  6055  0EAE  0DF2               	rlf	(___ftpack@arg+2),f
  6056  0EAF  3EFF               	addlw	-1
  6057  0EB0  1D03               	skipz
  6058  0EB1  2EAB               	goto	u2565
  6059  0EB2  2EB3               	goto	l3850
  6060                           	line	78
  6061                           	
  6062  0EB3                     l2148:	
  6063                           	line	75
  6064                           	
  6065  0EB3                     l3850:	
  6066  0EB3  1FF1               	btfss	(___ftpack@arg+1),(15)&7
  6067  0EB4  2EB6               	goto	u2571
  6068  0EB5  2EB7               	goto	u2570
  6069  0EB6                     u2571:
  6070  0EB6  2EA8               	goto	l3848
  6071  0EB7                     u2570:
  6072                           	
  6073  0EB7                     l2150:	
  6074                           	line	79
  6075  0EB7  1873               	btfsc	(___ftpack@exp),(0)&7
  6076  0EB8  2EBA               	goto	u2581
  6077  0EB9  2EBB               	goto	u2580
  6078  0EBA                     u2581:
  6079  0EBA  2EC1               	goto	l2151
  6080  0EBB                     u2580:
  6081                           	line	80
  6082                           	
  6083  0EBB                     l3852:	
  6084  0EBB  30FF               	movlw	0FFh
  6085  0EBC  05F0               	andwf	(___ftpack@arg),f
  6086  0EBD  307F               	movlw	07Fh
  6087  0EBE  05F1               	andwf	(___ftpack@arg+1),f
  6088  0EBF  30FF               	movlw	0FFh
  6089  0EC0  05F2               	andwf	(___ftpack@arg+2),f
  6090                           	
  6091  0EC1                     l2151:	
  6092                           	line	81
  6093  0EC1  1003               	clrc
  6094  0EC2  0CF3               	rrf	(___ftpack@exp),f
  6095                           
  6096                           	line	82
  6097                           	
  6098  0EC3                     l3854:	
  6099  0EC3  0873               	movf	(___ftpack@exp),w
  6100  0EC4  00F5               	movwf	((??___ftpack+0)+0)
  6101  0EC5  01F6               	clrf	((??___ftpack+0)+0+1)
  6102  0EC6  01F7               	clrf	((??___ftpack+0)+0+2)
  6103  0EC7  3010               	movlw	010h
  6104  0EC8                     u2595:
  6105  0EC8  1003               	clrc
  6106  0EC9  0DF5               	rlf	(??___ftpack+0)+0,f
  6107  0ECA  0DF6               	rlf	(??___ftpack+0)+1,f
  6108  0ECB  0DF7               	rlf	(??___ftpack+0)+2,f
  6109  0ECC                     u2590:
  6110  0ECC  3EFF               	addlw	-1
  6111  0ECD  1D03               	skipz
  6112  0ECE  2EC8               	goto	u2595
  6113  0ECF  0875               	movf	0+(??___ftpack+0)+0,w
  6114  0ED0  04F0               	iorwf	(___ftpack@arg),f
  6115  0ED1  0876               	movf	1+(??___ftpack+0)+0,w
  6116  0ED2  04F1               	iorwf	(___ftpack@arg+1),f
  6117  0ED3  0877               	movf	2+(??___ftpack+0)+0,w
  6118  0ED4  04F2               	iorwf	(___ftpack@arg+2),f
  6119                           	line	83
  6120                           	
  6121  0ED5                     l3856:	
  6122  0ED5  0874               	movf	(___ftpack@sign),w
  6123  0ED6  1D03               	skipz
  6124  0ED7  2ED9               	goto	u2600
  6125  0ED8  2EDA               	goto	l2152
  6126  0ED9                     u2600:
  6127                           	line	84
  6128                           	
  6129  0ED9                     l3858:	
  6130  0ED9  17F2               	bsf	(___ftpack@arg)+(23/8),(23)&7
  6131                           	
  6132  0EDA                     l2152:	
  6133                           	line	85
  6134                           	line	86
  6135                           	
  6136  0EDA                     l2141:	
  6137  0EDA  0008               	return
  6138                           	opt stack 0
  6139                           GLOBAL	__end_of___ftpack
  6140  0EDB                     	__end_of___ftpack:
  6141 ;; =============== function ___ftpack ends ============
  6142                           
  6143                           	signat	___ftpack,12411
  6144                           	global	___wmul
  6145                           psect	text442,local,class=CODE,delta=2
  6146                           global __ptext442
  6147  0C2A                     __ptext442:
  6148                           
  6149 ;; *************** function ___wmul *****************
  6150 ;; Defined at:
  6151 ;;		line 3 in file "C:\Program Files (x86)\HI-TECH Software\PICC\9.80\sources\wmul.c"
  6152 ;; Parameters:    Size  Location     Type
  6153 ;;  multiplier      2    0[COMMON] unsigned int 
  6154 ;;  multiplicand    2    2[COMMON] unsigned int 
  6155 ;; Auto vars:     Size  Location     Type
  6156 ;;  product         2    4[COMMON] unsigned int 
  6157 ;; Return value:  Size  Location     Type
  6158 ;;                  2    0[COMMON] unsigned int 
  6159 ;; Registers used:
  6160 ;;		wreg, status,2, status,0
  6161 ;; Tracked objects:
  6162 ;;		On entry : 0/0
  6163 ;;		On exit  : 0/0
  6164 ;;		Unchanged: 0/0
  6165 ;; Data sizes:     COMMON   BANK0   BANK1   BANK3   BANK2
  6166 ;;      Params:         4       0       0       0       0
  6167 ;;      Locals:         2       0       0       0       0
  6168 ;;      Temps:          0       0       0       0       0
  6169 ;;      Totals:         6       0       0       0       0
  6170 ;;Total ram usage:        6 bytes
  6171 ;; Hardware stack levels used:    1
  6172 ;; This function calls:
  6173 ;;		Nothing
  6174 ;; This function is called by:
  6175 ;;		_ADCReadData
  6176 ;; This function uses a non-reentrant model
  6177 ;;
  6178                           psect	text442
  6179                           	file	"C:\Program Files (x86)\HI-TECH Software\PICC\9.80\sources\wmul.c"
  6180                           	line	3
  6181                           	global	__size_of___wmul
  6182  002C                     	__size_of___wmul	equ	__end_of___wmul-___wmul
  6183                           	
  6184  0C2A                     ___wmul:	
  6185                           	opt	stack 6
  6186                           ; Regs used in ___wmul: [wreg+status,2+status,0]
  6187                           	line	4
  6188                           	
  6189  0C2A                     l3818:	
  6190  0C2A  3000               	movlw	low(0)
  6191  0C2B  00F4               	movwf	(___wmul@product)
  6192  0C2C  3000               	movlw	high(0)
  6193  0C2D  00F5               	movwf	((___wmul@product))+1
  6194  0C2E  2C2F               	goto	l3820
  6195                           	line	6
  6196                           	
  6197  0C2F                     l1806:	
  6198                           	line	7
  6199                           	
  6200  0C2F                     l3820:	
  6201  0C2F  1C70               	btfss	(___wmul@multiplier),(0)&7
  6202  0C30  2C32               	goto	u2461
  6203  0C31  2C33               	goto	u2460
  6204  0C32                     u2461:
  6205  0C32  2C39               	goto	l1807
  6206  0C33                     u2460:
  6207                           	line	8
  6208                           	
  6209  0C33                     l3822:	
  6210  0C33  0872               	movf	(___wmul@multiplicand),w
  6211  0C34  07F4               	addwf	(___wmul@product),f
  6212  0C35  1803               	skipnc
  6213  0C36  0AF5               	incf	(___wmul@product+1),f
  6214  0C37  0873               	movf	(___wmul@multiplicand+1),w
  6215  0C38  07F5               	addwf	(___wmul@product+1),f
  6216                           	
  6217  0C39                     l1807:	
  6218                           	line	9
  6219  0C39  3001               	movlw	01h
  6220                           	
  6221  0C3A                     u2475:
  6222  0C3A  1003               	clrc
  6223  0C3B  0DF2               	rlf	(___wmul@multiplicand),f
  6224  0C3C  0DF3               	rlf	(___wmul@multiplicand+1),f
  6225  0C3D  3EFF               	addlw	-1
  6226  0C3E  1D03               	skipz
  6227  0C3F  2C3A               	goto	u2475
  6228                           	line	10
  6229                           	
  6230  0C40                     l3824:	
  6231  0C40  3001               	movlw	01h
  6232                           	
  6233  0C41                     u2485:
  6234  0C41  1003               	clrc
  6235  0C42  0CF1               	rrf	(___wmul@multiplier+1),f
  6236  0C43  0CF0               	rrf	(___wmul@multiplier),f
  6237  0C44  3EFF               	addlw	-1
  6238  0C45  1D03               	skipz
  6239  0C46  2C41               	goto	u2485
  6240                           	line	11
  6241  0C47  0871               	movf	((___wmul@multiplier+1)),w
  6242  0C48  0470               	iorwf	((___wmul@multiplier)),w
  6243  0C49  1D03               	skipz
  6244  0C4A  2C4C               	goto	u2491
  6245  0C4B  2C4D               	goto	u2490
  6246  0C4C                     u2491:
  6247  0C4C  2C2F               	goto	l3820
  6248  0C4D                     u2490:
  6249  0C4D  2C4E               	goto	l3826
  6250                           	
  6251  0C4E                     l1808:	
  6252                           	line	12
  6253                           	
  6254  0C4E                     l3826:	
  6255  0C4E  0875               	movf	(___wmul@product+1),w
  6256  0C4F  01F1               	clrf	(?___wmul+1)
  6257  0C50  07F1               	addwf	(?___wmul+1)
  6258  0C51  0874               	movf	(___wmul@product),w
  6259  0C52  01F0               	clrf	(?___wmul)
  6260  0C53  07F0               	addwf	(?___wmul)
  6261                           
  6262  0C54  2C55               	goto	l1809
  6263                           	
  6264  0C55                     l3828:	
  6265                           	line	13
  6266                           	
  6267  0C55                     l1809:	
  6268  0C55  0008               	return
  6269                           	opt stack 0
  6270                           GLOBAL	__end_of___wmul
  6271  0C56                     	__end_of___wmul:
  6272 ;; =============== function ___wmul ends ============
  6273                           
  6274                           	signat	___wmul,8314
  6275                           	global	_InitializeSerialCommunication
  6276                           psect	text443,local,class=CODE,delta=2
  6277                           global __ptext443
  6278  0B9E                     __ptext443:
  6279                           
  6280 ;; *************** function _InitializeSerialCommunication *****************
  6281 ;; Defined at:
  6282 ;;		line 5 in file "C:\Users\X4ROY\Desktop\URE\LCD Interfacing - Copy\serial.c"
  6283 ;; Parameters:    Size  Location     Type
  6284 ;;		None
  6285 ;; Auto vars:     Size  Location     Type
  6286 ;;		None
  6287 ;; Return value:  Size  Location     Type
  6288 ;;		None               void
  6289 ;; Registers used:
  6290 ;;		wreg
  6291 ;; Tracked objects:
  6292 ;;		On entry : 0/0
  6293 ;;		On exit  : 0/0
  6294 ;;		Unchanged: 0/0
  6295 ;; Data sizes:     COMMON   BANK0   BANK1   BANK3   BANK2
  6296 ;;      Params:         0       0       0       0       0
  6297 ;;      Locals:         0       0       0       0       0
  6298 ;;      Temps:          0       0       0       0       0
  6299 ;;      Totals:         0       0       0       0       0
  6300 ;;Total ram usage:        0 bytes
  6301 ;; Hardware stack levels used:    1
  6302 ;; This function calls:
  6303 ;;		Nothing
  6304 ;; This function is called by:
  6305 ;;		_MainSystemInitialize
  6306 ;; This function uses a non-reentrant model
  6307 ;;
  6308                           psect	text443
  6309                           	file	"C:\Users\X4ROY\Desktop\URE\LCD Interfacing - Copy\serial.c"
  6310                           	line	5
  6311                           	global	__size_of_InitializeSerialCommunication
  6312  000E                     	__size_of_InitializeSerialCommunication	equ	__end_of_InitializeSerialCommunication-_Ini
                                 tializeSerialCommunication
  6313                           	
  6314  0B9E                     _InitializeSerialCommunication:	
  6315                           	opt	stack 6
  6316                           ; Regs used in _InitializeSerialCommunication: [wreg]
  6317                           	line	7
  6318                           	
  6319  0B9E                     l3800:	
  6320                           ;serial.c: 7: SPBRG = ((int)(16000000L/(16UL * 9600) -1));
  6321  0B9E  3067               	movlw	(067h)
  6322  0B9F  1683               	bsf	status, 5	;RP0=1, select bank1
  6323  0BA0  1303               	bcf	status, 6	;RP1=0, select bank1
  6324  0BA1  0099               	movwf	(153)^080h	;volatile
  6325                           	line	8
  6326                           ;serial.c: 8: RCSTA = 0x90;
  6327  0BA2  3090               	movlw	(090h)
  6328  0BA3  1283               	bcf	status, 5	;RP0=0, select bank0
  6329  0BA4  1303               	bcf	status, 6	;RP1=0, select bank0
  6330  0BA5  0098               	movwf	(24)	;volatile
  6331                           	line	9
  6332                           ;serial.c: 9: TXSTA = 0x24;
  6333  0BA6  3024               	movlw	(024h)
  6334  0BA7  1683               	bsf	status, 5	;RP0=1, select bank1
  6335  0BA8  1303               	bcf	status, 6	;RP1=0, select bank1
  6336  0BA9  0098               	movwf	(152)^080h	;volatile
  6337                           	line	10
  6338                           	
  6339  0BAA                     l3802:	
  6340                           ;serial.c: 10: SYNC=0;
  6341  0BAA  1218               	bcf	(1220/8)^080h,(1220)&7
  6342                           	line	11
  6343                           	
  6344  0BAB                     l1747:	
  6345  0BAB  0008               	return
  6346                           	opt stack 0
  6347                           GLOBAL	__end_of_InitializeSerialCommunication
  6348  0BAC                     	__end_of_InitializeSerialCommunication:
  6349 ;; =============== function _InitializeSerialCommunication ends ============
  6350                           
  6351                           	signat	_InitializeSerialCommunication,88
  6352                           	global	_SendByteSerially
  6353                           psect	text444,local,class=CODE,delta=2
  6354                           global __ptext444
  6355  0B86                     __ptext444:
  6356                           
  6357 ;; *************** function _SendByteSerially *****************
  6358 ;; Defined at:
  6359 ;;		line 14 in file "C:\Users\X4ROY\Desktop\URE\LCD Interfacing - Copy\serial.c"
  6360 ;; Parameters:    Size  Location     Type
  6361 ;;  byte            1    wreg     unsigned char 
  6362 ;; Auto vars:     Size  Location     Type
  6363 ;;  byte            1    0[COMMON] unsigned char 
  6364 ;; Return value:  Size  Location     Type
  6365 ;;		None               void
  6366 ;; Registers used:
  6367 ;;		wreg
  6368 ;; Tracked objects:
  6369 ;;		On entry : 0/0
  6370 ;;		On exit  : 0/0
  6371 ;;		Unchanged: 0/0
  6372 ;; Data sizes:     COMMON   BANK0   BANK1   BANK3   BANK2
  6373 ;;      Params:         0       0       0       0       0
  6374 ;;      Locals:         1       0       0       0       0
  6375 ;;      Temps:          0       0       0       0       0
  6376 ;;      Totals:         1       0       0       0       0
  6377 ;;Total ram usage:        1 bytes
  6378 ;; Hardware stack levels used:    1
  6379 ;; This function calls:
  6380 ;;		Nothing
  6381 ;; This function is called by:
  6382 ;;		_main
  6383 ;;		_SendStringSerially
  6384 ;;		_SendIntegerSerially
  6385 ;;		_SendFloatSerially
  6386 ;;		_SendCharSerially
  6387 ;; This function uses a non-reentrant model
  6388 ;;
  6389                           psect	text444
  6390                           	file	"C:\Users\X4ROY\Desktop\URE\LCD Interfacing - Copy\serial.c"
  6391                           	line	14
  6392                           	global	__size_of_SendByteSerially
  6393  000C                     	__size_of_SendByteSerially	equ	__end_of_SendByteSerially-_SendByteSerially
  6394                           	
  6395  0B86                     _SendByteSerially:	
  6396                           	opt	stack 7
  6397                           ; Regs used in _SendByteSerially: [wreg]
  6398                           ;SendByteSerially@byte stored from wreg
  6399  0B86  00F0               	movwf	(SendByteSerially@byte)
  6400                           	line	16
  6401                           	
  6402  0B87                     l3796:	
  6403                           ;serial.c: 16: while(!TXIF)
  6404  0B87  2B88               	goto	l1750
  6405                           	
  6406  0B88                     l1751:	
  6407                           	line	17
  6408                           ;serial.c: 17: continue;
  6409                           	
  6410  0B88                     l1750:	
  6411                           	line	16
  6412  0B88  1283               	bcf	status, 5	;RP0=0, select bank0
  6413  0B89  1303               	bcf	status, 6	;RP1=0, select bank0
  6414  0B8A  1E0C               	btfss	(100/8),(100)&7
  6415  0B8B  2B8D               	goto	u2421
  6416  0B8C  2B8E               	goto	u2420
  6417  0B8D                     u2421:
  6418  0B8D  2B88               	goto	l1750
  6419  0B8E                     u2420:
  6420  0B8E  2B8F               	goto	l3798
  6421                           	
  6422  0B8F                     l1752:	
  6423                           	line	18
  6424                           	
  6425  0B8F                     l3798:	
  6426                           ;serial.c: 18: TXREG = byte;
  6427  0B8F  0870               	movf	(SendByteSerially@byte),w
  6428  0B90  0099               	movwf	(25)	;volatile
  6429                           	line	19
  6430                           	
  6431  0B91                     l1753:	
  6432  0B91  0008               	return
  6433                           	opt stack 0
  6434                           GLOBAL	__end_of_SendByteSerially
  6435  0B92                     	__end_of_SendByteSerially:
  6436 ;; =============== function _SendByteSerially ends ============
  6437                           
  6438                           	signat	_SendByteSerially,4216
  6439                           	global	_ADCInitialize
  6440                           psect	text445,local,class=CODE,delta=2
  6441                           global __ptext445
  6442  0BBD                     __ptext445:
  6443                           
  6444 ;; *************** function _ADCInitialize *****************
  6445 ;; Defined at:
  6446 ;;		line 4 in file "C:\Users\X4ROY\Desktop\URE\LCD Interfacing - Copy\adc.c"
  6447 ;; Parameters:    Size  Location     Type
  6448 ;;		None
  6449 ;; Auto vars:     Size  Location     Type
  6450 ;;		None
  6451 ;; Return value:  Size  Location     Type
  6452 ;;		None               void
  6453 ;; Registers used:
  6454 ;;		None
  6455 ;; Tracked objects:
  6456 ;;		On entry : 0/0
  6457 ;;		On exit  : 0/0
  6458 ;;		Unchanged: 0/0
  6459 ;; Data sizes:     COMMON   BANK0   BANK1   BANK3   BANK2
  6460 ;;      Params:         0       0       0       0       0
  6461 ;;      Locals:         0       0       0       0       0
  6462 ;;      Temps:          0       0       0       0       0
  6463 ;;      Totals:         0       0       0       0       0
  6464 ;;Total ram usage:        0 bytes
  6465 ;; Hardware stack levels used:    1
  6466 ;; This function calls:
  6467 ;;		Nothing
  6468 ;; This function is called by:
  6469 ;;		_MainSystemInitialize
  6470 ;; This function uses a non-reentrant model
  6471 ;;
  6472                           psect	text445
  6473                           	file	"C:\Users\X4ROY\Desktop\URE\LCD Interfacing - Copy\adc.c"
  6474                           	line	4
  6475                           	global	__size_of_ADCInitialize
  6476  0012                     	__size_of_ADCInitialize	equ	__end_of_ADCInitialize-_ADCInitialize
  6477                           	
  6478  0BBD                     _ADCInitialize:	
  6479                           	opt	stack 6
  6480                           ; Regs used in _ADCInitialize: []
  6481                           	line	5
  6482                           	
  6483  0BBD                     l3794:	
  6484                           ;adc.c: 5: ADON = 1;
  6485  0BBD  1283               	bcf	status, 5	;RP0=0, select bank0
  6486  0BBE  1303               	bcf	status, 6	;RP1=0, select bank0
  6487  0BBF  141F               	bsf	(248/8),(248)&7
  6488                           	line	6
  6489                           ;adc.c: 6: ADFM = 1;
  6490  0BC0  1683               	bsf	status, 5	;RP0=1, select bank1
  6491  0BC1  1303               	bcf	status, 6	;RP1=0, select bank1
  6492  0BC2  179F               	bsf	(1279/8)^080h,(1279)&7
  6493                           	line	7
  6494                           ;adc.c: 7: ADCS2 = ADCS1 = ADCS0 = 0;
  6495  0BC3  1283               	bcf	status, 5	;RP0=0, select bank0
  6496  0BC4  1303               	bcf	status, 6	;RP1=0, select bank0
  6497  0BC5  131F               	bcf	(254/8),(254)&7
  6498  0BC6  139F               	bcf	(255/8),(255)&7
  6499  0BC7  1683               	bsf	status, 5	;RP0=1, select bank1
  6500  0BC8  1303               	bcf	status, 6	;RP1=0, select bank1
  6501  0BC9  131F               	bcf	(1278/8)^080h,(1278)&7
  6502                           	line	8
  6503                           ;adc.c: 8: PCFG3 = PCFG2 = PCFG0 =0;
  6504  0BCA  101F               	bcf	(1272/8)^080h,(1272)&7
  6505  0BCB  111F               	bcf	(1274/8)^080h,(1274)&7
  6506  0BCC  119F               	bcf	(1275/8)^080h,(1275)&7
  6507                           	line	9
  6508                           ;adc.c: 9: PCFG1 = 1;
  6509  0BCD  149F               	bsf	(1273/8)^080h,(1273)&7
  6510                           	line	10
  6511                           	
  6512  0BCE                     l570:	
  6513  0BCE  0008               	return
  6514                           	opt stack 0
  6515                           GLOBAL	__end_of_ADCInitialize
  6516  0BCF                     	__end_of_ADCInitialize:
  6517 ;; =============== function _ADCInitialize ends ============
  6518                           
  6519                           	signat	_ADCInitialize,88
  6520                           	global	_Delay
  6521                           psect	text446,local,class=CODE,delta=2
  6522                           global __ptext446
  6523  0BEA                     __ptext446:
  6524                           
  6525 ;; *************** function _Delay *****************
  6526 ;; Defined at:
  6527 ;;		line 4 in file "C:\Users\X4ROY\Desktop\URE\LCD Interfacing - Copy\delay.c"
  6528 ;; Parameters:    Size  Location     Type
  6529 ;;  time            2    0[COMMON] unsigned int 
  6530 ;; Auto vars:     Size  Location     Type
  6531 ;;  pause           1    3[COMMON] unsigned char 
  6532 ;; Return value:  Size  Location     Type
  6533 ;;		None               void
  6534 ;; Registers used:
  6535 ;;		wreg, status,2, status,0
  6536 ;; Tracked objects:
  6537 ;;		On entry : 0/0
  6538 ;;		On exit  : 0/0
  6539 ;;		Unchanged: 0/0
  6540 ;; Data sizes:     COMMON   BANK0   BANK1   BANK3   BANK2
  6541 ;;      Params:         2       0       0       0       0
  6542 ;;      Locals:         1       0       0       0       0
  6543 ;;      Temps:          1       0       0       0       0
  6544 ;;      Totals:         4       0       0       0       0
  6545 ;;Total ram usage:        4 bytes
  6546 ;; Hardware stack levels used:    1
  6547 ;; This function calls:
  6548 ;;		Nothing
  6549 ;; This function is called by:
  6550 ;;		_ADCReadData
  6551 ;;		_main
  6552 ;; This function uses a non-reentrant model
  6553 ;;
  6554                           psect	text446
  6555                           	file	"C:\Users\X4ROY\Desktop\URE\LCD Interfacing - Copy\delay.c"
  6556                           	line	4
  6557                           	global	__size_of_Delay
  6558  001F                     	__size_of_Delay	equ	__end_of_Delay-_Delay
  6559                           	
  6560  0BEA                     _Delay:	
  6561                           	opt	stack 7
  6562                           ; Regs used in _Delay: [wreg+status,2+status,0]
  6563                           	line	6
  6564                           	
  6565  0BEA                     l3784:	
  6566                           ;delay.c: 5: unsigned char pause;
  6567                           ;delay.c: 6: while( time > 0)
  6568  0BEA  2C01               	goto	l3792
  6569                           	
  6570  0BEB                     l4:	
  6571                           	line	8
  6572                           	
  6573  0BEB                     l3786:	
  6574                           ;delay.c: 7: {
  6575                           ;delay.c: 8: pause = 255;
  6576  0BEB  30FF               	movlw	(0FFh)
  6577  0BEC  00F2               	movwf	(??_Delay+0)+0
  6578  0BED  0872               	movf	(??_Delay+0)+0,w
  6579  0BEE  00F3               	movwf	(Delay@pause)
  6580                           	line	9
  6581                           ;delay.c: 9: while(pause--);
  6582  0BEF  2BF1               	goto	l3788
  6583                           	
  6584  0BF0                     l6:	
  6585  0BF0  2BF1               	goto	l3788
  6586                           	
  6587  0BF1                     l5:	
  6588                           	
  6589  0BF1                     l3788:	
  6590  0BF1  3001               	movlw	low(01h)
  6591  0BF2  02F3               	subwf	(Delay@pause),f
  6592  0BF3  0873               	movf	((Delay@pause)),w
  6593  0BF4  3AFF               	xorlw	0FFh
  6594  0BF5  1D03               	skipz
  6595  0BF6  2BF8               	goto	u2401
  6596  0BF7  2BF9               	goto	u2400
  6597  0BF8                     u2401:
  6598  0BF8  2BF1               	goto	l3788
  6599  0BF9                     u2400:
  6600  0BF9  2BFA               	goto	l3790
  6601                           	
  6602  0BFA                     l7:	
  6603                           	line	10
  6604                           	
  6605  0BFA                     l3790:	
  6606                           ;delay.c: 10: time--;
  6607  0BFA  3001               	movlw	low(01h)
  6608  0BFB  02F0               	subwf	(Delay@time),f
  6609  0BFC  3000               	movlw	high(01h)
  6610  0BFD  1C03               	skipc
  6611  0BFE  03F1               	decf	(Delay@time+1),f
  6612  0BFF  02F1               	subwf	(Delay@time+1),f
  6613  0C00  2C01               	goto	l3792
  6614                           	line	11
  6615                           	
  6616  0C01                     l3:	
  6617                           	line	6
  6618                           	
  6619  0C01                     l3792:	
  6620  0C01  0871               	movf	((Delay@time+1)),w
  6621  0C02  0470               	iorwf	((Delay@time)),w
  6622  0C03  1D03               	skipz
  6623  0C04  2C06               	goto	u2411
  6624  0C05  2C07               	goto	u2410
  6625  0C06                     u2411:
  6626  0C06  2BEB               	goto	l3786
  6627  0C07                     u2410:
  6628  0C07  2C08               	goto	l9
  6629                           	
  6630  0C08                     l8:	
  6631                           	line	12
  6632                           	
  6633  0C08                     l9:	
  6634  0C08  0008               	return
  6635                           	opt stack 0
  6636                           GLOBAL	__end_of_Delay
  6637  0C09                     	__end_of_Delay:
  6638 ;; =============== function _Delay ends ============
  6639                           
  6640                           	signat	_Delay,4216
  6641                           psect	text447,local,class=CODE,delta=2
  6642                           global __ptext447
  6643  0000                     __ptext447:
  6644                           	global	btemp
  6645  007E                     	btemp set 07Eh
  6646                           
  6647                           	DABS	1,126,2	;btemp
  6648                           	global	wtemp0
  6649  007E                     	wtemp0 set btemp


HI-TECH Software PICC Macro Assembler V9.80 build 6738 
Symbol Table                                                                                   Sun Jul 01 10:48:41 2012

                                     l3 0C01                                       l4 0BEB  
                                     l5 0BF1                                       l6 0BF0  
                                     l7 0BFA                                       l8 0C08  
                                     l9 0C08                                       pc 0002  
                                    _AT 00A0                            ___awdiv@sign 0076  
                                    fsr 0004                     ___wmul@multiplicand 0072  
                          ___ftadd@exp1 002F                            ___ftadd@exp2 002E  
                          ___ftadd@sign 002D                                     l570 0BCE  
                                   _AT0 00BA                                     l573 0136  
                                   _AT1 01B0                                     l574 0135  
                                   _AT2 00CA                                     l575 013E  
                                   _AT3 0063                                     l576 01C2  
                                   _RE0 0048                                     _RE1 0049  
                                   fsr0 0004                                     indf 0000  
                          ___awmod@sign 0076                    __size_of_ADCReadData 00AD  
                          ___ftdiv@cntr 0024                            ___ftdiv@sign 0029  
                                  l2020 0DB5                                    l2021 0DC6  
                                  l2022 0DD4                                    l2014 0D8F  
                                  l2023 0DDF                                    l2015 0D99  
                                  l2024 0DE6                                    l2016 0DD5  
                                  l2017 0DAF                                    l2018 0DA3  
                                  l2019 0DB4                                    l2140 0E6C  
                                  l1180 07DA                                    l2141 0EDA  
                                  l2029 0BE9                                    l1181 07E7  
                                  l1173 0645                                    l2150 0EB7  
                                  l2142 0E82                                    l1182 07FD  
                                  l1174 06CF                                    l2151 0EC1  
                                  l2143 0E75                                    l1183 07FD  
                                  l1175 06EE                                    l2152 0EDA  
                                  l2144 0E89                                    l4000 0D99  
                                  l1176 06ED                                    l2145 0EA0  
                                  l1177 075E                                    l2146 0E8A  
                                  l2138 0E74                                    l4010 0DB5  
                                  l4002 0D9F                                    l1186 0B85  
                                  l1178 076A                                    l2147 0EA7  
                                  l1179 0769                                    l2148 0EB3  
                                  l4020 0DD9                                    l4012 0DBF  
                                  l4004 0DA3                                    l4100 0F34  
                                  l2149 0EA8                                    l4022 0DDF  
                                  l4014 0DC6                                    l4006 0DAA  
                                  l4102 0F43                                    l4110 0395  
                                  l4024 0DE6                                    l4016 0DCD  
                                  l4008 0DAF                                    l4104 0F50  
                                  l4120 03B2                                    l4112 039B  
                                  l4200 022A                                    l4018 0DD5  
                                  l4130 03D0                                    l4122 03B8  
                                  l4114 03A6                                    l4106 0377  
                                  l4210 025D                                    l4202 0231  
                                  l4140 03F6                                    l4132 03D2  
                                  l4124 03C3                                    l4116 03AD  
                                  l4108 0391                                    l4212 025F  
                                  l4204 023D                                    l4220 0289  
                                  l4300 016B                                    l1750 0B88  
                                  l1806 0C2F                                    l4070 0B7B  
                                  l4150 0427                                    l4142 0401  
                                  l4134 03D8                                    l4126 03C7  
                                  l4118 03AE                                    l4214 0267  
                                  l4206 0245                                    l1910 032E  
                                  l4230 02BC                                    l4222 029C  
                                  l4310 01C2                                    l4302 017E  
                                  l1751 0B88                                    l1807 0C39  
                                  l1911 0343                                    l1752 0B8F  
                                  l1808 0C4E                                    l1920 0FC1  
                                  l4072 0B80                                    l4080 0C1C  
                                  l4160 0462                                    l4152 042D  
                                  l4144 040E                                    l4136 03E6  
                                  l4128 03CB                                    l4216 026E  
                                  l4208 0253                                    l1912 035A  
                                  l4240 02F2                                    l4232 02BD  
                                  l1904 02A4                                    l4224 02A3  
                                  l4304 0197                                    l4320 04F9  
                                  l4312 04C1                                    l4400 0762  
                                  l1753 0B91                                    l1809 0C55  
                                  l1921 0FE6                                    l1905 0376  
                                  l1922 0FD2                                    l1762 0C1C  
                                  l4074 0C0A                                    l4090 0EF2  
                                  l4082 0EDB                                    l4170 0490  
                                  l4162 0466                                    l4154 0438  
                                  l4138 03F0                                    l4146 0416  
                                  l1850 03AE                                    l4218 0288  
                                  l4250 031A                                    l4242 02F8  
                                  l4234 02EA                                    l1906 02BD  
                                  l4226 02A4                                    l4306 01B0  
                                  l4330 0558                                    l4322 050E  
                                  l4314 04C8                                    l4410 07C4  
                                  l4402 076A                                    l1747 0BAB  
                                  l1923 0FDF                                    l1915 0F77  
                                  l1763 0C0B                                    l1907 02FD  
                                  l1924 0FD3                                    l1916 0FFF  
                                  l1764 0C29                                    l4076 0C0B  
                                  l1780 0F00                                    l4092 0EF8  
                                  l4084 0EE2                                    l4172 04A0  
                                  l4164 0477                                    l4156 0445  
                                  l4148 041D                                    l1860 03E6  
                                  l1852 03A6                                    l4180 01D6  
                                  l4260 0343                                    l4252 0322  
                                  l1908 0312                                    l4244 02FD  
                                  l4236 02EB                                    l4228 02B5  
                                  l4308 01B9                                    l4340 05D0  
                                  l4332 0584                                    l4324 0514  
                                  l4316 04DD                                    l4420 07E7  
                                  l4412 07CD                                    l4404 0773  
                                  l1925 0FE5                                    l1917 0FC2  
                                  l1765 0C29                                    l1781 0F42  
                                  l1853 04C0                                    l1909 0329  
                                  l1926 0FF6                                    l1918 0FAE  
                                  l1950 0E14                                    l4078 0C17  
                                  l1782 0F50                                    l4094 0F00  
                                  l4086 0EE6                                    l4174 04A4  
                                  l4166 047C                                    l4158 0451  
                                  l1862 03FF                                    l1854 03C3  
                                  l4190 01F7                                    l4182 01DD  
                                  l4262 034B                                    l4254 0329  
                                  l4246 0301                                    l4238 02EC  
                                  l1942 0C6A                                    l4270 0C56  
                                  l4350 0604                                    l4342 05DE  
                                  l4334 0598                                    l1790 0598  
                                  l4326 051F                                    l4318 04E3  
                                  l4422 07ED                                    l4414 07D3  
                                  l4406 07B3                                    l1919 0FAF  
                                  l1951 0E25                                    l1783 0F43  
                                  l1871 0436                                    l1863 0400  
                                  l1943 0C83                                    l1791 05DE  
                                  l3800 0B9E                                    l1952 0E26  
                                  l1784 0F5B                                    l4096 0F1A  
                                  l4088 0EEC                                    l4176 04C0  
                                  l4168 048C                                    l1872 0437  
                                  l1864 040E                                    l1856 03C2  
                                  l4192 01FD                                    l4184 01DE  
                                  l4264 0353                                    l4256 032E  
                                  l4248 0312                                    l4272 0C5D  
                                  l4280 0BCF                                    l4352 060B  
                                  l1792 05EE                                    l4344 05E3  
                                  l4336 05B4                                    l4328 0525  
                                  l4424 07F3                                    l4416 07DA  
                                  l4408 07BE                                    l4360 063F  
                                  l1953 0E3F                                    l1785 0F5B  
                                  l1777 0EF2                                    l1873 0445  
                                  l1865 0401                                    l1857 03CC  
                                  l1793 05E3                                    l3802 0BAA  
                                  l1954 0E4D                                    l1946 0DF9  
                                  l1970 0B9D                                    l4098 0F1E  
                                  l1778 0EFF                                    l1874 0438  
                                  l1866 0415                                    l1858 03D1  
                                  l4194 0202                                    l4186 01EF  
                                  l4178 01C3                                    l4266 035A  
                                  l4258 0332                                    l4274 0C61  
                                  l4282 0BE9                                    l4290 0130  
                                  l4354 061A                                    l1794 05F7  
                                  l4346 05EE                                    l4338 05B8  
                                  l4418 07E0                                    l4370 068B  
                                  l4362 0645                                    l1955 0E58  
                                  l1947 0E06                                    l1779 0F34  
                                  l1875 044C                                    l1859 0416  
                                  l1867 044D                                    l1795 060B  
                                  l3820 0C2F                                    l3900 0FDF  
                                  l1956 0E5F                                    l1948 0E4E  
                                  l1876 0462                                    l1868 044D  
                                  l4196 0214                                    l4188 01F6  
                                  l4268 0376                                    l4276 0C6A  
                                  l4292 0133                                    l4284 0119  
                                  l1796 0630                                    l4356 0629  
                                  l4348 05F7                                    l1788 04F9  
                                  l4380 06C8                                    l4372 0696  
                                  l4364 064B                                    l1949 0E20  
                                  l1973 00D4                                    l1877 0477  
                                  l1869 041D                                    l1797 0630  
                                  l1789 05D0                                    l3822 0C33  
                                  l3830 0E60                                    l3902 0FE6  
                                  l1974 00FE                                    l1878 04A4  
                                  l4198 0226                                    l1894 01DE  
                                  l4278 0C83                                    l4294 0136  
                                  l4286 0123                                    l4390 0737  
                                  l4382 06CF                                    l4374 069C  
                                  l4366 0659                                    l4358 0631  
                                  l1975 0115                                    l1895 0288  
                                  l3824 0C40                                    l3840 0E82  
                                  l3832 0E64                                    l3904 0FEA  
                                  l1896 01F7                                    l4296 013E  
                                  l4288 0127                                    l4392 0742  
                                  l4384 06E6                                    l4376 06A5  
                                  l4368 0672                                    l1969 0B9C  
                                  l1897 023D                                    l3826 0C4E  
                                  l3818 0C2A                                    l3850 0EB3  
                                  l3842 0E8A                                    l3834 0E6C  
                                  l3906 0FF6                                    l3930 0DF9  
                                  l1898 025F                                    l4298 0150  
                                  l4394 0748                                    l4386 06EE  
                                  l4378 06B3                                    l1899 026E  
                                  l3828 0C55                                    l3852 0EBB  
                                  l3844 0E8E                                    l3836 0E73  
                                  l3908 0FFF                                    l3940 0E1B  
                                  l3932 0DFD                                    l3924 0DE7  
                                  l3780 0112                                    l4396 0751  
                                  l4388 06F7                                    l3790 0BFA  
                                  l3854 0EC3                                    l3846 0E98  
                                  l3838 0E75                                    l3870 0F76  
                                  l3950 0E3F                                    l3942 0E20  
                                  l3934 0E02                                    l3926 0DEC  
                                  l3782 0114                                    l4398 0757  
                                  l3792 0C01                                    l3784 0BEA  
                                  l3856 0ED5                                    l3848 0EA8  
                                  l3880 0F97                                    l3872 0F77  
                                  l3960 0E5F                                    l3952 0E46  
                                  l3944 0E26                                    l3936 0E10  
                                  l3928 0DF0                                    l3786 0BEB  
                                  l3794 0BBD                                    l3858 0ED9  
                                  l3890 0FAF                                    l3882 0F99  
                                  l3874 0F89                                    l3866 0F5C  
                                  l3946 0E37                                    l3938 0E14  
                                  l3954 0E4E                                    l3962 0B92  
                                  l3970 00AA                                    l3788 0BF1  
                                  l3796 0B87                                    l3884 0F9D  
                                  l3892 0FC2                                    l3876 0F8A  
                                  l3868 0F6D                                    l3956 0E52  
                                  l3948 0E3D                                    l3964 0B99  
                                  l3980 0100                                    l3972 00AE  
                                  l3798 0B8F                                    l3894 0FC8  
                                  l3886 0FA4                                    l3878 0F90  
                                  l3958 0E58                                    l3966 0B9C  
                                  l3982 0102                                    l3974 00D4  
                                  l3990 0D7D                                    l3896 0FD1  
                                  l3888 0FAD                                    l3968 0B9D  
                                  l3984 0110                                    l3976 00D8  
                                  l3992 0D82                                    _ADFM 04FF  
                                  l3898 0FD3                                    l3986 0112  
                                  l3978 00FE                                    l3994 0D86  
                                  l3988 0115                                    l3996 0D8F  
                                  l3998 0D93                                    _ADON 00F8  
                                  STR_1 0076                                    STR_2 008F  
                                  STR_3 0046                                    STR_4 0058  
                                  STR_5 001E                                    STR_6 0098  
                                  STR_7 0009                                    STR_8 0033  
                                  STR_9 0084                                    u3100 03A5  
                                  u3101 03A4                                    u3030 0C28  
                                  u3110 03B2                                    u3031 0C27  
                                  u2400 0BF9                                    u3040 0EE6  
                                  u3120 03B8                                    u2401 0BF8  
                                  u3041 0EE5                                    u3121 03B7  
                                  u2410 0C07                                    u3050 0EF8  
                                  u3210 0414                                    u3130 03C2  
                                  u2411 0C06                                    u3051 0EF7  
                                  u3211 0413                                    u3131 03C1  
                                  u2420 0B8E                                    u2500 0E64  
                                  u3060 0F41                                    u3220 041C  
                                  u3140 03CB                                    u2421 0B8D  
                                  u3061 0F40                                    u3301 0485  
                                  u3221 041B                                    u3205 0402  
                                  u3141 03CA                                    u2510 0E6B  
                                  u3070 0F5A                                    u3310 0490  
                                  u3302 048C                                    u3150 03D0  
                                  u2511 0E6A                                    u3071 0F59  
                                  u3311 048F                                    u3151 03CF  
                                  u2600 0ED9                                    u3240 042D  
                                  u3160 03E5                                    u3080 0395  
                                  u3320 01D6                                    u3400 029C  
                                  u3065 0F3D                                    u3241 042C  
                                  u3161 03E4                                    u3321 01D5  
                                  u3401 029B                                    u2530 0E88  
                                  u2610 0F6D                                    u3250 0435  
                                  u3090 039B                                    u3330 01EF  
                                  u3410 02B5                                    u2531 0E87  
                                  u2611 0F6C                                    u3251 0434  
                                  u3235 041E                                    u3091 039A  
                                  u3331 01EE                                    u3411 02B4  
                                  u2460 0C33                                    u2700 0FEA  
                                  u2620 0F82                                    u3180 03F6  
                                  u3340 020D                                    u3420 02CD  
                                  u2461 0C32                                    u2525 0E7A  
                                  u3181 03F5                                    u3501 033B  
                                  u2550 0EA6                                    u2630 0F9D  
                                  u3270 044B                                    u3190 03FE  
                                  u3350 021F                                    u3502 0342  
                                  u3430 02DF                                    u2551 0EA5  
                                  u2631 0F9C                                    u3271 044A  
                                  u3191 03FD                                    u3175 03E7  
                                  u2640 0FA4                                    u2800 0E4C  
                                  u2720 0DF0                                    u3280 0451  
                                  u3440 0301                                    u3600 061A  
                                  u2545 0E99                                    u2641 0FA3  
                                  u2625 0F7E                                    u2801 0E4B  
                                  u2721 0DEF                                    u3281 0450  
                                  u3265 0439                                    u3345 0209  
                                  u3441 0300                                    u3425 02C9  
                                  u3601 0619                                    u2490 0C4D  
                                  u2570 0EB7                                    u2810 0E52  
                                  u2730 0DFD                                    u3290 0466  
                                  u3370 0253                                    u3530 0359  
                                  u3610 0629                                    u2491 0C4C  
                                  u2475 0C3A                                    u2571 0EB6  
                                  u2731 0DFC                                    u3291 0465  
                                  u3371 0252                                    u3355 021B  
                                  u3531 0358                                    u3515 0344  
                                  u3451 030A                                    u3435 02DB  
                                  u3611 0628                                    u2580 0EBB  
                                  u2660 0FC0                                    u2740 0E10  
                                  u2820 0B99                                    u2900 0D9F  
                                  u3452 0311                                    u3540 0C61  
                                  u3620 06C8                                    u2485 0C41  
                                  u2581 0EBA                                    u2565 0EAB  
                                  u2661 0FBF                                    u2741 0E0F  
                                  u2821 0B98                                    u2901 0D9E  
                                  u3365 023E                                    u3525 034C  
                                  u3541 0C60                                    u3605 0616  
                                  u3621 06C7                                    u2590 0ECC  
                                  u2670 0FC8                                    u2830 00AE  
                                  u3390 026D                                    u3550 013D  
                                  u3630 06E6                                    u2671 0FC7  
                                  u2655 0FB0                                    u2831 00AD  
                                  u3391 026C                                    u3375 024F  
                                  u3551 013C                                    u3615 0625  
                                  u3631 06E5                                    u2760 0E24  
                                  u2920 0DB3                                    u3480 0328  
                                  u3560 04DD                                    u3640 0757  
                                  u2761 0E23                                    u2841 00C6  
                                  u2921 0DB2                                    u3385 0260  
                                  u3481 0327                                    u3465 0313  
                                  u3561 04DC                                    u3641 0756  
                                  u2690 0FE4                                    u2850 00D8  
                                  u2842 00C7                                    u2930 0DBF  
                                  u3490 0332                                    u3570 05DD  
                                  u3650 0762                                    u2595 0EC8  
                                  u2691 0FE3                                    u2755 0E15  
                                  u2851 00D7                                    u2843 00CC  
                                  u2931 0DBE                                    u2915 0DA4  
                                  u3491 0331                                    u3475 031B  
                                  u3571 05DC                                    u3651 0761  
                                  u2780 0E37                                    u2844 00CD  
                                  u3580 05F6                                    u3660 07D3  
                                  u2685 0FD5                                    u2781 0E36  
                                  u2861 00F0                                    u3581 05F5  
                                  u3661 07D2                                    u2870 0110  
                                  u2862 00F1                                    u2950 0DD3  
                                  u3590 0604                                    u3670 07E0  
                                  u2775 0E27                                    u2871 010F  
                                  u2863 00F6                                    u2951 0DD2  
                                  u2935 0DBB                                    u3591 0603  
                                  u3575 05D9                                    u3671 07DF  
                                  u2864 00F7                                    u2960 0DD9  
                                  u2880 0D86                                    u2785 0E33  
                                  u2945 0DC7                                    u2881 0D85  
                                  u2890 0D93                                    u2795 0E40  
                                  u2875 010C                                    u2891 0D92  
                                  u3595 0600                                    _RCIF 0065  
           __end_of_SendIntegerSerially 0F5C                                    _TXIF 0064  
                                  _SYNC 04C4                                    _TLow 005E  
                  _MainSystemInitialize 0B7B                                    _main 0631  
                          ___ftpack@arg 0070                            ___ftpack@exp 0073  
                                  btemp 007E                                    start 0000  
                          ___ftmul@cntr 003E                            ___ftmul@sign 003F  
                          ___fttol@exp1 007D                            ___fttol@lval 0079  
                                 _ADCS0 00FE                                   _ADCS1 00FF  
                                 _ADCS2 04FE                                   ?_main 0070  
                       __end_of___awdiv 0E60                         __end_of___ftadd 04C1  
                                 STR_10 00A1                                   STR_11 0068  
                                 STR_12 006C                                   STR_13 00A5  
                                 STR_14 00A6                         __end_of___awmod 0DE7  
                       __end_of___ftdiv 0289                         __end_of___ftneg 0B9E  
                       __end_of___ftmul 0377                         ___awdiv@divisor 0070  
                       __end_of___fttol 1000                                   _PCFG0 04F8  
                                 _PCFG1 04F9                                   _PCFG2 04FA  
                                 _PCFG3 04FB                         ___awdiv@counter 0075  
                                 _RCREG 001A                                   _RCSTA 0018  
                                 _SPBRG 0099                                   _PORTE 0009  
                                 _TRISE 0089                                   _TXREG 0019  
                                 _TXSTA 0098                                   _Delay 0BEA  
                                 _THigh 005A                    SendIntegerSerially@c 0020  
                  SendIntegerSerially@i 0026                      _SendStringSerially 0C09  
                                 _flag1 0062                           ___awtoft@sign 0022  
                         ___ftpack@sign 0074                                   pclath 000A  
                 ?_MainSystemInitialize 0070                     ?_SendStringSerially 0070  
                                 status 0003                                   wtemp0 007E  
                          __end_of_main 0800                  __size_of_ADCInitialize 0012  
                  ??_SendStringSerially 0071          ?_InitializeSerialCommunication 0070  
                                ??_main 0054                           ___fttol@sign1 0078  
                                ?_Delay 0070                                  _ADCON0 001F  
                                _ADRESH 001E                                  _ADRESL 009E  
                      ___awdiv@dividend 0072                        __end_of___awtoft 0C84  
                      __end_of___ftpack 0EDB                        __end_of___lwtoft 0BEA  
                _SendFloatSerially$1278 0048                                  _TH_Err 0110  
                                _TL_Err 0133                                  ___ftge 00AA  
                                ___wmul 0C2A                               ??___awdiv 0074  
                             ??___ftadd 0029                               ??___awmod 0074  
                             ??___ftdiv 0020                               ??___ftneg 007B  
                             ??___ftmul 0036                               ??___fttol 0074  
                      ___awdiv@quotient 0077                         ___awmod@divisor 0070  
                       ___awmod@counter 0075                   ___ftmul@f3_as_product 003B  
              __end_of_SendByteSerially 0B92                           _ADCInitialize 0BBD  
                ??_MainSystemInitialize 0070                              ___ftadd@f1 0023  
                            ___ftadd@f2 0026                              ___ftge@ff1 0070  
                            ___ftge@ff2 0073                              ___ftdiv@f1 007B  
                            ___ftdiv@f2 0078                              ___ftdiv@f3 0025  
                            ___ftneg@f1 0078                              ___awtoft@c 007B  
                         __end_of_Delay 0C09                              ___ftmul@f1 0030  
                            ___ftmul@f2 0033                              ___fttol@f1 0070  
                        __pcstackCOMMON 0070                            __pidataBANK0 0B74  
                          __pidataBANK1 0C84                            __pidataBANK2 0D38  
                          __pidataBANK3 0CB6                    SendByteSerially@byte 0070  
                            ___lwtoft@c 0078                                 ??_Delay 0072  
                        ?_ADCInitialize 0070                              __pbssBANK0 005A  
                            __pmaintext 0631                                 ?___ftge 0070  
                               ?___wmul 0070                   SendFloatSerially@Temp 004B  
                             ?___awtoft 007B                               ?___ftpack 0070  
                         ??_ADCReadData 0043                               ?___lwtoft 0078  
                          ADCReadData@c 004C                            ADCReadData@f 0045  
                          ADCReadData@p 0051                            ADCReadData@x 0048  
                          ADCReadData@y 004A                            ADCReadData@z 004E  
                               _HYS_Err 0190            __size_of_SendIntegerSerially 0081  
                       __size_of___ftge 006C                                 ___awdiv 0DE7  
                               ___ftadd 0377                                 ___awmod 0D7D  
                               ___ftdiv 01C3                                 ___ftneg 0B92  
                       __size_of___wmul 002C                                 ___ftmul 0289  
                               ___fttol 0F5C                              ??___awtoft 0020  
                            ??___ftpack 0075                              ??___lwtoft 007B  
                      ___awmod@dividend 0072                         ??_ADCInitialize 0070  
                   __end_of_ADCReadData 01C3                    end_of_initialization 0D34  
                             Delay@time 0070         ??_InitializeSerialCommunication 0070  
       SendStringSerially@serial_string 0072                                 init_ram 0BB0  
           __size_of_SendStringSerially 0021                       ?_SendByteSerially 0070  
              ADCReadData@ChannelNumber 0050                      ??_SendByteSerially 0070  
                           ___ftdiv@exp 0028                             ___ftmul@exp 003A  
                        __end_of___ftge 0116                          __end_of___wmul 0C56  
                           _ADCReadData 0116                     start_initialization 0CF5  
         __size_of_MainSystemInitialize 000B   __end_of_InitializeSerialCommunication 0BAC  
__size_of_InitializeSerialCommunication 000E           _InitializeSerialCommunication 0B9E  
                              ??___ftge 0076                                ??___wmul 0074  
                           __pdataBANK0 0063                             __pdataBANK1 00A0  
                           __pdataBANK2 0110                             __pdataBANK3 0190  
                     __size_of___awtoft 002E                       __size_of___ftpack 007B  
                     __size_of___lwtoft 001B                           __pcstackBANK0 0020  
                   _SendIntegerSerially 0EDB                    ?_SendIntegerSerially 0079  
      SendIntegerSerially@IntegerNumber 0079                                ?___awdiv 0070  
                              ?___ftadd 0023                               __ptext430 0289  
                             __ptext431 01C3                               __ptext440 0F5C  
                             __ptext432 0377                               __ptext441 0E60  
                             __ptext433 0EDB                               __ptext442 0C2A  
                             __ptext434 0C09                               __ptext426 04C1  
                             __ptext443 0B9E                               __ptext435 0B7B  
                             __ptext427 0116                                ?___awmod 0070  
                             __ptext444 0B86                               __ptext436 0D7D  
                             __ptext428 0BCF                               __ptext445 0BBD  
                             __ptext437 00AA                               __ptext429 0C56  
                             __ptext446 0BEA                               __ptext438 0B92  
                             __ptext447 0000                               __ptext439 0DE7  
                              ?___ftdiv 0078                                ?___ftneg 0078  
                              ?___ftmul 0030                                ?___fttol 0070  
                             __pstrings 0003                          __size_of_Delay 001F  
                        ___wmul@product 0074                   ??_SendIntegerSerially 007B  
                           __stringbase 0008                       ___wmul@multiplier 0070  
                             main@temp1 0055                   __end_of_ADCInitialize 0BCF  
                     _SendFloatSerially 04C1               __size_of_SendByteSerially 000C  
                    SendFloatSerially@c 0044                      SendFloatSerially@i 004D  
                    SendFloatSerially@n 004E                      ?_SendFloatSerially 0040  
                             init_fetch 0BAC              __end_of_SendStringSerially 0C2A  
                      __size_of___awdiv 0079                     ??_SendFloatSerially 0043  
                      __size_of___ftadd 014A                        __size_of___awmod 006A  
                      __size_of___ftdiv 00C6                        __size_of___ftneg 000C  
                      __size_of___ftmul 00EE                        __size_of___fttol 00A4  
                              ___awtoft 0C56                                ___ftpack 0E60  
                              ___lwtoft 0BCF                            ?_ADCReadData 0040  
             __end_of_SendFloatSerially 0631                           __size_of_main 01CF  
          __end_of_MainSystemInitialize 0B86                                main@temp 0057  
                            Delay@pause 0073                               stringcode 0003  
                              stringdir 0003                                stringtab 0003  
          SendFloatSerially@FloatNumber 0040              __size_of_SendFloatSerially 0170  
                      _SendByteSerially 0B86  
